Archive member included because of file (symbol)

userapps.a(app_main.o)        main.o (app_main)
userapps.a(hm_system.o)       userapps.a(app_main.o) (hm_sys_run_info)
userapps.a(RCLutils.o)        userapps.a(hm_system.o) (lib_strtohex)
userapps.a(hm_app_main.o)     userapps.a(app_main.o) (HM_app_main)
userapps.a(hm_uart.o)         userapps.a(hm_app_main.o) (hm_uart_init)
userapps.a(hm_uart_handle.)   userapps.a(hm_app_main.o) (hm_send_start_at_factor_test)
userapps.a(hm_connect_clou)   userapps.a(hm_app_main.o) (hm_start_connect_cloud)
userapps.a(hm_sub_devsend_)   userapps.a(hm_uart_handle.) (hm_sub_devsend_report)
userapps.a(hm_bind_json_pr)   userapps.a(hm_connect_clou) (hm_cloud_json_handle)
userapps.a(hm_dev_model.o)    userapps.a(hm_app_main.o) (hm_dev_mode_init)
userapps.a(hm_parameter.o)    userapps.a(hm_system.o) (spi_flash_synchronous_with_protect)
userapps.a(hm_link.o)         userapps.a(hm_uart_handle.) (hm_connect_wifi)
userapps.a(hm_wifi_frame.o)   userapps.a(hm_connect_clou) (hm_tcp_frame_send)
userapps.a(hm_MD5_sum.o)      userapps.a(hm_bind_json_pr) (hm_make_authkey)
userapps.a(md5sum.o)          userapps.a(hm_MD5_sum.o) (MD5Init)
libmc300.a(etimer.o)          main.o (etimer_set)
libmc300.a(printf.o)          libmc300.a(etimer.o) (printf)
libmc300.a(process.o)         userapps.a(hm_uart.o) (process_post)
libmc300.a(strformat.o)       libmc300.a(printf.o) (format_str_v)
libmc300.a(timer.o)           libmc300.a(etimer.o) (timer_set)
libmc300.a(boot-hiflying.o)   /tmp/ccsDtpxU.o (boot_main)
libmc300.a(clock.o)           libmc300.a(etimer.o) (clock_time)
libmc300.a(contiki-main.o)    libmc300.a(boot-hiflying.o) (main)
libmc300.a(debug-uart.o)      libmc300.a(printf.o) (dbg_send_bytes)
libmc300.a(drv_timer.o)       libmc300.a(clock.o) (hwtmr_start)
libmc300.a(drv_uart.o)        libmc300.a(debug-uart.o) (drv_uart_tx)
libmc300.a(hw_init.o)         libmc300.a(drv_uart.o) (ssv_delay)
libmc300.a(hw_regs_api.o)     libmc300.a(hw_init.o) (hw_reg_write)
libmc300.a(ssv_lib.o)         userapps.a(hm_system.o) (strlen)
libmc300.a(swpwm.o)           libmc300.a(clock.o) (initSwPWM)
libmc300.a(systemconf.o)      libmc300.a(clock.o) (gwifistatus)
libmc300.a(wdog_api.o)        libmc300.a(contiki-main.o) (watchdog_process)
libmc300.a(xmem.o)            libmc300.a(contiki-main.o) (cabrio_flash_init)
libmc300.a(bsp.o)             libmc300.a(hw_init.o) (set_mrx_filter_sta)
libmc300.a(crypthw.o)         libmc300.a(hw_init.o) (g_soc_table)
libmc300.a(dbg-atcmd-api.o)   libmc300.a(hw_init.o) (UpdateConf)
libmc300.a(drv_mac.o)         libmc300.a(dbg-atcmd-api.o) (SET_STA_MAC)
libmc300.a(drv_phy.o)         libmc300.a(hw_init.o) (drv_phy_init)
libmc300.a(drv_pktbuf.o)      libmc300.a(dbg-atcmd-api.o) (setpacketbuf_len)
libmc300.a(drv_pktbuf_slow)   libmc300.a(wdog_api.o) (ssv6xxx_pbuf_dump_reg)
libmc300.a(ieee80211_mgmt.)   libmc300.a(systemconf.o) (reset_AvailableIndex)
libmc300.a(ieee80211_rdc.o)   libmc300.a(dbg-atcmd-api.o) (ieee80211_rdc)
libmc300.a(irq.o)             libmc300.a(drv_uart.o) (irq_mask_disable)
libmc300.a(netstack.o)        libmc300.a(contiki-main.o) (netstack_init)
libmc300.a(powersave.o)       libmc300.a(ieee80211_mgmt.) (is_waketime_alive)
libmc300.a(rate_control.o)    libmc300.a(ieee80211_mgmt.) (init_ratecontrol)
libmc300.a(soft_ap.o)         libmc300.a(hw_init.o) (gwpa_ap)
libmc300.a(ssv6200_rx.o)      libmc300.a(powersave.o) (is_tx_active)
libmc300.a(ssvradio.o)        libmc300.a(ssv6200_rx.o) (ssv6200_radio_retrans)
libmc300.a(wpa.o)             libmc300.a(ieee80211_mgmt.) (init_wpa_ctx)
libmc300.a(aes.o)             libmc300.a(wpa.o) (aes_wrap2)
libmc300.a(hfat.o)            userapps.a(hm_system.o) (hfat_send_cmd)
libmc300.a(at_wifi_cmd.o)     libmc300.a(hfat.o) (hf_wifi_at_cmds_table)
libmc300.a(at_network_cmd.)   libmc300.a(hfat.o) (hf_network_at_cmds_table)
libmc300.a(hfgpio.o)          libmc300.a(hfat.o) (hfgpio_gpio_test_enable)
libmc300.a(hfdebug.o)         libmc300.a(printf.o) (hfdbg_get_level)
libmc300.a(hfuart.o)          userapps.a(hm_uart.o) (hfuart_send)
libmc300.a(hfsys.o)           userapps.a(hm_system.o) (hfmem_malloc)
libmc300.a(hfconfig.o)        libmc300.a(at_wifi_cmd.o) (hf_config_write_default_rf_table)
libmc300.a(hfflash.o)         libmc300.a(hfat.o) (flash_erase_page)
libmc300.a(hfnet.o)           userapps.a(app_main.o) (hfnet_start_socketa)
libmc300.a(uart_thread.o)     libmc300.a(at_wifi_cmd.o) (m2m_uart_recv)
libmc300.a(hfwifi.o)          libmc300.a(at_wifi_cmd.o) (hfwifi_scan_result_raw_format_str)
libmc300.a(hfupdate.o)        libmc300.a(hfat.o) (hfupdate_read_boot_ver)
libmc300.a(httpclient.o)      libmc300.a(hfupdate.o) (http_download_file)
libmc300.a(hfsmtlk.o)         libmc300.a(hfgpio.o) (hfsmtlk_start)
libmc300.a(smartlinkV3.o)     libmc300.a(hfsmtlk.o) (smartlinkv3_reset)
libmc300.a(smartlinkV7.o)     libmc300.a(smartlinkV3.o) (smartlinkv7_is_ongoing)
libmc300.a(airkissv2.o)       libmc300.a(hfsmtlk.o) (airkissv2_init)
libmc300.a(assis_thread.o)    libmc300.a(at_wifi_cmd.o) (assis_net)
libmc300.a(hftimer.o)         userapps.a(hm_uart.o) (hftimer_create)
libmc300.a(at_fota.o)         libmc300.a(hfat.o) (hf_fota_at_cmds_table)
libmc300.a(mc300_main.o)      libmc300.a(at_wifi_cmd.o) (hfwifi_ap_start)
libmc300.a(hfsniffer.o)       libmc300.a(mc300_main.o) (hfsniffer_is_run)
libmc300.a(socket_b.o)        libmc300.a(hfnet.o) (start_socketb)
libmc300.a(socket_a.o)        libmc300.a(hfnet.o) (start_socketa)
libmc300.a(at_socket_cmd.o)   libmc300.a(hfat.o) (hf_socket_at_cmds_table)
libmc300.a(socket_a_client)   libmc300.a(socket_a.o) (start_socketa_client)
libmc300.a(atcmd.o)           libmc300.a(mc300_main.o) (At_Parser)
libmc300.a(dhcp_process.o)    libmc300.a(ieee80211_mgmt.) (dhcp_configure)
libmc300.a(dhcpc.o)           libmc300.a(dhcp_process.o) (getDhcpState)
libmc300.a(dhcps.o)           libmc300.a(soft_ap.o) (dhcp_dump_info)
libmc300.a(resolv.o)          userapps.a(hm_connect_clou) (resolv_event_found)
libmc300.a(ringbuf.o)         libmc300.a(uart_thread.o) (ringbuf_init)
libmc300.a(simple-udp.o)      libmc300.a(hfupdate.o) (simple_udp_sendto)
libmc300.a(socket_driver.o)   libmc300.a(atcmd.o) (set_tcp_timeout)
libmc300.a(soft_ap_init.o)    libmc300.a(soft_ap.o) (g_softap_config)
libmc300.a(tcpip.o)           libmc300.a(httpclient.o) (tcpip_event)
libmc300.a(uip-split.o)       libmc300.a(tcpip.o) (uip_split_output)
libmc300.a(uip-udp-packet.)   libmc300.a(dhcpc.o) (uip_udp_packet_send)
libmc300.a(uip.o)             libmc300.a(wpa.o) (uip_aligned_buf)
libmc300.a(uip_arp.o)         libmc300.a(uip.o) (uip_arp_delete)
libmc300.a(uip_igmp.o)        libmc300.a(tcpip.o) (igmp_report)
libmc300.a(uiplib.o)          userapps.a(hm_connect_clou) (uiplib_ip4addrconv)
libmc300.a(arc4.o)            libmc300.a(wpa.o) (arc4_skip)
libmc300.a(wep.o)             libmc300.a(ieee80211_mgmt.) (getAuthChallengeTextLen)
libmc300.a(autostart.o)       libmc300.a(contiki-main.o) (autostart_start)
libmc300.a(random.o)          libmc300.a(clock.o) (random_init)
libmc300.a(airkiss.o)         libmc300.a(ieee80211_mgmt.) (clearAirKissBuf)
libmc300.a(atcmd_icomm.o)     libmc300.a(atcmd.o) (At_RespOK)
libmc300.a(bsp_info.o)        libmc300.a(contiki-main.o) (bsp_get_boot_info)
libmc300.a(cfs-coffee.o)      libmc300.a(systemconf.o) (cfs_open)
libmc300.a(console.o)         libmc300.a(contiki-main.o) (console_init)
libmc300.a(drv_flash.o)       libmc300.a(hfflash.o) (drv_memcpy)
libmc300.a(drv_gpio.o)        libmc300.a(swpwm.o) (get_PAD_Addr)
libmc300.a(gpio_api.o)        libmc300.a(swpwm.o) (pinMode)
libmc300.a(drv_pmu.o)         libmc300.a(hfsys.o) (drv_pmu_setwake_cnt)
libmc300.a(pwm_api.o)         libmc300.a(atcmd.o) (enableHwPWM)
libmc300.a(serial_api.o)      libmc300.a(uart_thread.o) (SerialInit)
libmc300.a(drv_wdog.o)        libmc300.a(wdog_api.o) (drv_wdog_reboot)
libmc300.a(fence.o)           libmc300.a(bsp.o) (fence_init)
libmc300.a(flash_api.o)       libmc300.a(hfflash.o) (spi_flash_init)
libmc300.a(smartComm.o)       libmc300.a(ieee80211_mgmt.) (disableSmartHwFilter)
libmc300.a(smartConf.o)       libmc300.a(ieee80211_mgmt.) (clearSmartLinkBuf)
libmc300.a(ssv_lib_slow.o)    libmc300.a(dbg-atcmd-api.o) (mac_atoi)
libmc300.a(userSmart.o)       libmc300.a(hfsmtlk.o) (AutoScanAP)
libmc300.a(drv_mbox.o)        libmc300.a(ssv6200_rx.o) (drv_mailbox_cpu_ff)
libmc300.a(hash_alg.o)        libmc300.a(wpa.o) (hmac_md5_cal)
libmc300.a(hmac_md5.o)        libmc300.a(hash_alg.o) (hmac_md5_init)
libmc300.a(hmac_sha1.o)       libmc300.a(hash_alg.o) (hmac_sha1_init)
libmc300.a(ieee80211_mac.o)   libmc300.a(ssv6200_rx.o) (eapoladdr)
libmc300.a(ieee80211_net.o)   libmc300.a(uip_arp.o) (arp_packet_sent)
libmc300.a(sha1.o)            libmc300.a(hmac_sha1.o) (sha1hw_init)
libmc300.a(ssv6200_tx.o)      libmc300.a(ssvradio.o) (ssv6200_transmit)
libmc300.a(sys_status_api.)   libmc300.a(atcmd_icomm.o) (get_local_mac)
libmc300.a(shell-ping.o)      libmc300.a(atcmd_icomm.o) (ping_start)
libmc300.a(drv_fence.o)       libmc300.a(fence.o) (hwfence_init)
libmc300.a(drv_pwm.o)         libmc300.a(pwm_api.o) (drv_pwm_setduty_sip)
libmc300.a(EAPOL.o)           libmc300.a(ieee80211_net.o) (rx_process_eapol)
libcjsona.a(cJSON.o)          userapps.a(hm_connect_clou) (cJSON_Delete)
./thirdpartylib/libairkiss.a(airkiss.o)
                              libmc300.a(airkissv2.o) (airkiss_init)
./thirdpartylib/libairkiss.a(airlink.o)
                              libmc300.a(airkissv2.o) (airkiss_lan_recv)
/usr/bin/../lib/gcc/arm-none-eabi/4.8.4/../../../../arm-none-eabi/lib/libm.a(lib_a-s_fabs.o)
                              libcjsona.a(cJSON.o) (fabs)
/usr/bin/../lib/gcc/arm-none-eabi/4.8.4/../../../../arm-none-eabi/lib/libm.a(lib_a-s_floor.o)
                              libcjsona.a(cJSON.o) (floor)
/usr/bin/../lib/gcc/arm-none-eabi/4.8.4/../../../../arm-none-eabi/lib/libm.a(lib_a-w_pow.o)
                              libcjsona.a(cJSON.o) (pow)
/usr/bin/../lib/gcc/arm-none-eabi/4.8.4/../../../../arm-none-eabi/lib/libm.a(lib_a-e_pow.o)
                              /usr/bin/../lib/gcc/arm-none-eabi/4.8.4/../../../../arm-none-eabi/lib/libm.a(lib_a-w_pow.o) (__ieee754_pow)
/usr/bin/../lib/gcc/arm-none-eabi/4.8.4/../../../../arm-none-eabi/lib/libm.a(lib_a-e_sqrt.o)
                              /usr/bin/../lib/gcc/arm-none-eabi/4.8.4/../../../../arm-none-eabi/lib/libm.a(lib_a-e_pow.o) (__ieee754_sqrt)
/usr/bin/../lib/gcc/arm-none-eabi/4.8.4/../../../../arm-none-eabi/lib/libm.a(lib_a-s_finite.o)
                              /usr/bin/../lib/gcc/arm-none-eabi/4.8.4/../../../../arm-none-eabi/lib/libm.a(lib_a-w_pow.o) (finite)
/usr/bin/../lib/gcc/arm-none-eabi/4.8.4/../../../../arm-none-eabi/lib/libm.a(lib_a-s_fpclassify.o)
                              /usr/bin/../lib/gcc/arm-none-eabi/4.8.4/../../../../arm-none-eabi/lib/libm.a(lib_a-w_pow.o) (__fpclassifyd)
/usr/bin/../lib/gcc/arm-none-eabi/4.8.4/../../../../arm-none-eabi/lib/libm.a(lib_a-s_lib_ver.o)
                              /usr/bin/../lib/gcc/arm-none-eabi/4.8.4/../../../../arm-none-eabi/lib/libm.a(lib_a-w_pow.o) (__fdlib_version)
/usr/bin/../lib/gcc/arm-none-eabi/4.8.4/../../../../arm-none-eabi/lib/libm.a(lib_a-s_matherr.o)
                              /usr/bin/../lib/gcc/arm-none-eabi/4.8.4/../../../../arm-none-eabi/lib/libm.a(lib_a-w_pow.o) (matherr)
/usr/bin/../lib/gcc/arm-none-eabi/4.8.4/../../../../arm-none-eabi/lib/libm.a(lib_a-s_nan.o)
                              /usr/bin/../lib/gcc/arm-none-eabi/4.8.4/../../../../arm-none-eabi/lib/libm.a(lib_a-e_pow.o) (nan)
/usr/bin/../lib/gcc/arm-none-eabi/4.8.4/../../../../arm-none-eabi/lib/libm.a(lib_a-s_rint.o)
                              /usr/bin/../lib/gcc/arm-none-eabi/4.8.4/../../../../arm-none-eabi/lib/libm.a(lib_a-w_pow.o) (rint)
/usr/bin/../lib/gcc/arm-none-eabi/4.8.4/../../../../arm-none-eabi/lib/libm.a(lib_a-s_scalbn.o)
                              /usr/bin/../lib/gcc/arm-none-eabi/4.8.4/../../../../arm-none-eabi/lib/libm.a(lib_a-e_pow.o) (scalbn)
/usr/bin/../lib/gcc/arm-none-eabi/4.8.4/../../../../arm-none-eabi/lib/libm.a(lib_a-s_copysign.o)
                              /usr/bin/../lib/gcc/arm-none-eabi/4.8.4/../../../../arm-none-eabi/lib/libm.a(lib_a-s_scalbn.o) (copysign)
/usr/bin/../lib/gcc/arm-none-eabi/4.8.4/libgcc.a(_udivsi3.o)
                              libmc300.a(printf.o) (__aeabi_uidiv)
/usr/bin/../lib/gcc/arm-none-eabi/4.8.4/libgcc.a(_divsi3.o)
                              libmc300.a(dbg-atcmd-api.o) (__aeabi_idiv)
/usr/bin/../lib/gcc/arm-none-eabi/4.8.4/libgcc.a(_dvmd_tls.o)
                              /usr/bin/../lib/gcc/arm-none-eabi/4.8.4/libgcc.a(_udivsi3.o) (__aeabi_idiv0)
/usr/bin/../lib/gcc/arm-none-eabi/4.8.4/libgcc.a(_arm_addsubdf3.o)
                              libcjsona.a(cJSON.o) (__aeabi_dsub)
/usr/bin/../lib/gcc/arm-none-eabi/4.8.4/libgcc.a(_arm_muldivdf3.o)
                              libcjsona.a(cJSON.o) (__aeabi_dmul)
/usr/bin/../lib/gcc/arm-none-eabi/4.8.4/libgcc.a(_arm_cmpdf2.o)
                              libcjsona.a(cJSON.o) (__aeabi_dcmpeq)
/usr/bin/../lib/gcc/arm-none-eabi/4.8.4/libgcc.a(_arm_fixdfsi.o)
                              libcjsona.a(cJSON.o) (__aeabi_d2iz)
/usr/bin/../lib/gcc/arm-none-eabi/4.8.4/libgcc.a(_arm_truncdfsf2.o)
                              userapps.a(RCLutils.o) (__aeabi_d2f)
/usr/bin/../lib/gcc/arm-none-eabi/4.8.4/libgcc.a(_arm_addsubsf3.o)
                              userapps.a(RCLutils.o) (__aeabi_fsub)
/usr/bin/../lib/gcc/arm-none-eabi/4.8.4/libgcc.a(_arm_muldivsf3.o)
                              userapps.a(RCLutils.o) (__aeabi_fmul)
/usr/bin/../lib/gcc/arm-none-eabi/4.8.4/libgcc.a(_aeabi_uldivmod.o)
                              libmc300.a(strformat.o) (__aeabi_uldivmod)
/usr/bin/../lib/gcc/arm-none-eabi/4.8.4/libgcc.a(bpabi.o)
                              /usr/bin/../lib/gcc/arm-none-eabi/4.8.4/libgcc.a(_aeabi_uldivmod.o) (__gnu_uldivmod_helper)
/usr/bin/../lib/gcc/arm-none-eabi/4.8.4/libgcc.a(_divdi3.o)
                              /usr/bin/../lib/gcc/arm-none-eabi/4.8.4/libgcc.a(bpabi.o) (__divdi3)
/usr/bin/../lib/gcc/arm-none-eabi/4.8.4/libgcc.a(_udivdi3.o)
                              /usr/bin/../lib/gcc/arm-none-eabi/4.8.4/libgcc.a(bpabi.o) (__udivdi3)
/usr/bin/../lib/gcc/arm-none-eabi/4.8.4/libgcc.a(_clzsi2.o)
                              /usr/bin/../lib/gcc/arm-none-eabi/4.8.4/libgcc.a(_divdi3.o) (__clzsi2)
/usr/bin/../lib/gcc/arm-none-eabi/4.8.4/../../../../arm-none-eabi/lib/libg_s.a(lib_a-atoi.o)
                              userapps.a(RCLutils.o) (atoi)
/usr/bin/../lib/gcc/arm-none-eabi/4.8.4/../../../../arm-none-eabi/lib/libg_s.a(lib_a-bzero.o)
                              libmc300.a(hfat.o) (bzero)
/usr/bin/../lib/gcc/arm-none-eabi/4.8.4/../../../../arm-none-eabi/lib/libg_s.a(lib_a-ctype_.o)
                              libcjsona.a(cJSON.o) (__ctype_ptr__)
/usr/bin/../lib/gcc/arm-none-eabi/4.8.4/../../../../arm-none-eabi/lib/libg_s.a(lib_a-errno.o)
                              libmc300.a(ssv_lib.o) (__errno)
/usr/bin/../lib/gcc/arm-none-eabi/4.8.4/../../../../arm-none-eabi/lib/libg_s.a(lib_a-impure.o)
                              /usr/bin/../lib/gcc/arm-none-eabi/4.8.4/../../../../arm-none-eabi/lib/libg_s.a(lib_a-errno.o) (_impure_ptr)
/usr/bin/../lib/gcc/arm-none-eabi/4.8.4/../../../../arm-none-eabi/lib/libg_s.a(lib_a-malloc.o)
                              libmc300.a(hfsys.o) (malloc)
/usr/bin/../lib/gcc/arm-none-eabi/4.8.4/../../../../arm-none-eabi/lib/libg_s.a(lib_a-memchr-stub.o)
                              userapps.a(hm_parameter.o) (memchr)
/usr/bin/../lib/gcc/arm-none-eabi/4.8.4/../../../../arm-none-eabi/lib/libg_s.a(lib_a-mstats.o)
                              libmc300.a(hfat.o) (mallinfo)
/usr/bin/../lib/gcc/arm-none-eabi/4.8.4/../../../../arm-none-eabi/lib/libg_s.a(lib_a-nano-freer.o)
                              /usr/bin/../lib/gcc/arm-none-eabi/4.8.4/../../../../arm-none-eabi/lib/libg_s.a(lib_a-malloc.o) (_free_r)
/usr/bin/../lib/gcc/arm-none-eabi/4.8.4/../../../../arm-none-eabi/lib/libg_s.a(lib_a-nano-mallinfor.o)
                              /usr/bin/../lib/gcc/arm-none-eabi/4.8.4/../../../../arm-none-eabi/lib/libg_s.a(lib_a-mstats.o) (_mallinfo_r)
/usr/bin/../lib/gcc/arm-none-eabi/4.8.4/../../../../arm-none-eabi/lib/libg_s.a(lib_a-nano-mallocr.o)
                              /usr/bin/../lib/gcc/arm-none-eabi/4.8.4/../../../../arm-none-eabi/lib/libg_s.a(lib_a-malloc.o) (_malloc_r)
/usr/bin/../lib/gcc/arm-none-eabi/4.8.4/../../../../arm-none-eabi/lib/libg_s.a(lib_a-nano-malloptr.o)
                              /usr/bin/../lib/gcc/arm-none-eabi/4.8.4/../../../../arm-none-eabi/lib/libg_s.a(lib_a-mstats.o) (_mallopt_r)
/usr/bin/../lib/gcc/arm-none-eabi/4.8.4/../../../../arm-none-eabi/lib/libg_s.a(lib_a-nano-mallstatsr.o)
                              /usr/bin/../lib/gcc/arm-none-eabi/4.8.4/../../../../arm-none-eabi/lib/libg_s.a(lib_a-mstats.o) (_malloc_stats_r)
/usr/bin/../lib/gcc/arm-none-eabi/4.8.4/../../../../arm-none-eabi/lib/libg_s.a(lib_a-rand.o)
                              libmc300.a(uip.o) (srand)
/usr/bin/../lib/gcc/arm-none-eabi/4.8.4/../../../../arm-none-eabi/lib/libg_s.a(lib_a-realloc.o)
                              libmc300.a(hfsys.o) (realloc)
/usr/bin/../lib/gcc/arm-none-eabi/4.8.4/../../../../arm-none-eabi/lib/libg_s.a(lib_a-sbrkr.o)
                              /usr/bin/../lib/gcc/arm-none-eabi/4.8.4/../../../../arm-none-eabi/lib/libg_s.a(lib_a-nano-mallinfor.o) (_sbrk_r)
/usr/bin/../lib/gcc/arm-none-eabi/4.8.4/../../../../arm-none-eabi/lib/libg_s.a(lib_a-sscanf.o)
                              libmc300.a(httpclient.o) (sscanf)
/usr/bin/../lib/gcc/arm-none-eabi/4.8.4/../../../../arm-none-eabi/lib/libg_s.a(lib_a-stdio.o)
                              /usr/bin/../lib/gcc/arm-none-eabi/4.8.4/../../../../arm-none-eabi/lib/libg_s.a(lib_a-sscanf.o) (__seofread)
/usr/bin/../lib/gcc/arm-none-eabi/4.8.4/../../../../arm-none-eabi/lib/libg_s.a(lib_a-strcasecmp.o)
                              libmc300.a(hfat.o) (strcasecmp)
/usr/bin/../lib/gcc/arm-none-eabi/4.8.4/../../../../arm-none-eabi/lib/libg_s.a(lib_a-strncasecmp.o)
                              libmc300.a(hfat.o) (strncasecmp)
/usr/bin/../lib/gcc/arm-none-eabi/4.8.4/../../../../arm-none-eabi/lib/libg_s.a(lib_a-strtol.o)
                              /usr/bin/../lib/gcc/arm-none-eabi/4.8.4/../../../../arm-none-eabi/lib/libg_s.a(lib_a-atoi.o) (_strtol_r)
/usr/bin/../lib/gcc/arm-none-eabi/4.8.4/../../../../arm-none-eabi/lib/libg_s.a(lib_a-strtoul.o)
                              libmc300.a(dbg-atcmd-api.o) (strtoul)
/usr/bin/../lib/gcc/arm-none-eabi/4.8.4/../../../../arm-none-eabi/lib/libg_s.a(lib_a-svfscanf.o)
                              /usr/bin/../lib/gcc/arm-none-eabi/4.8.4/../../../../arm-none-eabi/lib/libg_s.a(lib_a-sscanf.o) (__ssvfscanf_r)
/usr/bin/../lib/gcc/arm-none-eabi/4.8.4/../../../../arm-none-eabi/lib/libg_s.a(lib_a-ungetc.o)
                              /usr/bin/../lib/gcc/arm-none-eabi/4.8.4/../../../../arm-none-eabi/lib/libg_s.a(lib_a-svfscanf.o) (__submore)
/usr/bin/../lib/gcc/arm-none-eabi/4.8.4/../../../../arm-none-eabi/lib/libg_s.a(lib_a-vfscanf_i.o)
                              /usr/bin/../lib/gcc/arm-none-eabi/4.8.4/../../../../arm-none-eabi/lib/libg_s.a(lib_a-svfscanf.o) (_scanf_chars)
/usr/bin/../lib/gcc/arm-none-eabi/4.8.4/../../../../arm-none-eabi/lib/libg_s.a(lib_a-writer.o)
                              /usr/bin/../lib/gcc/arm-none-eabi/4.8.4/../../../../arm-none-eabi/lib/libg_s.a(lib_a-stdio.o) (_write_r)
/usr/bin/../lib/gcc/arm-none-eabi/4.8.4/../../../../arm-none-eabi/lib/libg_s.a(lib_a-closer.o)
                              /usr/bin/../lib/gcc/arm-none-eabi/4.8.4/../../../../arm-none-eabi/lib/libg_s.a(lib_a-stdio.o) (_close_r)
/usr/bin/../lib/gcc/arm-none-eabi/4.8.4/../../../../arm-none-eabi/lib/libg_s.a(lib_a-fflush.o)
                              /usr/bin/../lib/gcc/arm-none-eabi/4.8.4/../../../../arm-none-eabi/lib/libg_s.a(lib_a-ungetc.o) (_fflush_r)
/usr/bin/../lib/gcc/arm-none-eabi/4.8.4/../../../../arm-none-eabi/lib/libg_s.a(lib_a-findfp.o)
                              /usr/bin/../lib/gcc/arm-none-eabi/4.8.4/../../../../arm-none-eabi/lib/libg_s.a(lib_a-mstats.o) (__sinit)
/usr/bin/../lib/gcc/arm-none-eabi/4.8.4/../../../../arm-none-eabi/lib/libg_s.a(lib_a-fprintf.o)
                              /usr/bin/../lib/gcc/arm-none-eabi/4.8.4/../../../../arm-none-eabi/lib/libg_s.a(lib_a-mstats.o) (fiprintf)
/usr/bin/../lib/gcc/arm-none-eabi/4.8.4/../../../../arm-none-eabi/lib/libg_s.a(lib_a-fwalk.o)
                              /usr/bin/../lib/gcc/arm-none-eabi/4.8.4/../../../../arm-none-eabi/lib/libg_s.a(lib_a-findfp.o) (_fwalk)
/usr/bin/../lib/gcc/arm-none-eabi/4.8.4/../../../../arm-none-eabi/lib/libg_s.a(lib_a-lseekr.o)
                              /usr/bin/../lib/gcc/arm-none-eabi/4.8.4/../../../../arm-none-eabi/lib/libg_s.a(lib_a-stdio.o) (_lseek_r)
/usr/bin/../lib/gcc/arm-none-eabi/4.8.4/../../../../arm-none-eabi/lib/libg_s.a(lib_a-nano-reallocr.o)
                              /usr/bin/../lib/gcc/arm-none-eabi/4.8.4/../../../../arm-none-eabi/lib/libg_s.a(lib_a-realloc.o) (_realloc_r)
/usr/bin/../lib/gcc/arm-none-eabi/4.8.4/../../../../arm-none-eabi/lib/libg_s.a(lib_a-readr.o)
                              /usr/bin/../lib/gcc/arm-none-eabi/4.8.4/../../../../arm-none-eabi/lib/libg_s.a(lib_a-stdio.o) (_read_r)
/usr/bin/../lib/gcc/arm-none-eabi/4.8.4/../../../../arm-none-eabi/lib/libg_s.a(lib_a-reent.o)
                              /usr/bin/../lib/gcc/arm-none-eabi/4.8.4/../../../../arm-none-eabi/lib/libg_s.a(lib_a-sbrkr.o) (errno)
/usr/bin/../lib/gcc/arm-none-eabi/4.8.4/../../../../arm-none-eabi/lib/libg_s.a(lib_a-sccl.o)
                              /usr/bin/../lib/gcc/arm-none-eabi/4.8.4/../../../../arm-none-eabi/lib/libg_s.a(lib_a-svfscanf.o) (__sccl)
/usr/bin/../lib/gcc/arm-none-eabi/4.8.4/../../../../arm-none-eabi/lib/libg_s.a(lib_a-vfprintf.o)
                              /usr/bin/../lib/gcc/arm-none-eabi/4.8.4/../../../../arm-none-eabi/lib/libg_s.a(lib_a-fprintf.o) (_vfprintf_r)
/usr/bin/../lib/gcc/arm-none-eabi/4.8.4/../../../../arm-none-eabi/lib/libg_s.a(lib_a-vfprintf_i.o)
                              /usr/bin/../lib/gcc/arm-none-eabi/4.8.4/../../../../arm-none-eabi/lib/libg_s.a(lib_a-vfprintf.o) (_printf_i)
/usr/bin/../lib/gcc/arm-none-eabi/4.8.4/../../../../arm-none-eabi/lib/libg_s.a(lib_a-wbuf.o)
                              /usr/bin/../lib/gcc/arm-none-eabi/4.8.4/../../../../arm-none-eabi/lib/libg_s.a(lib_a-vfprintf.o) (__swbuf_r)
/usr/bin/../lib/gcc/arm-none-eabi/4.8.4/../../../../arm-none-eabi/lib/libg_s.a(lib_a-wsetup.o)
                              /usr/bin/../lib/gcc/arm-none-eabi/4.8.4/../../../../arm-none-eabi/lib/libg_s.a(lib_a-vfprintf.o) (__swsetup_r)
/usr/bin/../lib/gcc/arm-none-eabi/4.8.4/../../../../arm-none-eabi/lib/libg_s.a(lib_a-fvwrite.o)
                              /usr/bin/../lib/gcc/arm-none-eabi/4.8.4/../../../../arm-none-eabi/lib/libg_s.a(lib_a-vfprintf.o) (__sfvwrite_r)
/usr/bin/../lib/gcc/arm-none-eabi/4.8.4/../../../../arm-none-eabi/lib/libg_s.a(lib_a-makebuf.o)
                              /usr/bin/../lib/gcc/arm-none-eabi/4.8.4/../../../../arm-none-eabi/lib/libg_s.a(lib_a-wsetup.o) (__smakebuf_r)
/usr/bin/../lib/gcc/arm-none-eabi/4.8.4/../../../../arm-none-eabi/lib/libg_s.a(lib_a-nano-msizer.o)
                              /usr/bin/../lib/gcc/arm-none-eabi/4.8.4/../../../../arm-none-eabi/lib/libg_s.a(lib_a-nano-reallocr.o) (_malloc_usable_size_r)
/usr/bin/../lib/gcc/arm-none-eabi/4.8.4/../../../../arm-none-eabi/lib/libg_s.a(lib_a-fstatr.o)
                              /usr/bin/../lib/gcc/arm-none-eabi/4.8.4/../../../../arm-none-eabi/lib/libg_s.a(lib_a-makebuf.o) (_fstat_r)
/usr/bin/../lib/gcc/arm-none-eabi/4.8.4/../../../../arm-none-eabi/lib/libg_s.a(lib_a-isattyr.o)
                              /usr/bin/../lib/gcc/arm-none-eabi/4.8.4/../../../../arm-none-eabi/lib/libg_s.a(lib_a-makebuf.o) (_isatty_r)
/usr/bin/../lib/gcc/arm-none-eabi/4.8.4/../../../../arm-none-eabi/lib/libnosys.a(close.o)
                              /usr/bin/../lib/gcc/arm-none-eabi/4.8.4/../../../../arm-none-eabi/lib/libg_s.a(lib_a-closer.o) (_close)
/usr/bin/../lib/gcc/arm-none-eabi/4.8.4/../../../../arm-none-eabi/lib/libnosys.a(fstat.o)
                              /usr/bin/../lib/gcc/arm-none-eabi/4.8.4/../../../../arm-none-eabi/lib/libg_s.a(lib_a-fstatr.o) (_fstat)
/usr/bin/../lib/gcc/arm-none-eabi/4.8.4/../../../../arm-none-eabi/lib/libnosys.a(isatty.o)
                              /usr/bin/../lib/gcc/arm-none-eabi/4.8.4/../../../../arm-none-eabi/lib/libg_s.a(lib_a-isattyr.o) (_isatty)
/usr/bin/../lib/gcc/arm-none-eabi/4.8.4/../../../../arm-none-eabi/lib/libnosys.a(lseek.o)
                              /usr/bin/../lib/gcc/arm-none-eabi/4.8.4/../../../../arm-none-eabi/lib/libg_s.a(lib_a-lseekr.o) (_lseek)
/usr/bin/../lib/gcc/arm-none-eabi/4.8.4/../../../../arm-none-eabi/lib/libnosys.a(read.o)
                              /usr/bin/../lib/gcc/arm-none-eabi/4.8.4/../../../../arm-none-eabi/lib/libg_s.a(lib_a-readr.o) (_read)
/usr/bin/../lib/gcc/arm-none-eabi/4.8.4/../../../../arm-none-eabi/lib/libnosys.a(write.o)
                              /usr/bin/../lib/gcc/arm-none-eabi/4.8.4/../../../../arm-none-eabi/lib/libg_s.a(lib_a-writer.o) (_write)

Allocating common symbols
Common symbol       size              file

flash_write_ptr     0x4               libmc300.a(console.o)
m2m_uart_recv       0x400             libmc300.a(uart_thread.o)
os_tbeg_dst         0x4               libmc300.a(boot-hiflying.o)
g_hf_boot_config    0x12              libmc300.a(hfconfig.o)
arp_packet_len      0x2               main.o
m2m_uart_recv_num   0x4               libmc300.a(uart_thread.o)
msg_fw_up_end       0x20              libmc300.a(boot-hiflying.o)
reg_ADR_TXQ4_MTX_Q_MISC_EN
                    0x4               libmc300.a(soft_ap.o)
os_bss_end          0x4               libmc300.a(boot-hiflying.o)
resolv_event_found  0x1               libmc300.a(resolv.o)
uip_len             0x2               libmc300.a(uip.o)
gNextsleeptime      0x10              libmc300.a(powersave.o)
arp_packet_buff     0x50              main.o
errno               0x4               /usr/bin/../lib/gcc/arm-none-eabi/4.8.4/../../../../arm-none-eabi/lib/libg_s.a(lib_a-reent.o)
gSocketNetStatus    0x4               libmc300.a(atcmd.o)
gussleeptime        0x8               libmc300.a(powersave.o)
rate_table          0x20              libmc300.a(ieee80211_mgmt.)
hfakcontex          0x80              libmc300.a(airkissv2.o)
uip_sappdata        0x4               libmc300.a(uip.o)
uip_acc32           0x4               libmc300.a(uip.o)
os_bss_beg          0x4               libmc300.a(boot-hiflying.o)
os_tend_dst         0x4               libmc300.a(boot-hiflying.o)
cloud_heartbeat_timer
                    0x4               userapps.a(hm_connect_clou)
u32cmd_lenx         0x4               libmc300.a(drv_flash.o)
tx_pktbuf           0x8               libmc300.a(hw_init.o)
hm_48_frame_inf     0x1               userapps.a(hm_uart_handle.)
g_hfnet_stat        0x28              libmc300.a(hfnet.o)
gwifistatus         0x1e0             libmc300.a(systemconf.o)
uip_aligned_buf     0x5ec             libmc300.a(uip.o)
uip_flags           0x1               libmc300.a(uip.o)
g_soc_table         0x4               libmc300.a(crypthw.o)
g_softap_lease      0x50              libmc300.a(soft_ap_init.o)
rx_skb              0x18              libmc300.a(ieee80211_mac.o)
msg_fw_up_start     0x40              libmc300.a(boot-hiflying.o)
shm_uart_send_buffer
                    0xc8              userapps.a(hm_uart_handle.)
gCabrioConf         0xa2              libmc300.a(systemconf.o)
eapoltxcnt          0x4               libmc300.a(ieee80211_mac.o)
uip_udp_conn        0x4               libmc300.a(uip.o)
sk_pbuff            0x18              libmc300.a(hw_init.o)
uart_buffer         0x104             userapps.a(hm_uart.o)
ghm_uart_event_msg  0xc               userapps.a(hm_uart.o)
ap_list             0x1194            libmc300.a(clock.o)
boot_au32spi_data   0x104             libmc300.a(boot-hiflying.o)
beacon_buffer       0x80              libmc300.a(soft_ap.o)
flash_address       0x4               libmc300.a(console.o)
g_hardware_timer0   0x18              libmc300.a(hftimer.o)
i_config            0x80              libmc300.a(contiki-main.o)
g_socketb_status    0x10              libmc300.a(socket_b.o)
mgmtdata            0x10c             libmc300.a(ieee80211_mgmt.)
g_softap_config     0x18              libmc300.a(soft_ap_init.o)
gNextwaketime       0x10              libmc300.a(powersave.o)
uip_appdata         0x4               libmc300.a(uip.o)
uip_conn            0x4               libmc300.a(uip.o)
tcpip_event         0x1               libmc300.a(tcpip.o)
os_dbeg_dst         0x4               libmc300.a(boot-hiflying.o)
uip_conns           0x4b0             libmc300.a(uip.o)
g_hf_config_file    0x419             libmc300.a(hfconfig.o)
i_cabrio_flash_cmd  0x16              libmc300.a(drv_flash.o)
boot_au32spi_cmd    0x104             libmc300.a(boot-hiflying.o)
os_dbeg_src         0x4               libmc300.a(boot-hiflying.o)
eapoladdr           0x4               libmc300.a(ieee80211_mac.o)
nPingEcho           0x4               libmc300.a(ieee80211_net.o)
wep_rc4             0x108             libmc300.a(wep.o)
msg_restart         0x20              libmc300.a(boot-hiflying.o)
assis_net           0xd8              libmc300.a(assis_thread.o)
CMD_NUM             0x1               libmc300.a(clock.o)
reg_ADR_TXQ4_MTX_Q_BKF_CNT
                    0x4               libmc300.a(soft_ap.o)
exmode              0x1               libmc300.a(powersave.o)
msg_fw_upgrade      0x20              libmc300.a(boot-hiflying.o)
addr_stack_fence_local
                    0x4               libmc300.a(fence.o)
reg_ADR_TXQ4_MTX_Q_AIFSN
                    0x4               libmc300.a(soft_ap.o)
DATA_STATUS         0x1               libmc300.a(clock.o)
uip_listenports     0x14              libmc300.a(uip.o)
uip_draddr          0x4               libmc300.a(uip.o)
gOldCabrioConf      0xa2              libmc300.a(systemconf.o)
reg_ADR_TXQ3_MTX_Q_AIFSN
                    0x4               libmc300.a(soft_ap.o)
gwpa_ap             0x118             libmc300.a(soft_ap.o)
specialchar         0x1               libmc300.a(console.o)
msgdata             0x10c             libmc300.a(console.o)
rssiLevelChangCnt   0x1               libmc300.a(ieee80211_mgmt.)
uip_surglen         0x2               libmc300.a(uip.o)
papd_ltbl_pm        0x68              libmc300.a(drv_phy.o)
eventdata           0x10c             libmc300.a(dhcpc.o)
os_tbeg_src         0x4               libmc300.a(boot-hiflying.o)
msg_main            0x20              libmc300.a(boot-hiflying.o)
rx_que              0x188             libmc300.a(ssv6200_rx.o)
amsg                0x100             libmc300.a(boot-hiflying.o)
u32spi_addr         0x4               libmc300.a(drv_flash.o)
process_para        0x2               main.o
uart_timer          0x4               userapps.a(hm_uart.o)
destAddr            0x4               libmc300.a(assis_thread.o)
u32cmd_len          0x4               libmc300.a(drv_flash.o)
uip_urgdata         0x4               libmc300.a(uip.o)
gusbeaconinterval   0x8               libmc300.a(powersave.o)
uip_netmask         0x4               libmc300.a(uip.o)
uip_hostaddr        0x4               libmc300.a(uip.o)
boot_flash_cache_buffer
                    0x1000            libmc300.a(boot-hiflying.o)
i_boot_cabrio_flash_cmd
                    0xc               libmc300.a(boot-hiflying.o)
pGSRAM_KEY          0x4               libmc300.a(crypthw.o)
wep                 0xbf2             libmc300.a(wep.o)
papd_ltbl_am        0x68              libmc300.a(drv_phy.o)
extended_rate_table
                    0x20              libmc300.a(ieee80211_mgmt.)
uip_urglen          0x2               libmc300.a(uip.o)
os_dend_dst         0x4               libmc300.a(boot-hiflying.o)
scan_ssid           0x40              userapps.a(hm_uart_handle.)
gwpa_ctx            0x118             libmc300.a(ieee80211_mgmt.)
uip_slen            0x2               libmc300.a(uip.o)
gNetStatus          0xc               libmc300.a(mc300_main.o)
uip_udp_conns       0x3e8             libmc300.a(uip.o)

Memory Configuration

Name             Origin             Length             Attributes
flash            0x03000000         0x0009e000         xr
ram              0x02000000         0x00030000         xrw
*default*        0x00000000         0xffffffff

Linker script and memory map

                0x0009e000                _flash_size_ = 0x9e000
                0x00030000                _ram_size_ = 0x30000
                0x0202fffc                __stack_end__ = ((ORIGIN (ram) + 0x30000) - 0x4)
                0x00004000                _boot_size = 0x4000
                0x03000000                . = ORIGIN (flash)
                0x03000000                _sitxt0 = .

startup         0x03000000      0x190
 *(.startup1)
 .startup1      0x03000000       0x50 /tmp/ccsDtpxU.o
 *(.startup2)
 .startup2      0x03000050      0x140 /tmp/ccsDtpxU.o
                0x03000164                endless_loop
                0x03000190                . = ALIGN (0x10)
                0x02029000                _vma_boot_text_beg = ((ORIGIN (ram) + 0x30000) - 0x7000)
                0x03000190                _sitxt0a = (_sitxt0 + SIZEOF (startup))
                0x03004000                . = (ORIGIN (flash) + _boot_size)
                0x03004000                _sitxt2 = .

prog_in_flash   0x03004000    0x4a5c0
 *(.vars_second_boot)
 .vars_second_boot
                0x03004000       0x48 /tmp/ccsDtpxU.o
 libmc300.a:contiki-main.o(.text.startup.main)
 .text.startup.main
                0x03004048      0x10c libmc300.a(contiki-main.o)
                0x03004048                main
 *(EXCLUDE_FILE(libmc300.a:ssv_lib.o libmc300.a:sha256.o libmc300.a:sha384.o libmc300.a:sha512.o libmc300.a:x905.o libmc300.a:asn1.o libmc300.a:pstmsqrcomba.o libmc300.a:pstmmulcomba.o libmc300.a:pstmmonreduce.o libmc300.a:pstm.o libmc300.a:aes.o libmc300.a:sha1ssl.o libmc300.a:psock.o libmc300.a:socket_driver.o libmc300.a:powersave.o libmc300.a:hw_regs_api.o libmc300.a:flash_api.o libmc300.a:drv_flash.o libmc300.a:xmem.o libmc300.a:soft_ap.o libmc300.a:debug-uart.o libmc300.a:dbg-puts.o libmc300.a:strformat.o libmc300.a:dbg-printf.o libmc300.a:rate_control.o libmc300.a:throughput.o libmc300.a:ssv6200_tx.o libmc300.a:ssv6200_rx.o libmc300.a:ssvradio.o libmc300.a:drv_pktbuf.o libmc300.a:packetbuf.o libmc300.a:ieee80211_rdc.o libmc300.a:ieee80211_net.o libmc300.a:tcpip.o libmc300.a:etimer.o libmc300.a:clock.o libmc300.a:timer.o libmc300.a:uip-split.o libmc300.a:uip.o libmc300.a:boot-hiflying.o /usr/bin/../lib/gcc/arm-none-eabi/4.8.4/libgcc.a:_udivsi3.o /usr/bin/../lib/gcc/arm-none-eabi/4.8.4/libgcc.a:_divsi3.o /usr/bin/../lib/gcc/arm-none-eabi/4.8.4/libgcc.a:_dvmd_tls.o /usr/bin/../lib/gcc/arm-none-eabi/4.8.4/libgcc.a:_udivdi3.o /usr/bin/../lib/gcc/arm-none-eabi/4.8.4/libgcc.a:bpabi.o /usr/bin/../lib/gcc/arm-none-eabi/4.8.4/libgcc.a:_divdi3.o /usr/bin/../lib/gcc/arm-none-eabi/4.8.4/libgcc.a:_aeabi_uldivmod.o) .text*)
 .text          0x03004154        0x0 /tmp/ccsDtpxU.o
 .text          0x03004154       0x54 /tmp/ccrvIGXc.o
                0x03004158                relocate
 .text          0x030041a8        0x0 main.o
 .text.process_thread_main_process
                0x030041a8       0x88 main.o
 .text          0x03004230        0x0 userapps.a(app_main.o)
 .text.sys_event_callback
                0x03004230       0x98 userapps.a(app_main.o)
                0x03004230                sys_event_callback
 .text.get_user_default_rf_table
                0x030042c8        0x8 userapps.a(app_main.o)
                0x030042c8                get_user_default_rf_table
 .text.app_main
                0x030042d0       0xf8 userapps.a(app_main.o)
                0x030042d0                app_main
 .text          0x030043c8        0x0 userapps.a(hm_system.o)
 .text.get_parameter_string
                0x030043c8       0x58 userapps.a(hm_system.o)
 .text.get_parameter_integer
                0x03004420       0x20 userapps.a(hm_system.o)
 .text.get_feedback_parameter_string
                0x03004440       0x58 userapps.a(hm_system.o)
 .text.hm_get_wifi_work_mode
                0x03004498       0x90 userapps.a(hm_system.o)
                0x03004498                hm_get_wifi_work_mode
 .text.hm_set_wifi_work_mode
                0x03004528       0x84 userapps.a(hm_system.o)
                0x03004528                hm_set_wifi_work_mode
 .text.station_get_ip_string
                0x030045ac       0x9c userapps.a(hm_system.o)
                0x030045ac                station_get_ip_string
 .text.get_full_bin_version
                0x03004648       0x48 userapps.a(hm_system.o)
                0x03004648                get_full_bin_version
 .text.str_to_hex
                0x03004690       0x54 userapps.a(hm_system.o)
                0x03004690                str_to_hex
 .text.hm_wifi_get_macaddr
                0x030046e4       0xb0 userapps.a(hm_system.o)
                0x030046e4                hm_wifi_get_macaddr
 .text.get_tid  0x03004794       0x60 userapps.a(hm_system.o)
                0x03004794                get_tid
 .text.get_mac_string
                0x030047f4       0x60 userapps.a(hm_system.o)
                0x030047f4                get_mac_string
 .text.hm_wifi_station_get_rssi
                0x03004854       0x98 userapps.a(hm_system.o)
                0x03004854                hm_wifi_station_get_rssi
 .text.parse_version
                0x030048ec       0xdc userapps.a(hm_system.o)
                0x030048ec                parse_version
 .text.hex_to_str
                0x030049c8       0x44 userapps.a(hm_system.o)
                0x030049c8                hex_to_str
 .text.hex_to_str_nomalloc
                0x03004a0c       0x1c userapps.a(hm_system.o)
                0x03004a0c                hex_to_str_nomalloc
 .text.str_to_str
                0x03004a28       0x40 userapps.a(hm_system.o)
                0x03004a28                str_to_str
 .text.product_info_get_mid
                0x03004a68       0x10 userapps.a(hm_system.o)
                0x03004a68                product_info_get_mid
 .text.product_info_set_mid
                0x03004a78       0x6c userapps.a(hm_system.o)
                0x03004a78                product_info_set_mid
 .text.product_info_get_pin_code
                0x03004ae4       0x10 userapps.a(hm_system.o)
                0x03004ae4                product_info_get_pin_code
 .text.product_info_set_pin_code
                0x03004af4      0x104 userapps.a(hm_system.o)
                0x03004af4                product_info_set_pin_code
 .text.product_info_clear_pincode
                0x03004bf8       0x60 userapps.a(hm_system.o)
                0x03004bf8                product_info_clear_pincode
 .text.product_info_get_service_hostname
                0x03004c58       0x10 userapps.a(hm_system.o)
                0x03004c58                product_info_get_service_hostname
 .text.product_info_set_service_hostname
                0x03004c68      0x104 userapps.a(hm_system.o)
                0x03004c68                product_info_set_service_hostname
 .text.product_info_get_mcu_version
                0x03004d6c       0x10 userapps.a(hm_system.o)
                0x03004d6c                product_info_get_mcu_version
 .text.product_info_set_mcu_version
                0x03004d7c      0x104 userapps.a(hm_system.o)
                0x03004d7c                product_info_set_mcu_version
 .text.product_info_get_config_ssid
                0x03004e80       0x10 userapps.a(hm_system.o)
                0x03004e80                product_info_get_config_ssid
 .text.product_info_set_config_ssid
                0x03004e90      0x104 userapps.a(hm_system.o)
                0x03004e90                product_info_set_config_ssid
 .text.product_info_get_config_password
                0x03004f94       0x10 userapps.a(hm_system.o)
                0x03004f94                product_info_get_config_password
 .text.product_info_set_config_password
                0x03004fa4      0x104 userapps.a(hm_system.o)
                0x03004fa4                product_info_set_config_password
 .text.product_info_get_service_port
                0x030050a8       0x10 userapps.a(hm_system.o)
                0x030050a8                product_info_get_service_port
 .text.product_info_set_service_port
                0x030050b8       0x5c userapps.a(hm_system.o)
                0x030050b8                product_info_set_service_port
 .text.product_info_get_work_mode
                0x03005114       0x10 userapps.a(hm_system.o)
                0x03005114                product_info_get_work_mode
 .text.product_info_set_work_mode
                0x03005124       0x14 userapps.a(hm_system.o)
                0x03005124                product_info_set_work_mode
 .text.product_info_get_token_type
                0x03005138       0x10 userapps.a(hm_system.o)
                0x03005138                product_info_get_token_type
 .text.product_info_set_token_type
                0x03005148       0x14 userapps.a(hm_system.o)
                0x03005148                product_info_set_token_type
 .text.product_info_get_encrypt_type
                0x0300515c       0x10 userapps.a(hm_system.o)
                0x0300515c                product_info_get_encrypt_type
 .text.product_info_set_encrypt_type
                0x0300516c       0x70 userapps.a(hm_system.o)
                0x0300516c                product_info_set_encrypt_type
 .text.station_get_current_ssid
                0x030051dc       0xb0 userapps.a(hm_system.o)
                0x030051dc                station_get_current_ssid
 .text.wifi_station_config_is_exist
                0x0300528c        0x8 userapps.a(hm_system.o)
                0x0300528c                wifi_station_config_is_exist
 .text.product_info_get_prodkey
                0x03005294       0x10 userapps.a(hm_system.o)
                0x03005294                product_info_get_prodkey
 .text.product_info_get_devtid
                0x030052a4       0x10 userapps.a(hm_system.o)
                0x030052a4                product_info_get_devtid
 .text.product_info_get_devprikey
                0x030052b4       0x10 userapps.a(hm_system.o)
                0x030052b4                product_info_get_devprikey
 .text.product_info_get_token
                0x030052c4       0x10 userapps.a(hm_system.o)
                0x030052c4                product_info_get_token
 .text.product_info_set_token
                0x030052d4      0x100 userapps.a(hm_system.o)
                0x030052d4                product_info_set_token
 .text.product_info_clear_token
                0x030053d4       0x58 userapps.a(hm_system.o)
                0x030053d4                product_info_clear_token
 .text.product_info_set_prodkey
                0x0300542c      0x114 userapps.a(hm_system.o)
                0x0300542c                product_info_set_prodkey
 .text.product_info_set_devtid
                0x03005540      0x114 userapps.a(hm_system.o)
                0x03005540                product_info_set_devtid
 .text.product_info_set_devprikey
                0x03005654      0x114 userapps.a(hm_system.o)
                0x03005654                product_info_set_devprikey
 .text.product_info_get_authkey
                0x03005768       0x10 userapps.a(hm_system.o)
                0x03005768                product_info_get_authkey
 .text.product_info_set_authkey
                0x03005778       0xbc userapps.a(hm_system.o)
                0x03005778                product_info_set_authkey
 .text.product_info_clear_authkey
                0x03005834       0x58 userapps.a(hm_system.o)
                0x03005834                product_info_clear_authkey
 .text.product_info_get_ctrlkey
                0x0300588c       0x10 userapps.a(hm_system.o)
                0x0300588c                product_info_get_ctrlkey
 .text.product_info_set_ctrlkey
                0x0300589c      0x100 userapps.a(hm_system.o)
                0x0300589c                product_info_set_ctrlkey
 .text.product_info_get_bindkey
                0x0300599c       0x10 userapps.a(hm_system.o)
                0x0300599c                product_info_get_bindkey
 .text.product_info_set_bindkey
                0x030059ac      0x100 userapps.a(hm_system.o)
                0x030059ac                product_info_set_bindkey
 .text.product_info_get_config_type
                0x03005aac       0x10 userapps.a(hm_system.o)
                0x03005aac                product_info_get_config_type
 .text.product_info_set_config_type
                0x03005abc       0xac userapps.a(hm_system.o)
                0x03005abc                product_info_set_config_type
 .text.product_info_get_airkiss_wechatID
                0x03005b68       0x10 userapps.a(hm_system.o)
                0x03005b68                product_info_get_airkiss_wechatID
 .text.product_info_get_airkiss_wechatProductId
                0x03005b78       0x10 userapps.a(hm_system.o)
                0x03005b78                product_info_get_airkiss_wechatProductId
 .text.product_info_get_factory_test
                0x03005b88       0x10 userapps.a(hm_system.o)
                0x03005b88                product_info_get_factory_test
 .text.product_info_set_factory_test
                0x03005b98       0x98 userapps.a(hm_system.o)
                0x03005b98                product_info_set_factory_test
 .text.hm_product_info_load
                0x03005c30      0x1cc userapps.a(hm_system.o)
                0x03005c30                hm_product_info_load
 .text.hm_restory_factory_data
                0x03005dfc       0x7c userapps.a(hm_system.o)
                0x03005dfc                hm_restory_factory_data
 .text.hm_restory_app_data
                0x03005e78       0x20 userapps.a(hm_system.o)
                0x03005e78                hm_restory_app_data
 .text.hm_restory_all_data
                0x03005e98       0x18 userapps.a(hm_system.o)
                0x03005e98                hm_restory_all_data
 .text.device_detail_print
                0x03005eb0      0x108 userapps.a(hm_system.o)
                0x03005eb0                device_detail_print
 .text.hm_get_wifi_mode
                0x03005fb8       0x1c userapps.a(hm_system.o)
                0x03005fb8                hm_get_wifi_mode
 .text.hm_get_wifi_status
                0x03005fd4       0x1c userapps.a(hm_system.o)
                0x03005fd4                hm_get_wifi_status
 .text.hm_get_cloud_connect_status
                0x03005ff0       0x1c userapps.a(hm_system.o)
                0x03005ff0                hm_get_cloud_connect_status
 .text.hm_get_signal_qual
                0x0300600c        0x8 userapps.a(hm_system.o)
                0x0300600c                hm_get_signal_qual
 .text.hm_get_device_test_status
                0x03006014        0x8 userapps.a(hm_system.o)
                0x03006014                hm_get_device_test_status
 .text.hm_sys_run_info_init
                0x0300601c       0x68 userapps.a(hm_system.o)
                0x0300601c                hm_sys_run_info_init
 .text          0x03006084        0x0 userapps.a(RCLutils.o)
 .text.lib_ctohex.isra.0
                0x03006084       0x48 userapps.a(RCLutils.o)
 .text.lib_strnlen
                0x030060cc       0x24 userapps.a(RCLutils.o)
                0x030060cc                lib_strnlen
 .text.bitmap_set
                0x030060f0       0x28 userapps.a(RCLutils.o)
                0x030060f0                bitmap_set
 .text.bitmap_forech
                0x03006118       0x70 userapps.a(RCLutils.o)
                0x03006118                bitmap_forech
 .text.is_space
                0x03006188       0x28 userapps.a(RCLutils.o)
                0x03006188                is_space
 .text.is_number
                0x030061b0       0x14 userapps.a(RCLutils.o)
                0x030061b0                is_number
 .text.str_is_number
                0x030061c4       0x38 userapps.a(RCLutils.o)
                0x030061c4                str_is_number
 .text.is_symbol
                0x030061fc       0x44 userapps.a(RCLutils.o)
                0x030061fc                is_symbol
 .text.lib_atoi
                0x03006240       0x78 userapps.a(RCLutils.o)
                0x03006240                lib_atoi
 .text.lib_strtohex
                0x030062b8       0x68 userapps.a(RCLutils.o)
                0x030062b8                lib_strtohex
 .text.lib_hextostr
                0x03006320       0x58 userapps.a(RCLutils.o)
                0x03006320                lib_hextostr
 .text.lib_strtostr
                0x03006378       0x48 userapps.a(RCLutils.o)
                0x03006378                lib_strtostr
 .text.get_http_head_value
                0x030063c0      0x17c userapps.a(RCLutils.o)
                0x030063c0                get_http_head_value
 .text.str_clone
                0x0300653c       0x38 userapps.a(RCLutils.o)
                0x0300653c                str_clone
 .text.kalman_filter
                0x03006574       0xa8 userapps.a(RCLutils.o)
                0x03006574                kalman_filter
 .text.get_ip_from_str
                0x0300661c      0x110 userapps.a(RCLutils.o)
                0x0300661c                get_ip_from_str
 .text.get_str_from_str
                0x0300672c      0x114 userapps.a(RCLutils.o)
                0x0300672c                get_str_from_str
 .text.dynamic_param_destory
                0x03006840       0x44 userapps.a(RCLutils.o)
                0x03006840                dynamic_param_destory
 .text.dynamic_param_type_convert
                0x03006884        0xc userapps.a(RCLutils.o)
                0x03006884                dynamic_param_type_convert
 .text.dynamic_param_new
                0x03006890      0x108 userapps.a(RCLutils.o)
                0x03006890                dynamic_param_new
 .text.dynstring_append_len
                0x03006998       0x70 userapps.a(RCLutils.o)
                0x03006998                dynstring_append_len
 .text.dynstring_append
                0x03006a08       0x7c userapps.a(RCLutils.o)
                0x03006a08                dynstring_append
 .text.dynstring_init
                0x03006a84       0x1c userapps.a(RCLutils.o)
                0x03006a84                dynstring_init
 .text.lib_memchr
                0x03006aa0       0x38 userapps.a(RCLutils.o)
                0x03006aa0                lib_memchr
 .text          0x03006ad8        0x0 userapps.a(hm_app_main.o)
 .text.process_thread_hm_app_main_process
                0x03006ad8      0x2f0 userapps.a(hm_app_main.o)
 .text.HM_app_main
                0x03006dc8       0x38 userapps.a(hm_app_main.o)
                0x03006dc8                HM_app_main
 .text          0x03006e00        0x0 userapps.a(hm_uart.o)
 .text.hm_uart_timeout_callback
                0x03006e00      0x154 userapps.a(hm_uart.o)
                0x03006e00                hm_uart_timeout_callback
 .text.hm_uart_send_frame_to_device
                0x03006f54       0x64 userapps.a(hm_uart.o)
                0x03006f54                hm_uart_send_frame_to_device
 .text.hm_uart_timer_init
                0x03006fb8       0x60 userapps.a(hm_uart.o)
                0x03006fb8                hm_uart_timer_init
 .text.hm_uart_init
                0x03007018       0xcc userapps.a(hm_uart.o)
                0x03007018                hm_uart_init
 .text.hm_uart_timer_start
                0x030070e4       0x10 userapps.a(hm_uart.o)
                0x030070e4                hm_uart_timer_start
 .text.hm_uart_timer_stop
                0x030070f4       0x10 userapps.a(hm_uart.o)
                0x030070f4                hm_uart_timer_stop
 .text.hm_uartRecv_callback
                0x03007104       0x88 userapps.a(hm_uart.o)
                0x03007104                hm_uartRecv_callback
 .text.hm_48_frame_sum_Calculate
                0x0300718c       0x30 userapps.a(hm_uart.o)
                0x0300718c                hm_48_frame_sum_Calculate
 .text          0x030071bc        0x0 userapps.a(hm_uart_handle.)
 .text.shm_atcmd_star
                0x030071bc       0x20 userapps.a(hm_uart_handle.)
                0x030071bc                shm_atcmd_star
 .text.shm_48_send_frame
                0x030071dc       0x58 userapps.a(hm_uart_handle.)
 .text.shm_atcmd_set_prodkey
                0x03007234       0x7c userapps.a(hm_uart_handle.)
                0x03007234                shm_atcmd_set_prodkey
 .text.shm_atcmd_set_devtid
                0x030072b0       0x7c userapps.a(hm_uart_handle.)
                0x030072b0                shm_atcmd_set_devtid
 .text.shm_atcmd_set_devprikey
                0x0300732c       0x90 userapps.a(hm_uart_handle.)
                0x0300732c                shm_atcmd_set_devprikey
 .text.shm_atcmd_wifi_test
                0x030073bc       0xfc userapps.a(hm_uart_handle.)
                0x030073bc                shm_atcmd_wifi_test
 .text.shm_atcmd_clear_all_data
                0x030074b8       0x7c userapps.a(hm_uart_handle.)
                0x030074b8                shm_atcmd_clear_all_data
 .text.hm_send_start_at_factor_test
                0x03007534       0x30 userapps.a(hm_uart_handle.)
                0x03007534                hm_send_start_at_factor_test
 .text.hm_48_repond_data_error_frame
                0x03007564       0x40 userapps.a(hm_uart_handle.)
                0x03007564                hm_48_repond_data_error_frame
 .text.process_thread_hm_uart_handle_process
                0x030075a4      0x4b4 userapps.a(hm_uart_handle.)
 .text.hm_48_add_subdev_frame_send
                0x03007a58       0x74 userapps.a(hm_uart_handle.)
                0x03007a58                hm_48_add_subdev_frame_send
 .text.hm_48_delete_subdev_frame_send
                0x03007acc       0x74 userapps.a(hm_uart_handle.)
                0x03007acc                hm_48_delete_subdev_frame_send
 .text.hm_48_app_to_subdev_frame_send
                0x03007b40       0x98 userapps.a(hm_uart_handle.)
                0x03007b40                hm_48_app_to_subdev_frame_send
 .text          0x03007bd8        0x0 userapps.a(hm_connect_clou)
 .text.hm_tcp_send_callback
                0x03007bd8       0x1c userapps.a(hm_connect_clou)
 .text.hm_tcp_connect_callback
                0x03007bf4       0x70 userapps.a(hm_connect_clou)
 .text.hm_tcp_recv_callback
                0x03007c64       0xb4 userapps.a(hm_connect_clou)
 .text.hm_tcp_close_callback
                0x03007d18       0x74 userapps.a(hm_connect_clou)
 .text.hm_set_socket
                0x03007d8c       0x10 userapps.a(hm_connect_clou)
                0x03007d8c                hm_set_socket
 .text.hm_get_socket
                0x03007d9c       0x10 userapps.a(hm_connect_clou)
                0x03007d9c                hm_get_socket
 .text.hm_tcp_send_data
                0x03007dac       0xf0 userapps.a(hm_connect_clou)
                0x03007dac                hm_tcp_send_data
 .text.cloud_creat_msgid
                0x03007e9c       0x18 userapps.a(hm_connect_clou)
                0x03007e9c                cloud_creat_msgid
 .text.gatewaylogin_report
                0x03007eb4      0x14c userapps.a(hm_connect_clou)
                0x03007eb4                gatewaylogin_report
 .text.reportdevinfo_report
                0x03008000      0x2ec userapps.a(hm_connect_clou)
                0x03008000                reportdevinfo_report
 .text.heartbeat_report
                0x030082ec       0xc4 userapps.a(hm_connect_clou)
                0x030082ec                heartbeat_report
 .text.hm_clear_heartbeat_miss_times
                0x030083b0       0x14 userapps.a(hm_connect_clou)
                0x030083b0                hm_clear_heartbeat_miss_times
 .text.hm_add_heartbeat_miss_times
                0x030083c4       0x18 userapps.a(hm_connect_clou)
                0x030083c4                hm_add_heartbeat_miss_times
 .text.hm_cloud_connect_heartbeat_callback
                0x030083dc       0x6c userapps.a(hm_connect_clou)
                0x030083dc                hm_cloud_connect_heartbeat_callback
 .text.hm_get_heartbeat_miss_times
                0x03008448       0x10 userapps.a(hm_connect_clou)
                0x03008448                hm_get_heartbeat_miss_times
 .text.hm_cloud_heartbeat_timer_init
                0x03008458       0x68 userapps.a(hm_connect_clou)
                0x03008458                hm_cloud_heartbeat_timer_init
 .text.hm_cloud_heartbeat_timer_start
                0x030084c0       0x10 userapps.a(hm_connect_clou)
                0x030084c0                hm_cloud_heartbeat_timer_start
 .text.hm_cloud_heartbeat_timer_stop
                0x030084d0       0x10 userapps.a(hm_connect_clou)
                0x030084d0                hm_cloud_heartbeat_timer_stop
 .text.process_thread_hm_connect_cloud_process
                0x030084e0      0x908 userapps.a(hm_connect_clou)
 .text.hm_start_connect_cloud
                0x03008de8       0x7c userapps.a(hm_connect_clou)
                0x03008de8                hm_start_connect_cloud
 .text          0x03008e64        0x0 userapps.a(hm_sub_devsend_)
 .text.hm_sub_devsend_report
                0x03008e64      0x2c4 userapps.a(hm_sub_devsend_)
                0x03008e64                hm_sub_devsend_report
 .text.hm_add_sub_dev_report
                0x03009128      0x27c userapps.a(hm_sub_devsend_)
                0x03009128                hm_add_sub_dev_report
 .text.hm_sub_dev_status_report
                0x030093a4      0x27c userapps.a(hm_sub_devsend_)
                0x030093a4                hm_sub_dev_status_report
 .text          0x03009620        0x0 userapps.a(hm_bind_json_pr)
 .text.bind_dev_sync
                0x03009620       0xc4 userapps.a(hm_bind_json_pr)
 .text.bind_gateway_login_resp
                0x030096e4       0xf8 userapps.a(hm_bind_json_pr)
 .text.bind_request_verify_resp
                0x030097dc      0x140 userapps.a(hm_bind_json_pr)
 .text.bind_get_prodinfo_resp
                0x0300991c      0x208 userapps.a(hm_bind_json_pr)
 .text.bind_report_subdevinfo_resp
                0x03009b24       0x80 userapps.a(hm_bind_json_pr)
 .text.bind_add_subdev_resp
                0x03009ba4       0x80 userapps.a(hm_bind_json_pr)
 .text.bind_heartbeat_resp
                0x03009c24       0x4c userapps.a(hm_bind_json_pr)
 .text.bind_dev_send_resp
                0x03009c70       0x3c userapps.a(hm_bind_json_pr)
 .text.bind_gateway_bind_resp
                0x03009cac       0xc8 userapps.a(hm_bind_json_pr)
 .text.bind_report_devinfo_resp
                0x03009d74       0xb0 userapps.a(hm_bind_json_pr)
 .text.get_code_desc
                0x03009e24       0x84 userapps.a(hm_bind_json_pr)
                0x03009e24                get_code_desc
 .text.action_resp_handle
                0x03009ea8      0x1a0 userapps.a(hm_bind_json_pr)
                0x03009ea8                action_resp_handle
 .text.bind_app_dev_debug
                0x0300a048      0x10c userapps.a(hm_bind_json_pr)
 .text.bind_dev_delete
                0x0300a154      0x1d0 userapps.a(hm_bind_json_pr)
 .text.bind_appsend
                0x0300a324      0x348 userapps.a(hm_bind_json_pr)
 .text.bind_json_protocol_handle
                0x0300a66c       0xe8 userapps.a(hm_bind_json_pr)
                0x0300a66c                bind_json_protocol_handle
 .text.hm_cloud_json_handle
                0x0300a754        0x4 userapps.a(hm_bind_json_pr)
                0x0300a754                hm_cloud_json_handle
 .text          0x0300a758        0x0 userapps.a(hm_dev_model.o)
 .text.hm_dev_mode_init
                0x0300a758       0x54 userapps.a(hm_dev_model.o)
                0x0300a758                hm_dev_mode_init
 .text.hm_get_dev_type
                0x0300a7ac       0x10 userapps.a(hm_dev_model.o)
                0x0300a7ac                hm_get_dev_type
 .text.hm_check_cmd_id
                0x0300a7bc       0x44 userapps.a(hm_dev_model.o)
                0x0300a7bc                hm_check_cmd_id
 .text.hm_get_attr_name
                0x0300a800       0x4c userapps.a(hm_dev_model.o)
                0x0300a800                hm_get_attr_name
 .text.hm_get_attr_datatype
                0x0300a84c       0x4c userapps.a(hm_dev_model.o)
                0x0300a84c                hm_get_attr_datatype
 .text          0x0300a898        0x0 userapps.a(hm_parameter.o)
 .text.key_search
                0x0300a898       0x7c userapps.a(hm_parameter.o)
 .text.key_value_destory
                0x0300a914       0x60 userapps.a(hm_parameter.o)
 .text.setup_key_value
                0x0300a974       0xec userapps.a(hm_parameter.o)
 .text.is_forbidden
                0x0300aa60       0x9c userapps.a(hm_parameter.o)
 .text.hm_flash_erase_sector
                0x0300aafc       0x18 userapps.a(hm_parameter.o)
                0x0300aafc                hm_flash_erase_sector
 .text.hm_flash_read
                0x0300ab14       0x10 userapps.a(hm_parameter.o)
                0x0300ab14                hm_flash_read
 .text.get_key_value
                0x0300ab24      0x1d4 userapps.a(hm_parameter.o)
 .text.hm_flash_write
                0x0300acf8       0x10 userapps.a(hm_parameter.o)
                0x0300acf8                hm_flash_write
 .text.hm_flash_write_with_protect.constprop.4
                0x0300ad08       0x9c userapps.a(hm_parameter.o)
 .text.delete_parameter.constprop.3
                0x0300ada4      0x1b0 userapps.a(hm_parameter.o)
 .text.spi_flash_synchronous_with_protect
                0x0300af54      0x21c userapps.a(hm_parameter.o)
                0x0300af54                spi_flash_synchronous_with_protect
 .text.set_parameter
                0x0300b170      0x410 userapps.a(hm_parameter.o)
                0x0300b170                set_parameter
 .text.ra_set_parameter_integer
                0x0300b580       0x3c userapps.a(hm_parameter.o)
                0x0300b580                ra_set_parameter_integer
 .text.ra_set_parameter_integer_without_limit
                0x0300b5bc       0x24 userapps.a(hm_parameter.o)
                0x0300b5bc                ra_set_parameter_integer_without_limit
 .text.ra_get_parameter_integer
                0x0300b5e0       0x40 userapps.a(hm_parameter.o)
                0x0300b5e0                ra_get_parameter_integer
 .text.ra_set_parameter_string
                0x0300b620       0x38 userapps.a(hm_parameter.o)
                0x0300b620                ra_set_parameter_string
 .text.ra_set_feedback_parameter_string
                0x0300b658        0xc userapps.a(hm_parameter.o)
                0x0300b658                ra_set_feedback_parameter_string
 .text.ra_set_parameter_string_without_limit
                0x0300b664        0xc userapps.a(hm_parameter.o)
                0x0300b664                ra_set_parameter_string_without_limit
 .text.ra_get_parameter_string
                0x0300b670       0x6c userapps.a(hm_parameter.o)
                0x0300b670                ra_get_parameter_string
 .text.ra_get_feedback_parameter_string
                0x0300b6dc       0x6c userapps.a(hm_parameter.o)
                0x0300b6dc                ra_get_feedback_parameter_string
 .text.ra_delete_parameter
                0x0300b748       0x24 userapps.a(hm_parameter.o)
                0x0300b748                ra_delete_parameter
 .text.ra_delete_parameter_without_limit
                0x0300b76c        0x4 userapps.a(hm_parameter.o)
                0x0300b76c                ra_delete_parameter_without_limit
 .text          0x0300b770        0x0 userapps.a(hm_link.o)
 .text.find_sock_index
                0x0300b770       0x48 userapps.a(hm_link.o)
 .text.process_thread_hm_AP_mode_process
                0x0300b7b8      0x138 userapps.a(hm_link.o)
 .text.shm_ap_tcp_recv_callback
                0x0300b8f0      0x1d8 userapps.a(hm_link.o)
 .text.shm_ap_tcp_close_callback
                0x0300bac8       0x84 userapps.a(hm_link.o)
 .text.shm_ap_tcp_send_callback
                0x0300bb4c       0x80 userapps.a(hm_link.o)
 .text.shm_ap_accept_callback
                0x0300bbcc       0x84 userapps.a(hm_link.o)
 .text.hm_connect_wifi
                0x0300bc50      0x148 userapps.a(hm_link.o)
                0x0300bc50                hm_connect_wifi
 .text.process_thread_hm_start_link_process
                0x0300bd98      0x364 userapps.a(hm_link.o)
 .text.hm_set_ap_mode
                0x0300c0fc       0xe8 userapps.a(hm_link.o)
                0x0300c0fc                hm_set_ap_mode
 .text.check_link_state
                0x0300c1e4       0x84 userapps.a(hm_link.o)
                0x0300c1e4                check_link_state
 .text.ghm_start_link
                0x0300c268       0x2c userapps.a(hm_link.o)
                0x0300c268                ghm_start_link
 .text          0x0300c294        0x0 userapps.a(hm_wifi_frame.o)
 .text.hm_tcp_frame_send
                0x0300c294       0x64 userapps.a(hm_wifi_frame.o)
                0x0300c294                hm_tcp_frame_send
 .text.hm_free_one_tcp_frame
                0x0300c2f8       0x84 userapps.a(hm_wifi_frame.o)
                0x0300c2f8                hm_free_one_tcp_frame
 .text.hm_free_all_tcp_frame
                0x0300c37c       0x64 userapps.a(hm_wifi_frame.o)
                0x0300c37c                hm_free_all_tcp_frame
 .text          0x0300c3e0        0x0 userapps.a(hm_MD5_sum.o)
 .text.raw2hexlit
                0x0300c3e0       0x50 userapps.a(hm_MD5_sum.o)
                0x0300c3e0                raw2hexlit
 .text.hm_make_authkey
                0x0300c430       0xe8 userapps.a(hm_MD5_sum.o)
                0x0300c430                hm_make_authkey
 .text          0x0300c518        0x0 userapps.a(md5sum.o)
 .text.MD5Init  0x0300c518       0x40 userapps.a(md5sum.o)
                0x0300c518                MD5Init
 .text.MD5Encode
                0x0300c558       0x48 userapps.a(md5sum.o)
                0x0300c558                MD5Encode
 .text.MD5Decode
                0x0300c5a0       0x44 userapps.a(md5sum.o)
                0x0300c5a0                MD5Decode
 .text.MD5Transform
                0x0300c5e4      0x9ec userapps.a(md5sum.o)
                0x0300c5e4                MD5Transform
 .text.MD5Update
                0x0300cfd0       0xb4 userapps.a(md5sum.o)
                0x0300cfd0                MD5Update
 .text.MD5Final
                0x0300d084       0x70 userapps.a(md5sum.o)
                0x0300d084                MD5Final
 .text          0x0300d0f4        0x0 libmc300.a(printf.o)
 .text.write_str
                0x0300d0f4       0x1c libmc300.a(printf.o)
 .text.printf_uart1
                0x0300d110       0x30 libmc300.a(printf.o)
                0x0300d110                printf_uart1
 .text.set_log_all_group_enable
                0x0300d140       0x24 libmc300.a(printf.o)
                0x0300d140                set_log_all_group_enable
 .text.set_log_all_group_disable
                0x0300d164       0x24 libmc300.a(printf.o)
                0x0300d164                set_log_all_group_disable
 .text.set_log_all_group
                0x0300d188       0x2c libmc300.a(printf.o)
                0x0300d188                set_log_all_group
 .text.set_log_all_level
                0x0300d1b4       0x8c libmc300.a(printf.o)
                0x0300d1b4                set_log_all_level
 .text.set_log_single_group_level
                0x0300d240       0x40 libmc300.a(printf.o)
                0x0300d240                set_log_single_group_level
 .text.dump_log_control_info
                0x0300d280       0x78 libmc300.a(printf.o)
                0x0300d280                dump_log_control_info
 .text          0x0300d2f8        0x0 libmc300.a(process.o)
 .text.process_alloc_event
                0x0300d2f8       0x18 libmc300.a(process.o)
                0x0300d2f8                process_alloc_event
 .text.check_process_in_que
                0x0300d310       0x74 libmc300.a(process.o)
                0x0300d310                check_process_in_que
 .text.process_debug
                0x0300d384      0x190 libmc300.a(process.o)
                0x0300d384                process_debug
 .text          0x0300d514        0x0 libmc300.a(contiki-main.o)
 .text.test_rtimer
                0x0300d514        0xc libmc300.a(contiki-main.o)
                0x0300d514                test_rtimer
 .text.send_frame_rtimer
                0x0300d520        0xc libmc300.a(contiki-main.o)
                0x0300d520                send_frame_rtimer
 .text.dump_boot_message
                0x0300d52c       0x40 libmc300.a(contiki-main.o)
                0x0300d52c                dump_boot_message
 .text.get_all_config
                0x0300d56c       0x38 libmc300.a(contiki-main.o)
                0x0300d56c                get_all_config
 .text.log_init
                0x0300d5a4       0x68 libmc300.a(contiki-main.o)
                0x0300d5a4                log_init
 .text          0x0300d60c        0x0 libmc300.a(drv_timer.o)
 .text.hwtmr_stop
                0x0300d60c       0x20 libmc300.a(drv_timer.o)
                0x0300d60c                hwtmr_stop
 .text.hwtmr_start
                0x0300d62c       0x34 libmc300.a(drv_timer.o)
                0x0300d62c                hwtmr_start
 .text.hwtmr_init
                0x0300d660       0x2c libmc300.a(drv_timer.o)
                0x0300d660                hwtmr_init
 .text          0x0300d68c        0x0 libmc300.a(drv_uart.o)
 .text.drv_uart_enable
                0x0300d68c       0x54 libmc300.a(drv_uart.o)
                0x0300d68c                drv_uart_enable
 .text.drv_uart_init
                0x0300d6e0       0xd0 libmc300.a(drv_uart.o)
                0x0300d6e0                drv_uart_init
 .text.drv_uart_tx_0
                0x0300d7b0        0xc libmc300.a(drv_uart.o)
                0x0300d7b0                drv_uart_tx_0
 .text.drv_uart_is_tx_busy_0
                0x0300d7bc       0x18 libmc300.a(drv_uart.o)
                0x0300d7bc                drv_uart_is_tx_busy_0
 .text.drv_uart_multiple_tx_0
                0x0300d7d4       0x34 libmc300.a(drv_uart.o)
                0x0300d7d4                drv_uart_multiple_tx_0
 .text.drv_uart_get_uart_fifo_length_0
                0x0300d808        0x8 libmc300.a(drv_uart.o)
                0x0300d808                drv_uart_get_uart_fifo_length_0
 .text.drv_uart_enable_tx_int_0
                0x0300d810       0x14 libmc300.a(drv_uart.o)
                0x0300d810                drv_uart_enable_tx_int_0
 .text.drv_uart_disable_tx_int_0
                0x0300d824       0x14 libmc300.a(drv_uart.o)
                0x0300d824                drv_uart_disable_tx_int_0
 .text.drv_uart_enable_rx_int_0
                0x0300d838       0x14 libmc300.a(drv_uart.o)
                0x0300d838                drv_uart_enable_rx_int_0
 .text.drv_uart_disable_rx_int_0
                0x0300d84c       0x14 libmc300.a(drv_uart.o)
                0x0300d84c                drv_uart_disable_rx_int_0
 .text.drv_datauart_init
                0x0300d860      0x170 libmc300.a(drv_uart.o)
                0x0300d860                drv_datauart_init
 .text.drv_datauart_Deinit
                0x0300d9d0       0x74 libmc300.a(drv_uart.o)
                0x0300d9d0                drv_datauart_Deinit
 .text.drv_datauart_conf
                0x0300da44       0x7c libmc300.a(drv_uart.o)
                0x0300da44                drv_datauart_conf
 .text          0x0300dac0        0x0 libmc300.a(hw_init.o)
 .text.hw_tbl_write
                0x0300dac0       0x60 libmc300.a(hw_init.o)
 .text.modulator_and_pll_reset
                0x0300db20       0xd4 libmc300.a(hw_init.o)
                0x0300db20                modulator_and_pll_reset
 .text.ssv6xxx_phy_disable
                0x0300dbf4       0x14 libmc300.a(hw_init.o)
                0x0300dbf4                ssv6xxx_phy_disable
 .text.ssv6xxx_mac_disable
                0x0300dc08       0x14 libmc300.a(hw_init.o)
                0x0300dc08                ssv6xxx_mac_disable
 .text.ssv6xxx_hw_rf_phy_mac_reset
                0x0300dc1c      0x228 libmc300.a(hw_init.o)
                0x0300dc1c                ssv6xxx_hw_rf_phy_mac_reset
 .text.ssv6xxx_hw_radio_init
                0x0300de44      0x1b8 libmc300.a(hw_init.o)
                0x0300de44                ssv6xxx_hw_radio_init
 .text          0x0300dffc        0x0 libmc300.a(swpwm.o)
 .text.initSwPWM
                0x0300dffc       0x28 libmc300.a(swpwm.o)
                0x0300dffc                initSwPWM
 .text.pwm_unregister
                0x0300e024       0xa0 libmc300.a(swpwm.o)
                0x0300e024                pwm_unregister
 .text.disableSwPWM
                0x0300e0c4       0x34 libmc300.a(swpwm.o)
                0x0300e0c4                disableSwPWM
 .text.pwm_register
                0x0300e0f8       0xe4 libmc300.a(swpwm.o)
                0x0300e0f8                pwm_register
 .text.enableSwPWM
                0x0300e1dc       0x6c libmc300.a(swpwm.o)
                0x0300e1dc                enableSwPWM
 .text          0x0300e248        0x0 libmc300.a(systemconf.o)
 .text.gconfig_gen_header_to_mem
                0x0300e248       0x3c libmc300.a(systemconf.o)
                0x0300e248                gconfig_gen_header_to_mem
 .text.gconfig_gen_config_to_mem
                0x0300e284       0x48 libmc300.a(systemconf.o)
                0x0300e284                gconfig_gen_config_to_mem
 .text.gconfig_gen_config_table
                0x0300e2cc      0x114 libmc300.a(systemconf.o)
                0x0300e2cc                gconfig_gen_config_table
 .text.gconfig_save_config
                0x0300e3e0       0x48 libmc300.a(systemconf.o)
                0x0300e3e0                gconfig_save_config
 .text.gconfig_set_softap_channel
                0x0300e428       0x28 libmc300.a(systemconf.o)
                0x0300e428                gconfig_set_softap_channel
 .text.gconfig_set_softap_ssid
                0x0300e450       0xac libmc300.a(systemconf.o)
                0x0300e450                gconfig_set_softap_ssid
 .text.gconfig_set_enable_smart
                0x0300e4fc       0x64 libmc300.a(systemconf.o)
                0x0300e4fc                gconfig_set_enable_smart
 .text.gconfig_set_auto_connect
                0x0300e560       0x40 libmc300.a(systemconf.o)
                0x0300e560                gconfig_set_auto_connect
 .text.gconfig_init_global_conf_by_define
                0x0300e5a0       0x14 libmc300.a(systemconf.o)
                0x0300e5a0                gconfig_init_global_conf_by_define
 .text.reset_global_conf
                0x0300e5b4       0x3c libmc300.a(systemconf.o)
                0x0300e5b4                reset_global_conf
 .text.remove_sysconfig
                0x0300e5f0       0x58 libmc300.a(systemconf.o)
                0x0300e5f0                remove_sysconfig
 .text.write_wifi_config
                0x0300e648       0xe4 libmc300.a(systemconf.o)
                0x0300e648                write_wifi_config
 .text.read_wifi_config
                0x0300e72c       0x9c libmc300.a(systemconf.o)
                0x0300e72c                read_wifi_config
 .text.init_global_conf
                0x0300e7c8       0xe8 libmc300.a(systemconf.o)
                0x0300e7c8                init_global_conf
 .text.clear_ap_lists
                0x0300e8b0       0x3c libmc300.a(systemconf.o)
                0x0300e8b0                clear_ap_lists
 .text          0x0300e8ec        0x0 libmc300.a(wdog_api.o)
 .text.process_thread_watchdog_process
                0x0300e8ec      0x134 libmc300.a(wdog_api.o)
 .text.irq_handler_wdog_timer
                0x0300ea20       0x94 libmc300.a(wdog_api.o)
 .text.api_wdog_reboot
                0x0300eab4        0x4 libmc300.a(wdog_api.o)
                0x0300eab4                api_wdog_reboot
 .text.api_wdog_period_5000ms
                0x0300eab8        0x4 libmc300.a(wdog_api.o)
                0x0300eab8                api_wdog_period_5000ms
 .text.api_wdog_period_10000ms
                0x0300eabc        0x4 libmc300.a(wdog_api.o)
                0x0300eabc                api_wdog_period_10000ms
 .text.api_wdog_period_cutommed
                0x0300eac0        0x4 libmc300.a(wdog_api.o)
                0x0300eac0                api_wdog_period_cutommed
 .text.api_wdog_stop
                0x0300eac4        0x4 libmc300.a(wdog_api.o)
                0x0300eac4                api_wdog_stop
 .text.clear_rx_fifo
                0x0300eac8       0xc8 libmc300.a(wdog_api.o)
                0x0300eac8                clear_rx_fifo
 .text.api_softwdog_enable
                0x0300eb90       0x10 libmc300.a(wdog_api.o)
                0x0300eb90                api_softwdog_enable
 .text          0x0300eba0        0x0 libmc300.a(bsp.o)
 .text.set_mrx_filter_sta
                0x0300eba0      0x294 libmc300.a(bsp.o)
                0x0300eba0                set_mrx_filter_sta
 .text.set_softap_trap_enable
                0x0300ee34       0x14 libmc300.a(bsp.o)
                0x0300ee34                set_softap_trap_enable
 .text.set_softap_trap_disable
                0x0300ee48       0x14 libmc300.a(bsp.o)
                0x0300ee48                set_softap_trap_disable
 .text.set_mrx_filter_softap_beacon_on
                0x0300ee5c       0x20 libmc300.a(bsp.o)
                0x0300ee5c                set_mrx_filter_softap_beacon_on
 .text.set_mrx_filter_softap_beacon_off
                0x0300ee7c       0x20 libmc300.a(bsp.o)
                0x0300ee7c                set_mrx_filter_softap_beacon_off
 .text.set_mrx_filter_softap
                0x0300ee9c      0x260 libmc300.a(bsp.o)
                0x0300ee9c                set_mrx_filter_softap
 .text.get_efuse_id
                0x0300f0fc       0x24 libmc300.a(bsp.o)
                0x0300f0fc                get_efuse_id
 .text.hf_get_chip_version
                0x0300f120       0x14 libmc300.a(bsp.o)
                0x0300f120                hf_get_chip_version
 .text.hf_get_module_type
                0x0300f134       0x14 libmc300.a(bsp.o)
                0x0300f134                hf_get_module_type
 .text.chk_chip_valid
                0x0300f148       0x6c libmc300.a(bsp.o)
                0x0300f148                chk_chip_valid
 .text.bsp_init
                0x0300f1b4       0x8c libmc300.a(bsp.o)
                0x0300f1b4                bsp_init
 .text.enable_dcdc_mode
                0x0300f240       0x20 libmc300.a(bsp.o)
                0x0300f240                enable_dcdc_mode
 .text.get_chip_id
                0x0300f260       0x10 libmc300.a(bsp.o)
                0x0300f260                get_chip_id
 .text          0x0300f270        0x0 libmc300.a(crypthw.o)
 .text.drv_id_mng_alloc
                0x0300f270       0x7c libmc300.a(crypthw.o)
                0x0300f270                drv_id_mng_alloc
 .text.PBUF_MAlloc_Raw
                0x0300f2ec       0x50 libmc300.a(crypthw.o)
                0x0300f2ec                PBUF_MAlloc_Raw
 .text.wpa_drv_init
                0x0300f33c       0x40 libmc300.a(crypthw.o)
                0x0300f33c                wpa_drv_init
 .text.soft_mac_init
                0x0300f37c       0x68 libmc300.a(crypthw.o)
                0x0300f37c                soft_mac_init
 .text          0x0300f3e4        0x0 libmc300.a(dbg-atcmd-api.o)
 .text.Index2Power
                0x0300f3e4       0x20 libmc300.a(dbg-atcmd-api.o)
                0x0300f3e4                Index2Power
 .text.LogTemperature
                0x0300f404       0x94 libmc300.a(dbg-atcmd-api.o)
                0x0300f404                LogTemperature
 .text.Channel2Index
                0x0300f498       0x1c libmc300.a(dbg-atcmd-api.o)
                0x0300f498                Channel2Index
 .text.Gain2Power
                0x0300f4b4      0x15c libmc300.a(dbg-atcmd-api.o)
                0x0300f4b4                Gain2Power
 .text.Power2BGain
                0x0300f610      0x1a0 libmc300.a(dbg-atcmd-api.o)
                0x0300f610                Power2BGain
 .text.Power2GGain
                0x0300f7b0      0x188 libmc300.a(dbg-atcmd-api.o)
                0x0300f7b0                Power2GGain
 .text.GetDefaultGain
                0x0300f938       0xb4 libmc300.a(dbg-atcmd-api.o)
                0x0300f938                GetDefaultGain
 .text.Freq2P   0x0300f9ec        0xc libmc300.a(dbg-atcmd-api.o)
                0x0300f9ec                Freq2P
 .text.Freq2N   0x0300f9f8        0xc libmc300.a(dbg-atcmd-api.o)
                0x0300f9f8                Freq2N
 .text.UpdateConf
                0x0300fa04      0x3b4 libmc300.a(dbg-atcmd-api.o)
                0x0300fa04                UpdateConf
 .text.drv_phy_wait_rdy2
                0x0300fdb8       0x30 libmc300.a(dbg-atcmd-api.o)
                0x0300fdb8                drv_phy_wait_rdy2
 .text.mac_transfer
                0x0300fde8       0x40 libmc300.a(dbg-atcmd-api.o)
                0x0300fde8                mac_transfer
 .text.serial_transfer
                0x0300fe28       0x58 libmc300.a(dbg-atcmd-api.o)
                0x0300fe28                serial_transfer
 .text._DBG_AT_SET_PEERMAC
                0x0300fe80       0x2c libmc300.a(dbg-atcmd-api.o)
                0x0300fe80                _DBG_AT_SET_PEERMAC
 .text._DBG_AT_SET_PEERMAC_SOFTAP
                0x0300feac       0x38 libmc300.a(dbg-atcmd-api.o)
                0x0300feac                _DBG_AT_SET_PEERMAC_SOFTAP
 .text._DBG_AT_RESET_PEERMAC_SOFTAP
                0x0300fee4       0x38 libmc300.a(dbg-atcmd-api.o)
                0x0300fee4                _DBG_AT_RESET_PEERMAC_SOFTAP
 .text._DBG_AT_SET_CHANNEL
                0x0300ff1c       0x50 libmc300.a(dbg-atcmd-api.o)
                0x0300ff1c                _DBG_AT_SET_CHANNEL
 .text._DBG_AT_SET_MAC
                0x0300ff6c        0x4 libmc300.a(dbg-atcmd-api.o)
                0x0300ff6c                _DBG_AT_SET_MAC
 .text._DBG_AT_SET_BSSID
                0x0300ff70        0x4 libmc300.a(dbg-atcmd-api.o)
                0x0300ff70                _DBG_AT_SET_BSSID
 .text._DBG_AT_SEND
                0x0300ff74       0x58 libmc300.a(dbg-atcmd-api.o)
                0x0300ff74                _DBG_AT_SEND
 .text.process_thread_start_tx_process
                0x0300ffcc      0x120 libmc300.a(dbg-atcmd-api.o)
 .text.RFStart  0x030100ec      0x2a8 libmc300.a(dbg-atcmd-api.o)
                0x030100ec                RFStart
 .text.process_thread_rf_start_process
                0x03010394       0xf0 libmc300.a(dbg-atcmd-api.o)
 .text.RFRate   0x03010484      0x2c0 libmc300.a(dbg-atcmd-api.o)
                0x03010484                RFRate
 .text.RFBGain  0x03010744       0x90 libmc300.a(dbg-atcmd-api.o)
                0x03010744                RFBGain
 .text.RFGNGain
                0x030107d4       0x90 libmc300.a(dbg-atcmd-api.o)
                0x030107d4                RFGNGain
 .text.RFIQPhase
                0x03010864       0x88 libmc300.a(dbg-atcmd-api.o)
                0x03010864                RFIQPhase
 .text.RFIQAmp  0x030108ec       0x88 libmc300.a(dbg-atcmd-api.o)
                0x030108ec                RFIQAmp
 .text.RFStop   0x03010974       0x3c libmc300.a(dbg-atcmd-api.o)
                0x03010974                RFStop
 .text.RFReset  0x030109b0      0x43c libmc300.a(dbg-atcmd-api.o)
                0x030109b0                RFReset
 .text.RFCount  0x03010dec       0x58 libmc300.a(dbg-atcmd-api.o)
                0x03010dec                RFCount
 .text.RFFreqOffset
                0x03010e44      0x104 libmc300.a(dbg-atcmd-api.o)
                0x03010e44                RFFreqOffset
 .text.RFTempcsHT
                0x03010f48       0xc8 libmc300.a(dbg-atcmd-api.o)
                0x03010f48                RFTempcsHT
 .text.RFTempcsRT
                0x03011010       0xc8 libmc300.a(dbg-atcmd-api.o)
                0x03011010                RFTempcsRT
 .text.RFTempcsLT
                0x030110d8       0xc8 libmc300.a(dbg-atcmd-api.o)
                0x030110d8                RFTempcsLT
 .text.ReadTemperature
                0x030111a0       0xd0 libmc300.a(dbg-atcmd-api.o)
                0x030111a0                ReadTemperature
 .text.process_thread_temperature_compensator_process
                0x03011270      0x30c libmc300.a(dbg-atcmd-api.o)
 .text.EnableTemperatureCompensator
                0x0301157c       0x1c libmc300.a(dbg-atcmd-api.o)
                0x0301157c                EnableTemperatureCompensator
 .text.DumpRFParam
                0x03011598       0xfc libmc300.a(dbg-atcmd-api.o)
                0x03011598                DumpRFParam
 .text.WriteParam2Flash
                0x03011694      0x370 libmc300.a(dbg-atcmd-api.o)
                0x03011694                WriteParam2Flash
 .text.RFSetLDO
                0x03011a04       0x88 libmc300.a(dbg-atcmd-api.o)
                0x03011a04                RFSetLDO
 .text.RFSetPA1
                0x03011a8c       0x68 libmc300.a(dbg-atcmd-api.o)
                0x03011a8c                RFSetPA1
 .text.RFSetPA2
                0x03011af4       0x68 libmc300.a(dbg-atcmd-api.o)
                0x03011af4                RFSetPA2
 .text.RFSetPA3
                0x03011b5c       0x68 libmc300.a(dbg-atcmd-api.o)
                0x03011b5c                RFSetPA3
 .text.RFSetXTAL
                0x03011bc4       0x60 libmc300.a(dbg-atcmd-api.o)
                0x03011bc4                RFSetXTAL
 .text.RFSetFlashXTAL
                0x03011c24       0x9c libmc300.a(dbg-atcmd-api.o)
                0x03011c24                RFSetFlashXTAL
 .text.SetTemperatureBoundary
                0x03011cc0       0x90 libmc300.a(dbg-atcmd-api.o)
                0x03011cc0                SetTemperatureBoundary
 .text.SingleCarrier
                0x03011d50       0x94 libmc300.a(dbg-atcmd-api.o)
                0x03011d50                SingleCarrier
 .text.SetRFCallback
                0x03011de4       0x1c libmc300.a(dbg-atcmd-api.o)
                0x03011de4                SetRFCallback
 .text.Radio_Command
                0x03011e00     0x14a8 libmc300.a(dbg-atcmd-api.o)
                0x03011e00                Radio_Command
 .text.Parse_Radio_Command
                0x030132a8       0x88 libmc300.a(dbg-atcmd-api.o)
                0x030132a8                Parse_Radio_Command
 .text          0x03013330        0x0 libmc300.a(drv_mac.o)
 .text.SET_STA_MAC
                0x03013330       0x74 libmc300.a(drv_mac.o)
                0x03013330                SET_STA_MAC
 .text.GET_STA_MAC
                0x030133a4       0x4c libmc300.a(drv_mac.o)
                0x030133a4                GET_STA_MAC
 .text.SET_BSSID
                0x030133f0       0x74 libmc300.a(drv_mac.o)
                0x030133f0                SET_BSSID
 .text.GET_BSSID
                0x03013464       0x4c libmc300.a(drv_mac.o)
                0x03013464                GET_BSSID
 .text.SET_PEER_MAC0
                0x030134b0       0x74 libmc300.a(drv_mac.o)
                0x030134b0                SET_PEER_MAC0
 .text.GET_PEER_MAC0
                0x03013524       0x4c libmc300.a(drv_mac.o)
                0x03013524                GET_PEER_MAC0
 .text.SET_PEER_MAC1
                0x03013570       0x74 libmc300.a(drv_mac.o)
                0x03013570                SET_PEER_MAC1
 .text.GET_PEER_MAC1
                0x030135e4       0x4c libmc300.a(drv_mac.o)
                0x030135e4                GET_PEER_MAC1
 .text.SET_MRX_MCAST_TB0
                0x03013630       0x74 libmc300.a(drv_mac.o)
                0x03013630                SET_MRX_MCAST_TB0
 .text.GET_MRX_MCAST_TB0
                0x030136a4       0x4c libmc300.a(drv_mac.o)
                0x030136a4                GET_MRX_MCAST_TB0
 .text.SET_MRX_MCAST_TB1
                0x030136f0       0x74 libmc300.a(drv_mac.o)
                0x030136f0                SET_MRX_MCAST_TB1
 .text.GET_MRX_MCAST_TB1
                0x03013764       0x4c libmc300.a(drv_mac.o)
                0x03013764                GET_MRX_MCAST_TB1
 .text.SET_MRX_MCAST_TB2
                0x030137b0       0x74 libmc300.a(drv_mac.o)
                0x030137b0                SET_MRX_MCAST_TB2
 .text.GET_MRX_MCAST_TB2
                0x03013824       0x4c libmc300.a(drv_mac.o)
                0x03013824                GET_MRX_MCAST_TB2
 .text.SET_MRX_MCAST_TB3
                0x03013870       0x74 libmc300.a(drv_mac.o)
                0x03013870                SET_MRX_MCAST_TB3
 .text.GET_MRX_MCAST_TB3
                0x030138e4       0x4c libmc300.a(drv_mac.o)
                0x030138e4                GET_MRX_MCAST_TB3
 .text.SET_MRX_MCAST_MASK0
                0x03013930       0x74 libmc300.a(drv_mac.o)
                0x03013930                SET_MRX_MCAST_MASK0
 .text.GET_MRX_MCAST_MASK0
                0x030139a4       0x4c libmc300.a(drv_mac.o)
                0x030139a4                GET_MRX_MCAST_MASK0
 .text.SET_MRX_MCAST_MASK1
                0x030139f0       0x74 libmc300.a(drv_mac.o)
                0x030139f0                SET_MRX_MCAST_MASK1
 .text.GET_MRX_MCAST_MASK1
                0x03013a64       0x4c libmc300.a(drv_mac.o)
                0x03013a64                GET_MRX_MCAST_MASK1
 .text.SET_MRX_MCAST_MASK2
                0x03013ab0       0x74 libmc300.a(drv_mac.o)
                0x03013ab0                SET_MRX_MCAST_MASK2
 .text.GET_MRX_MCAST_MASK2
                0x03013b24       0x4c libmc300.a(drv_mac.o)
                0x03013b24                GET_MRX_MCAST_MASK2
 .text.SET_MRX_MCAST_MASK3
                0x03013b70       0x74 libmc300.a(drv_mac.o)
                0x03013b70                SET_MRX_MCAST_MASK3
 .text.GET_MRX_MCAST_MASK3
                0x03013be4       0x4c libmc300.a(drv_mac.o)
                0x03013be4                GET_MRX_MCAST_MASK3
 .text.SET_BA_TA
                0x03013c30       0x74 libmc300.a(drv_mac.o)
                0x03013c30                SET_BA_TA
 .text.GET_BA_TA
                0x03013ca4       0x4c libmc300.a(drv_mac.o)
                0x03013ca4                GET_BA_TA
 .text.SET_ACK_GEN_RA
                0x03013cf0       0x74 libmc300.a(drv_mac.o)
                0x03013cf0                SET_ACK_GEN_RA
 .text.GET_ACK_GEN_RA
                0x03013d64       0x4c libmc300.a(drv_mac.o)
                0x03013d64                GET_ACK_GEN_RA
 .text          0x03013db0        0x0 libmc300.a(drv_phy.o)
 .text.rg_idacai_pgag0_load
                0x03013db0       0x1c libmc300.a(drv_phy.o)
                0x03013db0                rg_idacai_pgag0_load
 .text.rg_idacai_pgag1_load
                0x03013dcc       0x1c libmc300.a(drv_phy.o)
                0x03013dcc                rg_idacai_pgag1_load
 .text.rg_idacai_pgag2_load
                0x03013de8       0x1c libmc300.a(drv_phy.o)
                0x03013de8                rg_idacai_pgag2_load
 .text.rg_idacai_pgag3_load
                0x03013e04       0x1c libmc300.a(drv_phy.o)
                0x03013e04                rg_idacai_pgag3_load
 .text.rg_idacai_pgag4_load
                0x03013e20       0x1c libmc300.a(drv_phy.o)
                0x03013e20                rg_idacai_pgag4_load
 .text.rg_idacai_pgag5_load
                0x03013e3c       0x1c libmc300.a(drv_phy.o)
                0x03013e3c                rg_idacai_pgag5_load
 .text.rg_idacai_pgag6_load
                0x03013e58       0x1c libmc300.a(drv_phy.o)
                0x03013e58                rg_idacai_pgag6_load
 .text.rg_idacai_pgag7_load
                0x03013e74       0x1c libmc300.a(drv_phy.o)
                0x03013e74                rg_idacai_pgag7_load
 .text.rg_idacai_pgag8_load
                0x03013e90       0x1c libmc300.a(drv_phy.o)
                0x03013e90                rg_idacai_pgag8_load
 .text.rg_idacai_pgag9_load
                0x03013eac       0x1c libmc300.a(drv_phy.o)
                0x03013eac                rg_idacai_pgag9_load
 .text.rg_idacai_pgag10_load
                0x03013ec8       0x1c libmc300.a(drv_phy.o)
                0x03013ec8                rg_idacai_pgag10_load
 .text.rg_idacai_pgag11_load
                0x03013ee4       0x1c libmc300.a(drv_phy.o)
                0x03013ee4                rg_idacai_pgag11_load
 .text.rg_idacai_pgag12_load
                0x03013f00       0x1c libmc300.a(drv_phy.o)
                0x03013f00                rg_idacai_pgag12_load
 .text.rg_idacai_pgag13_load
                0x03013f1c       0x1c libmc300.a(drv_phy.o)
                0x03013f1c                rg_idacai_pgag13_load
 .text.rg_idacai_pgag14_load
                0x03013f38       0x1c libmc300.a(drv_phy.o)
                0x03013f38                rg_idacai_pgag14_load
 .text.rg_idacai_pgag15_load
                0x03013f54       0x1c libmc300.a(drv_phy.o)
                0x03013f54                rg_idacai_pgag15_load
 .text.rg_idacaq_pgag0_load
                0x03013f70       0x1c libmc300.a(drv_phy.o)
                0x03013f70                rg_idacaq_pgag0_load
 .text.rg_idacaq_pgag1_load
                0x03013f8c       0x1c libmc300.a(drv_phy.o)
                0x03013f8c                rg_idacaq_pgag1_load
 .text.rg_idacaq_pgag2_load
                0x03013fa8       0x1c libmc300.a(drv_phy.o)
                0x03013fa8                rg_idacaq_pgag2_load
 .text.rg_idacaq_pgag3_load
                0x03013fc4       0x1c libmc300.a(drv_phy.o)
                0x03013fc4                rg_idacaq_pgag3_load
 .text.rg_idacaq_pgag4_load
                0x03013fe0       0x1c libmc300.a(drv_phy.o)
                0x03013fe0                rg_idacaq_pgag4_load
 .text.rg_idacaq_pgag5_load
                0x03013ffc       0x1c libmc300.a(drv_phy.o)
                0x03013ffc                rg_idacaq_pgag5_load
 .text.rg_idacaq_pgag6_load
                0x03014018       0x1c libmc300.a(drv_phy.o)
                0x03014018                rg_idacaq_pgag6_load
 .text.rg_idacaq_pgag7_load
                0x03014034       0x1c libmc300.a(drv_phy.o)
                0x03014034                rg_idacaq_pgag7_load
 .text.rg_idacaq_pgag8_load
                0x03014050       0x1c libmc300.a(drv_phy.o)
                0x03014050                rg_idacaq_pgag8_load
 .text.rg_idacaq_pgag9_load
                0x0301406c       0x1c libmc300.a(drv_phy.o)
                0x0301406c                rg_idacaq_pgag9_load
 .text.rg_idacaq_pgag10_load
                0x03014088       0x1c libmc300.a(drv_phy.o)
                0x03014088                rg_idacaq_pgag10_load
 .text.rg_idacaq_pgag11_load
                0x030140a4       0x1c libmc300.a(drv_phy.o)
                0x030140a4                rg_idacaq_pgag11_load
 .text.rg_idacaq_pgag12_load
                0x030140c0       0x1c libmc300.a(drv_phy.o)
                0x030140c0                rg_idacaq_pgag12_load
 .text.rg_idacaq_pgag13_load
                0x030140dc       0x1c libmc300.a(drv_phy.o)
                0x030140dc                rg_idacaq_pgag13_load
 .text.rg_idacaq_pgag14_load
                0x030140f8       0x1c libmc300.a(drv_phy.o)
                0x030140f8                rg_idacaq_pgag14_load
 .text.rg_idacaq_pgag15_load
                0x03014114       0x1c libmc300.a(drv_phy.o)
                0x03014114                rg_idacaq_pgag15_load
 .text.rfreg_byxtal_load
                0x03014130       0x84 libmc300.a(drv_phy.o)
                0x03014130                rfreg_byxtal_load
 .text.rfreg_bych_load
                0x030141b4       0x7c libmc300.a(drv_phy.o)
                0x030141b4                rfreg_bych_load
 .text.rfreg_bypa_load
                0x03014230       0x44 libmc300.a(drv_phy.o)
                0x03014230                rfreg_bypa_load
 .text.drv_phy_tbl_load
                0x03014274       0x38 libmc300.a(drv_phy.o)
                0x03014274                drv_phy_tbl_load
 .text.drv_phy_cfgtbl_load
                0x030142ac       0x20 libmc300.a(drv_phy.o)
                0x030142ac                drv_phy_cfgtbl_load
 .text.drv_phy_wait_rdy
                0x030142cc       0x30 libmc300.a(drv_phy.o)
                0x030142cc                drv_phy_wait_rdy
 .text.drv_phy_cali_rcal
                0x030142fc       0x68 libmc300.a(drv_phy.o)
                0x030142fc                drv_phy_cali_rcal
 .text.drv_phy_cali_tssi
                0x03014364      0x1b8 libmc300.a(drv_phy.o)
                0x03014364                drv_phy_cali_tssi
 .text.drv_phy_temperature
                0x0301451c       0x90 libmc300.a(drv_phy.o)
                0x0301451c                drv_phy_temperature
 .text.drv_phy_cali_papd_learning
                0x030145ac      0x1ec libmc300.a(drv_phy.o)
                0x030145ac                drv_phy_cali_papd_learning
 .text.drv_phy_channel_change
                0x03014798       0x74 libmc300.a(drv_phy.o)
                0x03014798                drv_phy_channel_change
 .text.drv_phy_sprm
                0x0301480c       0x64 libmc300.a(drv_phy.o)
                0x0301480c                drv_phy_sprm
 .text.drv_phy_cali_txlo
                0x03014870      0x16c libmc300.a(drv_phy.o)
                0x03014870                drv_phy_cali_txlo
 .text.drv_phy_cali_txiq
                0x030149dc      0x160 libmc300.a(drv_phy.o)
                0x030149dc                drv_phy_cali_txiq
 .text.drv_phy_cali_rxrc
                0x03014b3c      0x23c libmc300.a(drv_phy.o)
                0x03014b3c                drv_phy_cali_rxrc
 .text.drv_phy_fft_enrg
                0x03014d78       0x54 libmc300.a(drv_phy.o)
                0x03014d78                drv_phy_fft_enrg
 .text.drv_phy_cali_rxiq_fft
                0x03014dcc      0x1a4 libmc300.a(drv_phy.o)
                0x03014dcc                drv_phy_cali_rxiq_fft
 .text.rtbl_cali_reg_rmw
                0x03014f70       0x28 libmc300.a(drv_phy.o)
                0x03014f70                rtbl_cali_reg_rmw
 .text.rtbl_cali_pre_load
                0x03014f98       0x68 libmc300.a(drv_phy.o)
                0x03014f98                rtbl_cali_pre_load
 .text.drv_phy_cali_rxdc
                0x03015000      0x224 libmc300.a(drv_phy.o)
                0x03015000                drv_phy_cali_rxdc
 .text.rtbl_cali_load
                0x03015224       0x24 libmc300.a(drv_phy.o)
                0x03015224                rtbl_cali_load
 .text.rtbl_cali_export
                0x03015248       0x18 libmc300.a(drv_phy.o)
                0x03015248                rtbl_cali_export
 .text.rtbl_cali_load_def
                0x03015260       0x68 libmc300.a(drv_phy.o)
                0x03015260                rtbl_cali_load_def
 .text.rtbl_cali_reset
                0x030152c8       0x38 libmc300.a(drv_phy.o)
                0x030152c8                rtbl_cali_reset
 .text.rtbl_cali_set
                0x03015300       0x84 libmc300.a(drv_phy.o)
                0x03015300                rtbl_cali_set
 .text.drv_phy_init
                0x03015384       0x90 libmc300.a(drv_phy.o)
                0x03015384                drv_phy_init
 .text.drv_phy_off
                0x03015414       0x14 libmc300.a(drv_phy.o)
                0x03015414                drv_phy_off
 .text.drv_phy_b_only
                0x03015428       0x10 libmc300.a(drv_phy.o)
                0x03015428                drv_phy_b_only
 .text.drv_phy_bgn
                0x03015438       0x14 libmc300.a(drv_phy.o)
                0x03015438                drv_phy_bgn
 .text.drv_phy_on
                0x0301544c       0x14 libmc300.a(drv_phy.o)
                0x0301544c                drv_phy_on
 .text.drv_phy_cali_ro_iqcal_o
                0x03015460        0xc libmc300.a(drv_phy.o)
                0x03015460                drv_phy_cali_ro_iqcal_o
 .text.drv_phy_cali_papd_div
                0x0301546c       0x84 libmc300.a(drv_phy.o)
                0x0301546c                drv_phy_cali_papd_div
 .text.drv_phy_cali_papd_gain_est
                0x030154f0      0x160 libmc300.a(drv_phy.o)
                0x030154f0                drv_phy_cali_papd_gain_est
 .text.drv_phy_cali_ph_wrap
                0x03015650       0x1c libmc300.a(drv_phy.o)
                0x03015650                drv_phy_cali_ph_wrap
 .text.drv_phy_cali_papd
                0x0301566c      0x5a4 libmc300.a(drv_phy.o)
                0x0301566c                drv_phy_cali_papd
 .text.drv_phy_reg_init
                0x03015c10       0xd0 libmc300.a(drv_phy.o)
                0x03015c10                drv_phy_reg_init
 .text.drv_phy_cali_rtbl_load
                0x03015ce0       0x5c libmc300.a(drv_phy.o)
                0x03015ce0                drv_phy_cali_rtbl_load
 .text.phy_cali_config_load
                0x03015d3c      0x124 libmc300.a(drv_phy.o)
                0x03015d3c                phy_cali_config_load
 .text.drv_phy_cali_rtbl_load_def
                0x03015e60       0x5c libmc300.a(drv_phy.o)
                0x03015e60                drv_phy_cali_rtbl_load_def
 .text.drv_phy_cali_rtbl_reset
                0x03015ebc       0x5c libmc300.a(drv_phy.o)
                0x03015ebc                drv_phy_cali_rtbl_reset
 .text.drv_phy_cali_rtbl_set
                0x03015f18       0x5c libmc300.a(drv_phy.o)
                0x03015f18                drv_phy_cali_rtbl_set
 .text.drv_phy_cali_rtbl_export
                0x03015f74        0x4 libmc300.a(drv_phy.o)
                0x03015f74                drv_phy_cali_rtbl_export
 .text.drv_phy_init_cali
                0x03015f78       0xd0 libmc300.a(drv_phy.o)
                0x03015f78                drv_phy_init_cali
 .text.drv_phy_evm_tk
                0x03016048       0x5c libmc300.a(drv_phy.o)
                0x03016048                drv_phy_evm_tk
 .text.drv_phy_tone_tk
                0x030160a4       0x38 libmc300.a(drv_phy.o)
                0x030160a4                drv_phy_tone_tk
 .text          0x030160dc        0x0 libmc300.a(drv_pktbuf_slow)
 .text.ssv6xxx_pbuf_dump_reg
                0x030160dc      0x6a4 libmc300.a(drv_pktbuf_slow)
                0x030160dc                ssv6xxx_pbuf_dump_reg
 .text          0x03016780        0x0 libmc300.a(ieee80211_mgmt.)
 .text.process_thread_scan_channel_process
                0x03016780       0xd8 libmc300.a(ieee80211_mgmt.)
 .text.mitigate_cci
                0x03016858      0x188 libmc300.a(ieee80211_mgmt.)
                0x03016858                mitigate_cci
 .text.enableNmode
                0x030169e0       0x14 libmc300.a(ieee80211_mgmt.)
                0x030169e0                enableNmode
 .text.disableNmode
                0x030169f4       0x14 libmc300.a(ieee80211_mgmt.)
                0x030169f4                disableNmode
 .text.wificbproc
                0x03016a08       0x44 libmc300.a(ieee80211_mgmt.)
                0x03016a08                wificbproc
 .text.addAvailableIndex
                0x03016a4c       0x3c libmc300.a(ieee80211_mgmt.)
                0x03016a4c                addAvailableIndex
 .text.reset_AvailableIndex
                0x03016a88       0x14 libmc300.a(ieee80211_mgmt.)
                0x03016a88                reset_AvailableIndex
 .text.is_action
                0x03016a9c       0x14 libmc300.a(ieee80211_mgmt.)
                0x03016a9c                is_action
 .text.find_wmm
                0x03016ab0       0xc8 libmc300.a(ieee80211_mgmt.)
                0x03016ab0                find_wmm
 .text.htinfo_detect
                0x03016b78       0x68 libmc300.a(ieee80211_mgmt.)
                0x03016b78                htinfo_detect
 .text.tx_probe_req
                0x03016be0      0x188 libmc300.a(ieee80211_mgmt.)
                0x03016be0                tx_probe_req
 .text.process_thread_activescan_process
                0x03016d68      0x1e0 libmc300.a(ieee80211_mgmt.)
 .text.tx_authentication_req_seq1
                0x03016f48      0x168 libmc300.a(ieee80211_mgmt.)
                0x03016f48                tx_authentication_req_seq1
 .text.tx_authentication_req_seq3
                0x030170b0      0x120 libmc300.a(ieee80211_mgmt.)
                0x030170b0                tx_authentication_req_seq3
 .text.tx_deauthentication_req
                0x030171d0       0xc4 libmc300.a(ieee80211_mgmt.)
                0x030171d0                tx_deauthentication_req
 .text.tx_association_req
                0x03017294      0x2b0 libmc300.a(ieee80211_mgmt.)
                0x03017294                tx_association_req
 .text.tx_deassociation_req
                0x03017544      0x108 libmc300.a(ieee80211_mgmt.)
                0x03017544                tx_deassociation_req
 .text.tx_action_BA_rsp
                0x0301764c       0xfc libmc300.a(ieee80211_mgmt.)
                0x0301764c                tx_action_BA_rsp
 .text.rx_probe_rsp
                0x03017748      0x3f4 libmc300.a(ieee80211_mgmt.)
                0x03017748                rx_probe_rsp
 .text.rx_probe_rsp_active
                0x03017b3c       0xac libmc300.a(ieee80211_mgmt.)
                0x03017b3c                rx_probe_rsp_active
 .text.rx_authentication_rsp
                0x03017be8      0x1c0 libmc300.a(ieee80211_mgmt.)
                0x03017be8                rx_authentication_rsp
 .text.rx_association_rsp
                0x03017da8       0xa0 libmc300.a(ieee80211_mgmt.)
                0x03017da8                rx_association_rsp
 .text.rx_action_rsp
                0x03017e48       0x30 libmc300.a(ieee80211_mgmt.)
                0x03017e48                rx_action_rsp
 .text.rx_disassoc_rsp
                0x03017e78       0x94 libmc300.a(ieee80211_mgmt.)
                0x03017e78                rx_disassoc_rsp
 .text.rx_deauth_rsp
                0x03017f0c       0x94 libmc300.a(ieee80211_mgmt.)
                0x03017f0c                rx_deauth_rsp
 .text.calculateSignalLevel
                0x03017fa0       0x44 libmc300.a(ieee80211_mgmt.)
                0x03017fa0                calculateSignalLevel
 .text.startrecordAP
                0x03017fe4       0x14 libmc300.a(ieee80211_mgmt.)
                0x03017fe4                startrecordAP
 .text.stoprecordAP
                0x03017ff8       0x14 libmc300.a(ieee80211_mgmt.)
                0x03017ff8                stoprecordAP
 .text.removeAP_fromlist
                0x0301800c       0xe0 libmc300.a(ieee80211_mgmt.)
                0x0301800c                removeAP_fromlist
 .text.smoothingValue
                0x030180ec       0x3c libmc300.a(ieee80211_mgmt.)
                0x030180ec                smoothingValue
 .text.bss_mgmt_reboot
                0x03018128       0x60 libmc300.a(ieee80211_mgmt.)
                0x03018128                bss_mgmt_reboot
 .text.bss_mgmt_refind_aplist_index
                0x03018188      0x1a0 libmc300.a(ieee80211_mgmt.)
                0x03018188                bss_mgmt_refind_aplist_index
 .text.process_thread_beacon_process
                0x03018328      0x338 libmc300.a(ieee80211_mgmt.)
 .text.bss_mgmt_scan
                0x03018660       0x40 libmc300.a(ieee80211_mgmt.)
                0x03018660                bss_mgmt_scan
 .text.bss_mgmt_scan_custom
                0x030186a0       0x34 libmc300.a(ieee80211_mgmt.)
                0x030186a0                bss_mgmt_scan_custom
 .text.bss_mgmt_connect_active
                0x030186d4      0x12c libmc300.a(ieee80211_mgmt.)
                0x030186d4                bss_mgmt_connect_active
 .text.bss_mgmt_connect
                0x03018800       0x78 libmc300.a(ieee80211_mgmt.)
                0x03018800                bss_mgmt_connect
 .text.bss_mgmt_reconnect
                0x03018878       0x70 libmc300.a(ieee80211_mgmt.)
                0x03018878                bss_mgmt_reconnect
 .text.bss_mgmt_disconnect
                0x030188e8       0x64 libmc300.a(ieee80211_mgmt.)
                0x030188e8                bss_mgmt_disconnect
 .text.bss_mgmt_init
                0x0301894c       0xdc libmc300.a(ieee80211_mgmt.)
                0x0301894c                bss_mgmt_init
 .text.startscanchannel
                0x03018a28       0x1c libmc300.a(ieee80211_mgmt.)
                0x03018a28                startscanchannel
 .text.stopscanchannel
                0x03018a44       0x14 libmc300.a(ieee80211_mgmt.)
                0x03018a44                stopscanchannel
 .text.recordAP
                0x03018a58       0x24 libmc300.a(ieee80211_mgmt.)
                0x03018a58                recordAP
 .text.removeAP
                0x03018a7c       0x50 libmc300.a(ieee80211_mgmt.)
                0x03018a7c                removeAP
 .text.process_thread_bss_reconnect_process
                0x03018acc      0x640 libmc300.a(ieee80211_mgmt.)
 .text.bss_nslookup
                0x0301910c       0x3c libmc300.a(ieee80211_mgmt.)
                0x0301910c                bss_nslookup
 .text          0x03019148        0x0 libmc300.a(irq.o)
 .text.reset_phy
                0x03019148       0x9c libmc300.a(irq.o)
                0x03019148                reset_phy
 .text.irq_request
                0x030191e4      0x1c0 libmc300.a(irq.o)
                0x030191e4                irq_request
 .text.irq_init
                0x030193a4       0xb0 libmc300.a(irq.o)
                0x030193a4                irq_init
 .text          0x03019454        0x0 libmc300.a(netstack.o)
 .text.netstack_init
                0x03019454       0x38 libmc300.a(netstack.o)
                0x03019454                netstack_init
 .text          0x0301948c        0x0 libmc300.a(wpa.o)
 .text.wpa_derive_ptk
                0x0301948c       0xf4 libmc300.a(wpa.o)
 .text.init_wpa_ctx
                0x03019580       0x58 libmc300.a(wpa.o)
                0x03019580                init_wpa_ctx
 .text.init_AP_wpa_ctx
                0x030195d8       0xe0 libmc300.a(wpa.o)
                0x030195d8                init_AP_wpa_ctx
 .text.get_oui_subtype
                0x030196b8       0x50 libmc300.a(wpa.o)
                0x030196b8                get_oui_subtype
 .text.find_group_oui
                0x03019708       0x20 libmc300.a(wpa.o)
                0x03019708                find_group_oui
 .text.find_pairwise_oui_for_autoScan
                0x03019728       0x80 libmc300.a(wpa.o)
                0x03019728                find_pairwise_oui_for_autoScan
 .text.find_pairwise_oui
                0x030197a8       0xf0 libmc300.a(wpa.o)
                0x030197a8                find_pairwise_oui
 .text.find_akm_oui
                0x03019898       0xec libmc300.a(wpa.o)
                0x03019898                find_akm_oui
 .text.sec80211_detect
                0x03019984      0x14c libmc300.a(wpa.o)
                0x03019984                sec80211_detect
 .text.sec80211_detect_for_autoScan
                0x03019ad0       0xe4 libmc300.a(wpa.o)
                0x03019ad0                sec80211_detect_for_autoScan
 .text.pack_wpa2
                0x03019bb4       0x40 libmc300.a(wpa.o)
                0x03019bb4                pack_wpa2
 .text.cal_mic  0x03019bf4       0x68 libmc300.a(wpa.o)
                0x03019bf4                cal_mic
 .text.check_mic
                0x03019c5c       0x74 libmc300.a(wpa.o)
                0x03019c5c                check_mic
 .text.decrypt_keydata
                0x03019cd0       0xb4 libmc300.a(wpa.o)
                0x03019cd0                decrypt_keydata
 .text.install_key
                0x03019d84       0x9c libmc300.a(wpa.o)
                0x03019d84                install_key
 .text.InitPacketbuffer
                0x03019e20       0x6c libmc300.a(wpa.o)
                0x03019e20                InitPacketbuffer
 .text.tx_wpa_2_of_4
                0x03019e8c      0x240 libmc300.a(wpa.o)
                0x03019e8c                tx_wpa_2_of_4
 .text.rx_wpa_1_of_4
                0x0301a0cc       0x84 libmc300.a(wpa.o)
                0x0301a0cc                rx_wpa_1_of_4
 .text.tx_wpa_4_of_4
                0x0301a150      0x234 libmc300.a(wpa.o)
                0x0301a150                tx_wpa_4_of_4
 .text.rx_wpa_3_of_4
                0x0301a384      0x1cc libmc300.a(wpa.o)
                0x0301a384                rx_wpa_3_of_4
 .text.rx_wpa_1_of_2
                0x0301a550      0x1d0 libmc300.a(wpa.o)
                0x0301a550                rx_wpa_1_of_2
 .text.tx_wpa_1_of_4
                0x0301a720       0xdc libmc300.a(wpa.o)
                0x0301a720                tx_wpa_1_of_4
 .text.rx_wpa_2_of_4
                0x0301a7fc      0x208 libmc300.a(wpa.o)
                0x0301a7fc                rx_wpa_2_of_4
 .text.tx_wpa_3_of_4
                0x0301aa04      0x1d8 libmc300.a(wpa.o)
                0x0301aa04                tx_wpa_3_of_4
 .text          0x0301abdc        0x0 libmc300.a(hfat.o)
 .text.hf_atcmd_uartadjs
                0x0301abdc        0x8 libmc300.a(hfat.o)
 .text.hf_atcmd_wtest
                0x0301abe4        0x8 libmc300.a(hfat.o)
                0x0301abe4                hf_atcmd_wtest
 .text.hf_atcmd_entm
                0x0301abec       0x14 libmc300.a(hfat.o)
 .text.hf_at_cmd_version
                0x0301ac00       0x2c libmc300.a(hfat.o)
 .text.hf_atcmd_mid
                0x0301ac2c       0x34 libmc300.a(hfat.o)
 .text.hf_atcmd_help
                0x0301ac60      0x150 libmc300.a(hfat.o)
 .text.hf_atcmd_reboot
                0x0301adb0       0x64 libmc300.a(hfat.o)
 .text.hf_atcmd_chbau
                0x0301ae14       0x2c libmc300.a(hfat.o)
                0x0301ae14                hf_atcmd_chbau
 .text.hf_atcmd_sleep
                0x0301ae40       0x44 libmc300.a(hfat.o)
 .text.hf_atcmd_soft_reset
                0x0301ae84       0x6c libmc300.a(hfat.o)
 .text.hf_at_cmd_cfgtf
                0x0301aef0       0x20 libmc300.a(hfat.o)
 .text.hf_at_cmd_fclr
                0x0301af10       0x2c libmc300.a(hfat.o)
 .text.hf_at_cmd_bootloader_version
                0x0301af3c       0x28 libmc300.a(hfat.o)
 .text.hf_atcmd_wrmid
                0x0301af64       0x7c libmc300.a(hfat.o)
 .text.hf_atcmd_reld
                0x0301afe0       0x60 libmc300.a(hfat.o)
 .text.hf_atcmd_time
                0x0301b040       0x44 libmc300.a(hfat.o)
 .text.hf_atcmd_flashrd
                0x0301b084      0x128 libmc300.a(hfat.o)
 .text.hf_atcmd_flashcmd
                0x0301b1ac       0xe4 libmc300.a(hfat.o)
 .text.hf_at_cmd_cfgrd
                0x0301b290       0x8c libmc300.a(hfat.o)
 .text.hf_atcmd_echo
                0x0301b31c       0xa4 libmc300.a(hfat.o)
 .text.hf_at_cmd_cfgw
                0x0301b3c0       0xa8 libmc300.a(hfat.o)
 .text.hf_at_cmd_dcdc
                0x0301b468       0xa0 libmc300.a(hfat.o)
 .text.hf_atcmd_smtlk_setup
                0x0301b508       0x80 libmc300.a(hfat.o)
 .text.hf_atcmd_modechange
                0x0301b588       0xfc libmc300.a(hfat.o)
 .text.hf_atcmd_testpins
                0x0301b684      0x154 libmc300.a(hfat.o)
 .text.hf_atcmd_dbgl
                0x0301b7d8      0x104 libmc300.a(hfat.o)
 .text.hf_atcmd_uart
                0x0301b8dc      0x218 libmc300.a(hfat.o)
 .text.hf_at_cmd_smem
                0x0301baf4       0xb0 libmc300.a(hfat.o)
 .text.hf_atcmd_testpin
                0x0301bba4      0x164 libmc300.a(hfat.o)
 .text.hfat_init
                0x0301bd08        0x8 libmc300.a(hfat.o)
                0x0301bd08                hfat_init
 .text.at_cmds_reply
                0x0301bd10      0x13c libmc300.a(hfat.o)
 .text.uart_at_cmds_reply
                0x0301be4c       0x4c libmc300.a(hfat.o)
                0x0301be4c                uart_at_cmds_reply
 .text.m2m_at_cmd_open_session
                0x0301be98       0x44 libmc300.a(hfat.o)
                0x0301be98                m2m_at_cmd_open_session
 .text.m2m_at_cmd_close_session
                0x0301bedc       0x14 libmc300.a(hfat.o)
                0x0301bedc                m2m_at_cmd_close_session
 .text.str2hex  0x0301bef0       0x7c libmc300.a(hfat.o)
                0x0301bef0                str2hex
 .text.process_at_cmd
                0x0301bf6c      0x35c libmc300.a(hfat.o)
                0x0301bf6c                process_at_cmd
 .text.process_uart_at_cmd
                0x0301c2c8       0x48 libmc300.a(hfat.o)
                0x0301c2c8                process_uart_at_cmd
 .text.hfat_send_cmd
                0x0301c310       0x58 libmc300.a(hfat.o)
                0x0301c310                hfat_send_cmd
 .text.hfat_assis_send_cmd
                0x0301c368       0x44 libmc300.a(hfat.o)
                0x0301c368                hfat_assis_send_cmd
 .text.strtowords
                0x0301c3ac       0xb8 libmc300.a(hfat.o)
                0x0301c3ac                strtowords
 .text.hfat_get_words
                0x0301c464        0xc libmc300.a(hfat.o)
                0x0301c464                hfat_get_words
 .text.hfuart_get_adjust
                0x0301c470        0x8 libmc300.a(hfat.o)
                0x0301c470                hfuart_get_adjust
 .text.hf_wtest_testpin
                0x0301c478        0x8 libmc300.a(hfat.o)
                0x0301c478                hf_wtest_testpin
 .text.hf_wtest_get_rssi
                0x0301c480        0x4 libmc300.a(hfat.o)
                0x0301c480                hf_wtest_get_rssi
 .text          0x0301c484        0x0 libmc300.a(at_wifi_cmd.o)
 .text.hf_at_cmd_write_default_rf
                0x0301c484       0x38 libmc300.a(at_wifi_cmd.o)
 .text.hf_atcmd_walk
                0x0301c4bc       0xf8 libmc300.a(at_wifi_cmd.o)
 .text.hf_atcmd_wap
                0x0301c5b4      0x29c libmc300.a(at_wifi_cmd.o)
 .text.hf_atcmd_smtlk
                0x0301c850       0x88 libmc300.a(at_wifi_cmd.o)
 .text.hf_atcmd_wslq
                0x0301c8d8       0x5c libmc300.a(at_wifi_cmd.o)
 .text.process_thread_assis_scan_process
                0x0301c934      0x2a0 libmc300.a(at_wifi_cmd.o)
 .text.hf_atcmd_wslk
                0x0301cbd4       0x9c libmc300.a(at_wifi_cmd.o)
 .text.hf_atcmd_wmode
                0x0301cc70      0x108 libmc300.a(at_wifi_cmd.o)
 .text.hf_atcmd_walkind
                0x0301cd78       0x9c libmc300.a(at_wifi_cmd.o)
 .text.hf_atcmd_wpsbtnen
                0x0301ce14       0x9c libmc300.a(at_wifi_cmd.o)
 .text.hf_atcmd_maxsta
                0x0301ceb0       0x64 libmc300.a(at_wifi_cmd.o)
 .text.hf_atcmd_wscan
                0x0301cf14       0xac libmc300.a(at_wifi_cmd.o)
 .text.hf_atcmd_wifi
                0x0301cfc0       0x6c libmc300.a(at_wifi_cmd.o)
 .text.hf_atcmd_wsssid
                0x0301d02c       0x78 libmc300.a(at_wifi_cmd.o)
 .text.hf_atcmd_wskey
                0x0301d0a4      0x5f0 libmc300.a(at_wifi_cmd.o)
 .text.hf_atcmd_disps
                0x0301d694      0x120 libmc300.a(at_wifi_cmd.o)
 .text.get_wakey_auth
                0x0301d7b4       0x40 libmc300.a(at_wifi_cmd.o)
                0x0301d7b4                get_wakey_auth
 .text.get_wakey_encry
                0x0301d7f4       0x40 libmc300.a(at_wifi_cmd.o)
                0x0301d7f4                get_wakey_encry
 .text.hf_atcmd_wakey
                0x0301d834      0x22c libmc300.a(at_wifi_cmd.o)
 .text          0x0301da60        0x0 libmc300.a(at_network_cmd.)
 .text.hf_atcmd_ntpf
                0x0301da60        0x8 libmc300.a(at_network_cmd.)
 .text.hf_atcmd_ntptm
                0x0301da68        0x8 libmc300.a(at_network_cmd.)
 .text.hf_atcmd_udplcpt
                0x0301da70        0x8 libmc300.a(at_network_cmd.)
 .text.hf_atcmd_webu
                0x0301da78      0x100 libmc300.a(at_network_cmd.)
 .text.hf_atcmd_plang
                0x0301db78       0xa0 libmc300.a(at_network_cmd.)
 .text.hf_atcmd_ntpen
                0x0301dc18       0xa4 libmc300.a(at_network_cmd.)
 .text.hf_atcmd_aswd
                0x0301dcbc       0x7c libmc300.a(at_network_cmd.)
 .text.hf_atcmd_lann
                0x0301dd38       0x68 libmc300.a(at_network_cmd.)
 .text.hf_atcmd_wann
                0x0301dda0      0x1a0 libmc300.a(at_network_cmd.)
 .text.hf_atcmd_wadhcpd
                0x0301df40      0x128 libmc300.a(at_network_cmd.)
 .text.hf_atcmd_ntpser
                0x0301e068       0xf8 libmc300.a(at_network_cmd.)
 .text.hf_atcmd_wsmac
                0x0301e160      0x130 libmc300.a(at_network_cmd.)
 .text          0x0301e290        0x0 libmc300.a(hfgpio.o)
 .text.check_fid_valid
                0x0301e290       0x34 libmc300.a(hfgpio.o)
 .text.hfgpio_gpio_test_is_running
                0x0301e2c4       0x10 libmc300.a(hfgpio.o)
                0x0301e2c4                hfgpio_gpio_test_is_running
 .text.hfgpio_gpio_test_enable
                0x0301e2d4       0x1c libmc300.a(hfgpio.o)
                0x0301e2d4                hfgpio_gpio_test_enable
 .text.hfgpio_get_pid
                0x0301e2f0       0x1c libmc300.a(hfgpio.o)
                0x0301e2f0                hfgpio_get_pid
 .text.hfgpio_fmap_check
                0x0301e30c       0xb4 libmc300.a(hfgpio.o)
                0x0301e30c                hfgpio_fmap_check
 .text.hfgpio_fenable_interrupt
                0x0301e3c0       0xac libmc300.a(hfgpio.o)
                0x0301e3c0                hfgpio_fenable_interrupt
 .text.hfgpio_disabel_all_interrupt
                0x0301e46c        0x8 libmc300.a(hfgpio.o)
                0x0301e46c                hfgpio_disabel_all_interrupt
 .text.hfgpio_fdisable_interrupt
                0x0301e474       0x68 libmc300.a(hfgpio.o)
                0x0301e474                hfgpio_fdisable_interrupt
 .text.hfgpio_configure_get
                0x0301e4dc       0x44 libmc300.a(hfgpio.o)
                0x0301e4dc                hfgpio_configure_get
 .text.hfgpio_fconfigure_get
                0x0301e520       0x1c libmc300.a(hfgpio.o)
                0x0301e520                hfgpio_fconfigure_get
 .text.hfgpio_configure_pin
                0x0301e53c       0xc8 libmc300.a(hfgpio.o)
                0x0301e53c                hfgpio_configure_pin
 .text.hfgpio_configure_fpin
                0x0301e604       0x24 libmc300.a(hfgpio.o)
                0x0301e604                hfgpio_configure_fpin
 .text.hfgpio_configure_fpin_interrupt
                0x0301e628      0x13c libmc300.a(hfgpio.o)
                0x0301e628                hfgpio_configure_fpin_interrupt
 .text.hfgpio_fpin_add_feature
                0x0301e764       0x28 libmc300.a(hfgpio.o)
                0x0301e764                hfgpio_fpin_add_feature
 .text.hfgpio_fpin_clear_feature
                0x0301e78c       0x28 libmc300.a(hfgpio.o)
                0x0301e78c                hfgpio_fpin_clear_feature
 .text.hfgpio_pin_is_high
                0x0301e7b4       0x38 libmc300.a(hfgpio.o)
                0x0301e7b4                hfgpio_pin_is_high
 .text.hfgpio_fpin_is_high
                0x0301e7ec       0x1c libmc300.a(hfgpio.o)
                0x0301e7ec                hfgpio_fpin_is_high
 .text.process_thread_syste_button_process
                0x0301e808      0x118 libmc300.a(hfgpio.o)
 .text.set_nLink_pin
                0x0301e920       0x14 libmc300.a(hfgpio.o)
                0x0301e920                set_nLink_pin
 .text.hfgpio_init_gpio_pin
                0x0301e934       0xe8 libmc300.a(hfgpio.o)
                0x0301e934                hfgpio_init_gpio_pin
 .text.pwm_enable
                0x0301ea1c        0x4 libmc300.a(hfgpio.o)
                0x0301ea1c                pwm_enable
 .text.pwm_disable
                0x0301ea20        0x4 libmc300.a(hfgpio.o)
                0x0301ea20                pwm_disable
 .text.hfgpio_pwm_disable
                0x0301ea24        0x8 libmc300.a(hfgpio.o)
                0x0301ea24                hfgpio_pwm_disable
 .text.hfgpio_pwm_enable
                0x0301ea2c        0x8 libmc300.a(hfgpio.o)
                0x0301ea2c                hfgpio_pwm_enable
 .text          0x0301ea34        0x0 libmc300.a(hfdebug.o)
 .text.hfdbg_set_level
                0x0301ea34       0x14 libmc300.a(hfdebug.o)
                0x0301ea34                hfdbg_set_level
 .text.hfdbg_check
                0x0301ea48       0x1c libmc300.a(hfdebug.o)
                0x0301ea48                hfdbg_check
 .text          0x0301ea64        0x0 libmc300.a(hfuart.o)
 .text.hfuart_open
                0x0301ea64       0x20 libmc300.a(hfuart.o)
                0x0301ea64                hfuart_open
 .text.hfuart_close
                0x0301ea84        0x8 libmc300.a(hfuart.o)
                0x0301ea84                hfuart_close
 .text.hfuart_recv
                0x0301ea8c        0x8 libmc300.a(hfuart.o)
                0x0301ea8c                hfuart_recv
 .text.hfuart_is_gpio_mode
                0x0301ea94       0x40 libmc300.a(hfuart.o)
                0x0301ea94                hfuart_is_gpio_mode
 .text.hfuart_config
                0x0301ead4        0x8 libmc300.a(hfuart.o)
                0x0301ead4                hfuart_config
 .text          0x0301eadc        0x0 libmc300.a(hfsys.o)
 .text.hfsys_get_sdk_version
                0x0301eadc        0xc libmc300.a(hfsys.o)
                0x0301eadc                hfsys_get_sdk_version
 .text.hfmem_malloc
                0x0301eae8       0x30 libmc300.a(hfsys.o)
                0x0301eae8                hfmem_malloc
 .text.hfmem_realloc
                0x0301eb18        0x4 libmc300.a(hfsys.o)
                0x0301eb18                hfmem_realloc
 .text.hfmem_free
                0x0301eb1c        0xc libmc300.a(hfsys.o)
                0x0301eb1c                hfmem_free
 .text.hfsys_switch_run_mode
                0x0301eb28       0x1c libmc300.a(hfsys.o)
                0x0301eb28                hfsys_switch_run_mode
 .text.hfsys_get_run_mode
                0x0301eb44       0x10 libmc300.a(hfsys.o)
                0x0301eb44                hfsys_get_run_mode
 .text.hfsys_get_memory
                0x0301eb54       0x34 libmc300.a(hfsys.o)
                0x0301eb54                hfsys_get_memory
 .text.hf_trapfault_handler_dumpstack
                0x0301eb88        0x4 libmc300.a(hfsys.o)
                0x0301eb88                hf_trapfault_handler_dumpstack
 .text.hfsys_send_event
                0x0301eb8c       0x2c libmc300.a(hfsys.o)
                0x0301eb8c                hfsys_send_event
 .text.hfsys_reload
                0x0301ebb8       0x18 libmc300.a(hfsys.o)
                0x0301ebb8                hfsys_reload
 .text.hfsys_register_system_event
                0x0301ebd0       0x14 libmc300.a(hfsys.o)
                0x0301ebd0                hfsys_register_system_event
 .text.hfsys_unregister_system_event
                0x0301ebe4       0x14 libmc300.a(hfsys.o)
                0x0301ebe4                hfsys_unregister_system_event
 .text.hfnvm_write_int
                0x0301ebf8       0x3c libmc300.a(hfsys.o)
                0x0301ebf8                hfnvm_write_int
 .text.hfsys_reset
                0x0301ec34       0x68 libmc300.a(hfsys.o)
                0x0301ec34                hfsys_reset
 .text.hfsys_softreset
                0x0301ec9c       0x78 libmc300.a(hfsys.o)
                0x0301ec9c                hfsys_softreset
 .text.hfnvm_read_int
                0x0301ed14       0x3c libmc300.a(hfsys.o)
                0x0301ed14                hfnvm_read_int
 .text.hfnvm_write_data
                0x0301ed50       0x30 libmc300.a(hfsys.o)
                0x0301ed50                hfnvm_write_data
 .text.hfnvm_read_data
                0x0301ed80       0x38 libmc300.a(hfsys.o)
                0x0301ed80                hfnvm_read_data
 .text.hfnvm_reset
                0x0301edb8       0x28 libmc300.a(hfsys.o)
                0x0301edb8                hfnvm_reset
 .text.hfsys_init
                0x0301ede0       0x64 libmc300.a(hfsys.o)
                0x0301ede0                hfsys_init
 .text.hfsys_nvm_read
                0x0301ee44       0x40 libmc300.a(hfsys.o)
                0x0301ee44                hfsys_nvm_read
 .text.hfsys_nvm_write
                0x0301ee84       0x40 libmc300.a(hfsys.o)
                0x0301ee84                hfsys_nvm_write
 .text.hfsys_get_reset_reason
                0x0301eec4       0x10 libmc300.a(hfsys.o)
                0x0301eec4                hfsys_get_reset_reason
 .text.hfsys_sleep
                0x0301eed4       0x20 libmc300.a(hfsys.o)
                0x0301eed4                hfsys_sleep
 .text          0x0301eef4        0x0 libmc300.a(hfconfig.o)
 .text.printf_array
                0x0301eef4       0x44 libmc300.a(hfconfig.o)
                0x0301eef4                printf_array
 .text.get_user_default_rf_table
                0x0301ef38        0x8 libmc300.a(hfconfig.o)
 .text.hf_config_write_default_rf_table
                0x0301ef40      0x134 libmc300.a(hfconfig.o)
                0x0301ef40                hf_config_write_default_rf_table
 .text.hf_config_enable_save
                0x0301f074       0x10 libmc300.a(hfconfig.o)
                0x0301f074                hf_config_enable_save
 .text.read_hf_config
                0x0301f084       0x70 libmc300.a(hfconfig.o)
 .text.write_hf_config
                0x0301f0f4       0x94 libmc300.a(hfconfig.o)
 .text.hf_config_file_save
                0x0301f188       0x2c libmc300.a(hfconfig.o)
                0x0301f188                hf_config_file_save
 .text.uart_baud_num2en
                0x0301f1b4       0xe4 libmc300.a(hfconfig.o)
                0x0301f1b4                uart_baud_num2en
 .text.uart_baud_en2num
                0x0301f298       0xe0 libmc300.a(hfconfig.o)
                0x0301f298                uart_baud_en2num
 .text.get_uart_baudrate
                0x0301f378       0x20 libmc300.a(hfconfig.o)
                0x0301f378                get_uart_baudrate
 .text.get_uart_bits
                0x0301f398       0x5c libmc300.a(hfconfig.o)
                0x0301f398                get_uart_bits
 .text.get_uart_stop
                0x0301f3f4       0x34 libmc300.a(hfconfig.o)
                0x0301f3f4                get_uart_stop
 .text.get_uart_parity_str
                0x0301f428       0x50 libmc300.a(hfconfig.o)
                0x0301f428                get_uart_parity_str
 .text.get_uart_parity
                0x0301f478       0x24 libmc300.a(hfconfig.o)
                0x0301f478                get_uart_parity
 .text.get_uart_fc
                0x0301f49c       0x48 libmc300.a(hfconfig.o)
                0x0301f49c                get_uart_fc
 .text.setbaudrate
                0x0301f4e4       0x3c libmc300.a(hfconfig.o)
                0x0301f4e4                setbaudrate
 .text.setdatabits
                0x0301f520       0x60 libmc300.a(hfconfig.o)
                0x0301f520                setdatabits
 .text.setstopbits
                0x0301f580       0x3c libmc300.a(hfconfig.o)
                0x0301f580                setstopbits
 .text.setparity
                0x0301f5bc       0x1c libmc300.a(hfconfig.o)
                0x0301f5bc                setparity
 .text.hfconfig_fseting_save_ex
                0x0301f5d8       0xb0 libmc300.a(hfconfig.o)
                0x0301f5d8                hfconfig_fseting_save_ex
 .text.hfconfig_fseting_save
                0x0301f688       0x8c libmc300.a(hfconfig.o)
                0x0301f688                hfconfig_fseting_save
 .text.hf_boot_config_save
                0x0301f714       0x38 libmc300.a(hfconfig.o)
                0x0301f714                hf_boot_config_save
 .text.hf_boot_update_run_mode
                0x0301f74c       0x4c libmc300.a(hfconfig.o)
                0x0301f74c                hf_boot_update_run_mode
 .text.hf_config_update_connect_flag
                0x0301f798       0x90 libmc300.a(hfconfig.o)
                0x0301f798                hf_config_update_connect_flag
 .text.hf_config_file_reload
                0x0301f828      0x4b8 libmc300.a(hfconfig.o)
                0x0301f828                hf_config_file_reload
 .text.hf_config_file_init
                0x0301fce0      0x5b0 libmc300.a(hfconfig.o)
                0x0301fce0                hf_config_file_init
 .text.hf_config_get_host_addr
                0x03020290        0xc libmc300.a(hfconfig.o)
                0x03020290                hf_config_get_host_addr
 .text.hf_config_get_host_mask
                0x0302029c        0xc libmc300.a(hfconfig.o)
                0x0302029c                hf_config_get_host_mask
 .text          0x030202a8        0x0 libmc300.a(hfflash.o)
 .text.flash_init
                0x030202a8       0x10 libmc300.a(hfflash.o)
                0x030202a8                flash_init
 .text.flash_erase_page
                0x030202b8       0xa4 libmc300.a(hfflash.o)
                0x030202b8                flash_erase_page
 .text.flash_erase_page_no_lock
                0x0302035c        0x4 libmc300.a(hfflash.o)
                0x0302035c                flash_erase_page_no_lock
 .text.flash_erase_blocks
                0x03020360       0xa4 libmc300.a(hfflash.o)
                0x03020360                flash_erase_blocks
 .text.flash_lock
                0x03020404        0x4 libmc300.a(hfflash.o)
                0x03020404                flash_lock
 .text.flash_unlock
                0x03020408        0x4 libmc300.a(hfflash.o)
                0x03020408                flash_unlock
 .text.flash_write_no_lock
                0x0302040c      0x194 libmc300.a(hfflash.o)
                0x0302040c                flash_write_no_lock
 .text.flash_write
                0x030205a0        0x4 libmc300.a(hfflash.o)
                0x030205a0                flash_write
 .text.flash_read
                0x030205a4        0x4 libmc300.a(hfflash.o)
                0x030205a4                flash_read
 .text.hfflash_copy
                0x030205a8       0x64 libmc300.a(hfflash.o)
                0x030205a8                hfflash_copy
 .text.hfuflash_erase_page
                0x0302060c       0x90 libmc300.a(hfflash.o)
                0x0302060c                hfuflash_erase_page
 .text.hfuflash_write
                0x0302069c       0x50 libmc300.a(hfflash.o)
                0x0302069c                hfuflash_write
 .text.hfuflash_read
                0x030206ec       0x48 libmc300.a(hfflash.o)
                0x030206ec                hfuflash_read
 .text          0x03020734        0x0 libmc300.a(hfnet.o)
 .text.hfnet_send_socketa_event
                0x03020734       0x30 libmc300.a(hfnet.o)
                0x03020734                hfnet_send_socketa_event
 .text.hfnet_send_socketb_event
                0x03020764       0x30 libmc300.a(hfnet.o)
                0x03020764                hfnet_send_socketb_event
 .text.hfnet_start_socketa
                0x03020794       0x10 libmc300.a(hfnet.o)
                0x03020794                hfnet_start_socketa
 .text.hfnet_start_socketb
                0x030207a4       0x2c libmc300.a(hfnet.o)
                0x030207a4                hfnet_start_socketb
 .text.hfnet_socketb_is_connected
                0x030207d0        0x8 libmc300.a(hfnet.o)
                0x030207d0                hfnet_socketb_is_connected
 .text.hfnet_socketa_is_connected
                0x030207d8        0x8 libmc300.a(hfnet.o)
                0x030207d8                hfnet_socketa_is_connected
 .text.hfnet_socketa_send
                0x030207e0        0x4 libmc300.a(hfnet.o)
                0x030207e0                hfnet_socketa_send
 .text.hfnet_socketb_send
                0x030207e4        0x4 libmc300.a(hfnet.o)
                0x030207e4                hfnet_socketb_send
 .text.ip2int   0x030207e8       0xe4 libmc300.a(hfnet.o)
                0x030207e8                ip2int
 .text.hfnet_send_uart_event
                0x030208cc       0x30 libmc300.a(hfnet.o)
                0x030208cc                hfnet_send_uart_event
 .text.hfnet_send_assis_event
                0x030208fc       0x30 libmc300.a(hfnet.o)
                0x030208fc                hfnet_send_assis_event
 .text.hfnet_start_assis
                0x0302092c       0x20 libmc300.a(hfnet.o)
                0x0302092c                hfnet_start_assis
 .text.hfnet_start_assis_ex
                0x0302094c       0x14 libmc300.a(hfnet.o)
                0x0302094c                hfnet_start_assis_ex
 .text.hfnet_start_uart
                0x03020960       0x14 libmc300.a(hfnet.o)
                0x03020960                hfnet_start_uart
 .text.hfnet_start_uart_ex
                0x03020974       0x14 libmc300.a(hfnet.o)
                0x03020974                hfnet_start_uart_ex
 .text.hfnet_wifi_is_active
                0x03020988        0x8 libmc300.a(hfnet.o)
                0x03020988                hfnet_wifi_is_active
 .text.hfnet_init
                0x03020990       0x1c libmc300.a(hfnet.o)
                0x03020990                hfnet_init
 .text.hfnet_wifi_up
                0x030209ac        0x8 libmc300.a(hfnet.o)
                0x030209ac                hfnet_wifi_up
 .text.hfnet_wifi_down
                0x030209b4        0x8 libmc300.a(hfnet.o)
                0x030209b4                hfnet_wifi_down
 .text.hfnet_set_udp_broadcast_port_valid
                0x030209bc        0x8 libmc300.a(hfnet.o)
                0x030209bc                hfnet_set_udp_broadcast_port_valid
 .text.socket_N_event_handler
                0x030209c4      0x240 libmc300.a(hfnet.o)
                0x030209c4                socket_N_event_handler
 .text.process_thread_user_socket_1_process
                0x03020c04       0xa8 libmc300.a(hfnet.o)
 .text.process_thread_user_socket_2_process
                0x03020cac       0xa8 libmc300.a(hfnet.o)
 .text.process_thread_user_socket_3_process
                0x03020d54       0xa8 libmc300.a(hfnet.o)
 .text.process_thread_user_socket_4_process
                0x03020dfc       0xa8 libmc300.a(hfnet.o)
 .text.process_thread_user_socket_5_process
                0x03020ea4       0xa8 libmc300.a(hfnet.o)
 .text.process_thread_user_socket_6_process
                0x03020f4c       0xa8 libmc300.a(hfnet.o)
 .text.process_thread_user_socket_7_process
                0x03020ff4       0xa8 libmc300.a(hfnet.o)
 .text.hfnet_tcp_listen
                0x0302109c      0x130 libmc300.a(hfnet.o)
                0x0302109c                hfnet_tcp_listen
 .text.hfnet_tcp_unlisten
                0x030211cc       0xb4 libmc300.a(hfnet.o)
                0x030211cc                hfnet_tcp_unlisten
 .text.hfnet_tcp_close
                0x03021280       0x24 libmc300.a(hfnet.o)
                0x03021280                hfnet_tcp_close
 .text.hfnet_tcp_connect
                0x030212a4      0x15c libmc300.a(hfnet.o)
                0x030212a4                hfnet_tcp_connect
 .text.hfnet_tcp_disconnect
                0x03021400       0xb8 libmc300.a(hfnet.o)
                0x03021400                hfnet_tcp_disconnect
 .text.hfnet_tcp_send
                0x030214b8        0x4 libmc300.a(hfnet.o)
                0x030214b8                hfnet_tcp_send
 .text.hfnet_udp_create
                0x030214bc      0x118 libmc300.a(hfnet.o)
                0x030214bc                hfnet_udp_create
 .text.hfnet_udp_close
                0x030215d4       0xa8 libmc300.a(hfnet.o)
                0x030215d4                hfnet_udp_close
 .text.hfnet_udp_sendto
                0x0302167c       0x60 libmc300.a(hfnet.o)
                0x0302167c                hfnet_udp_sendto
 .text          0x030216dc        0x0 libmc300.a(uart_thread.o)
 .text.uart_init
                0x030216dc       0xc4 libmc300.a(uart_thread.o)
                0x030216dc                uart_init
 .text.uart_thread_start
                0x030217a0      0x114 libmc300.a(uart_thread.o)
                0x030217a0                uart_thread_start
 .text.uart_through_send_to_uart
                0x030218b4       0x48 libmc300.a(uart_thread.o)
                0x030218b4                uart_through_send_to_uart
 .text.uart_through_send_to_wifi
                0x030218fc       0x44 libmc300.a(uart_thread.o)
                0x030218fc                uart_through_send_to_wifi
 .text.hfat_enable_uart_session
                0x03021940       0x14 libmc300.a(uart_thread.o)
                0x03021940                hfat_enable_uart_session
 .text          0x03021954        0x0 libmc300.a(hfwifi.o)
 .text.hfwifi_transform_rssi
                0x03021954       0x44 libmc300.a(hfwifi.o)
                0x03021954                hfwifi_transform_rssi
 .text.hfwifi_change_scan_result_format
                0x03021998       0xac libmc300.a(hfwifi.o)
                0x03021998                hfwifi_change_scan_result_format
 .text.hfwifi_scan_result_format_web_str
                0x03021a44       0xbc libmc300.a(hfwifi.o)
                0x03021a44                hfwifi_scan_result_format_web_str
 .text.hfwifi_scan_result_format_str
                0x03021b00       0xb0 libmc300.a(hfwifi.o)
                0x03021b00                hfwifi_scan_result_format_str
 .text.hfwifi_scan_result_raw_format_str
                0x03021bb0       0x28 libmc300.a(hfwifi.o)
                0x03021bb0                hfwifi_scan_result_raw_format_str
 .text.hfwifi_scan_result_callback
                0x03021bd8       0x24 libmc300.a(hfwifi.o)
                0x03021bd8                hfwifi_scan_result_callback
 .text.hfwifi_is_scanning
                0x03021bfc       0x34 libmc300.a(hfwifi.o)
                0x03021bfc                hfwifi_is_scanning
 .text.hfwifi_enable_ap_idle_auto_reset
                0x03021c30        0x8 libmc300.a(hfwifi.o)
                0x03021c30                hfwifi_enable_ap_idle_auto_reset
 .text.hfwifi_get_existing_ssid_rssi
                0x03021c38        0x8 libmc300.a(hfwifi.o)
                0x03021c38                hfwifi_get_existing_ssid_rssi
 .text.hfwifi_read_sta_mac_address
                0x03021c40       0x58 libmc300.a(hfwifi.o)
                0x03021c40                hfwifi_read_sta_mac_address
 .text.hfwifi_write_sta_mac_address
                0x03021c98       0x7c libmc300.a(hfwifi.o)
                0x03021c98                hfwifi_write_sta_mac_address
 .text.hfwifi_sta_get_current_rssi
                0x03021d14       0x98 libmc300.a(hfwifi.o)
                0x03021d14                hfwifi_sta_get_current_rssi
 .text.hfwifi_sleep
                0x03021dac       0x34 libmc300.a(hfwifi.o)
                0x03021dac                hfwifi_sleep
 .text.process_thread_wifi_scan_process
                0x03021de0      0x114 libmc300.a(hfwifi.o)
 .text.hfwifi_scan_ex
                0x03021ef4      0x164 libmc300.a(hfwifi.o)
                0x03021ef4                hfwifi_scan_ex
 .text.hfwifi_scan
                0x03022058       0x30 libmc300.a(hfwifi.o)
                0x03022058                hfwifi_scan
 .text.hfwifi_softap_connected_sta_cnt
                0x03022088       0x2c libmc300.a(hfwifi.o)
                0x03022088                hfwifi_softap_connected_sta_cnt
 .text.hfwifi_init
                0x030220b4       0x50 libmc300.a(hfwifi.o)
                0x030220b4                hfwifi_init
 .text          0x03022104        0x0 libmc300.a(hfupdate.o)
 .text.upgrade_receiver
                0x03022104      0x244 libmc300.a(hfupdate.o)
 .text.hfupdate_init_upgrade_socket.part.0
                0x03022348       0x48 libmc300.a(hfupdate.o)
 .text.__hfupdate_boot
                0x03022390      0x160 libmc300.a(hfupdate.o)
 .text.hfupdate_start
                0x030224f0       0x58 libmc300.a(hfupdate.o)
                0x030224f0                hfupdate_start
 .text.process_thread_auto_upgrade_process
                0x03022548      0x65c libmc300.a(hfupdate.o)
 .text.hfupdate_write_file
                0x03022ba4       0x80 libmc300.a(hfupdate.o)
                0x03022ba4                hfupdate_write_file
 .text.check_upgrade_image_ok
                0x03022c24      0x104 libmc300.a(hfupdate.o)
                0x03022c24                check_upgrade_image_ok
 .text.hfupdate_boot
                0x03022d28       0x28 libmc300.a(hfupdate.o)
                0x03022d28                hfupdate_boot
 .text.hfupdate_complete
                0x03022d50       0x64 libmc300.a(hfupdate.o)
                0x03022d50                hfupdate_complete
 .text.http_event_callback
                0x03022db4      0x408 libmc300.a(hfupdate.o)
                0x03022db4                http_event_callback
 .text.hfupdate_auto_upgrade
                0x030231bc       0x84 libmc300.a(hfupdate.o)
                0x030231bc                hfupdate_auto_upgrade
 .text.hfupdate_setup_auto_upgrade_config
                0x03023240       0x70 libmc300.a(hfupdate.o)
                0x03023240                hfupdate_setup_auto_upgrade_config
 .text.hfupdate_auto_upgrade_is_running
                0x030232b0       0x10 libmc300.a(hfupdate.o)
                0x030232b0                hfupdate_auto_upgrade_is_running
 .text.hfupdate_auto_upgrade_start
                0x030232c0      0x240 libmc300.a(hfupdate.o)
                0x030232c0                hfupdate_auto_upgrade_start
 .text.hfupdate_mcu_ota_valid
                0x03023500       0x9c libmc300.a(hfupdate.o)
                0x03023500                hfupdate_mcu_ota_valid
 .text.hfupdate_mcu_ota_data_read
                0x0302359c       0xec libmc300.a(hfupdate.o)
                0x0302359c                hfupdate_mcu_ota_data_read
 .text.hfupdate_mcu_ota_clear
                0x03023688       0x44 libmc300.a(hfupdate.o)
                0x03023688                hfupdate_mcu_ota_clear
 .text          0x030236cc        0x0 libmc300.a(httpclient.o)
 .text.process_thread_http_request_process
                0x030236cc       0xdc libmc300.a(httpclient.o)
 .text.http_parse_url
                0x030237a8      0x1dc libmc300.a(httpclient.o)
 .text.http_download_file
                0x03023984      0x14c libmc300.a(httpclient.o)
                0x03023984                http_download_file
 .text.http_download_file_range
                0x03023ad0      0x184 libmc300.a(httpclient.o)
                0x03023ad0                http_download_file_range
 .text.httpclient_send_event
                0x03023c54       0x2c libmc300.a(httpclient.o)
                0x03023c54                httpclient_send_event
 .text.httpclient_app
                0x03023c80      0x770 libmc300.a(httpclient.o)
                0x03023c80                httpclient_app
 .text.process_thread_httpclient_connect_process
                0x030243f0      0x470 libmc300.a(httpclient.o)
 .text          0x03024860        0x0 libmc300.a(hfsmtlk.o)
 .text.hfsmtlk_crc8
                0x03024860       0x4c libmc300.a(hfsmtlk.o)
                0x03024860                hfsmtlk_crc8
 .text.hfsmtlk_list_find_ap_by_ssid
                0x030248ac       0x78 libmc300.a(hfsmtlk.o)
                0x030248ac                hfsmtlk_list_find_ap_by_ssid
 .text.hfsmtlk_list_find_ap_by_ssid_and_bssid
                0x03024924       0x94 libmc300.a(hfsmtlk.o)
                0x03024924                hfsmtlk_list_find_ap_by_ssid_and_bssid
 .text.hfsmtlk_list_find_ap_by_ssidcrc8
                0x030249b8       0x68 libmc300.a(hfsmtlk.o)
                0x030249b8                hfsmtlk_list_find_ap_by_ssidcrc8
 .text.hfsmtlk_list_get_encry_by_bssid
                0x03024a20       0x20 libmc300.a(hfsmtlk.o)
                0x03024a20                hfsmtlk_list_get_encry_by_bssid
 .text.hfsmtlk_list_get_index_by_bssid
                0x03024a40       0x64 libmc300.a(hfsmtlk.o)
                0x03024a40                hfsmtlk_list_get_index_by_bssid
 .text.hfsmtlk_list_get_item
                0x03024aa4       0x3c libmc300.a(hfsmtlk.o)
                0x03024aa4                hfsmtlk_list_get_item
 .text.hfsmtlk_sort_channel_list
                0x03024ae0      0x20c libmc300.a(hfsmtlk.o)
                0x03024ae0                hfsmtlk_sort_channel_list
 .text.hfsmtlk_reset
                0x03024cec       0xa4 libmc300.a(hfsmtlk.o)
                0x03024cec                hfsmtlk_reset
 .text.hfsmtlk_get_base_length
                0x03024d90       0x20 libmc300.a(hfsmtlk.o)
                0x03024d90                hfsmtlk_get_base_length
 .text.print_HEX
                0x03024db0       0x5c libmc300.a(hfsmtlk.o)
                0x03024db0                print_HEX
 .text.hfsmtlk_init
                0x03024e0c      0x1c8 libmc300.a(hfsmtlk.o)
                0x03024e0c                hfsmtlk_init
 .text.hfsmtlk_start
                0x03024fd4       0x2c libmc300.a(hfsmtlk.o)
                0x03024fd4                hfsmtlk_start
 .text.hfsmtlk_is_start
                0x03025000       0x18 libmc300.a(hfsmtlk.o)
                0x03025000                hfsmtlk_is_start
 .text.hfsmtlk_startex
                0x03025018       0xc8 libmc300.a(hfsmtlk.o)
                0x03025018                hfsmtlk_startex
 .text.hfsmtlk_ap_done
                0x030250e0      0x108 libmc300.a(hfsmtlk.o)
                0x030250e0                hfsmtlk_ap_done
 .text.ReSetUserReceFilter
                0x030251e8       0x1c libmc300.a(hfsmtlk.o)
                0x030251e8                ReSetUserReceFilter
 .text.initUserSmart
                0x03025204       0x44 libmc300.a(hfsmtlk.o)
                0x03025204                initUserSmart
 .text.exitUserSmart
                0x03025248       0x34 libmc300.a(hfsmtlk.o)
                0x03025248                exitUserSmart
 .text.hfsmtlk_stop
                0x0302527c       0x50 libmc300.a(hfsmtlk.o)
                0x0302527c                hfsmtlk_stop
 .text.change_encry
                0x030252cc       0x30 libmc300.a(hfsmtlk.o)
                0x030252cc                change_encry
 .text.get_ap_list
                0x030252fc       0x68 libmc300.a(hfsmtlk.o)
                0x030252fc                get_ap_list
 .text.hfsmtlk_ok_result
                0x03025364        0xc libmc300.a(hfsmtlk.o)
                0x03025364                hfsmtlk_ok_result
 .text.hfsmtlk_send_result
                0x03025370      0x214 libmc300.a(hfsmtlk.o)
                0x03025370                hfsmtlk_send_result
 .text.process_thread_hfsmtlk_process
                0x03025584      0x758 libmc300.a(hfsmtlk.o)
 .text.hfsmtlk_fix_channel_by_bssid
                0x03025cdc       0x48 libmc300.a(hfsmtlk.o)
                0x03025cdc                hfsmtlk_fix_channel_by_bssid
 .text.hfsmtlk_register
                0x03025d24       0x14 libmc300.a(hfsmtlk.o)
                0x03025d24                hfsmtlk_register
 .text.hfsmtlk_lock_channel
                0x03025d38       0x68 libmc300.a(hfsmtlk.o)
                0x03025d38                hfsmtlk_lock_channel
 .text.hfsmtlk_finished
                0x03025da0      0x158 libmc300.a(hfsmtlk.o)
                0x03025da0                hfsmtlk_finished
 .text.hfsmtlk_enable_recv_beacon
                0x03025ef8       0x38 libmc300.a(hfsmtlk.o)
                0x03025ef8                hfsmtlk_enable_recv_beacon
 .text.hfsmtlnk_check_uinfo_separators_char
                0x03025f30       0x44 libmc300.a(hfsmtlk.o)
                0x03025f30                hfsmtlnk_check_uinfo_separators_char
 .text.hfsmtlk_finished_ok
                0x03025f74      0x1e8 libmc300.a(hfsmtlk.o)
                0x03025f74                hfsmtlk_finished_ok
 .text.hfsmtlk_enable_uinfo_in_password
                0x0302615c       0x44 libmc300.a(hfsmtlk.o)
                0x0302615c                hfsmtlk_enable_uinfo_in_password
 .text          0x030261a0        0x0 libmc300.a(smartlinkV3.o)
 .text.smartlinkv3_reset
                0x030261a0       0x84 libmc300.a(smartlinkV3.o)
                0x030261a0                smartlinkv3_reset
 .text.smartlinkv3_valid_char
                0x03026224       0x4c libmc300.a(smartlinkV3.o)
                0x03026224                smartlinkv3_valid_char
 .text.smartlinkv3_check
                0x03026270      0x21c libmc300.a(smartlinkV3.o)
                0x03026270                smartlinkv3_check
 .text.smartlinkv3_init
                0x0302648c       0x94 libmc300.a(smartlinkV3.o)
                0x0302648c                smartlinkv3_init
 .text.smartlinkv3_fix_channel
                0x03026520       0x68 libmc300.a(smartlinkV3.o)
                0x03026520                smartlinkv3_fix_channel
 .text          0x03026588        0x0 libmc300.a(smartlinkV7.o)
 .text.smartlinkv7_is_ongoing
                0x03026588       0x3c libmc300.a(smartlinkV7.o)
                0x03026588                smartlinkv7_is_ongoing
 .text.smartlinkv7_finished_ok
                0x030265c4      0x2b8 libmc300.a(smartlinkV7.o)
                0x030265c4                smartlinkv7_finished_ok
 .text.smartlinkv7_partial_ok
                0x0302687c      0x280 libmc300.a(smartlinkV7.o)
                0x0302687c                smartlinkv7_partial_ok
 .text.smartlinkv7_decode
                0x03026afc       0x1c libmc300.a(smartlinkV7.o)
                0x03026afc                smartlinkv7_decode
 .text.smartlinkv7_init
                0x03026b18      0x108 libmc300.a(smartlinkV7.o)
                0x03026b18                smartlinkv7_init
 .text.smartlinkv7_reset
                0x03026c20       0x1c libmc300.a(smartlinkV7.o)
                0x03026c20                smartlinkv7_reset
 .text.smartlinkv7_fix_channel
                0x03026c3c       0x54 libmc300.a(smartlinkV7.o)
                0x03026c3c                smartlinkv7_fix_channel
 .text.smartlinkv7_get_fix_channel
                0x03026c90       0x1c libmc300.a(smartlinkV7.o)
                0x03026c90                smartlinkv7_get_fix_channel
 .text          0x03026cac        0x0 libmc300.a(airkissv2.o)
 .text.airkiss_printf
                0x03026cac        0xc libmc300.a(airkissv2.o)
                0x03026cac                airkiss_printf
 .text.airlink_recv_callback
                0x03026cb8      0x134 libmc300.a(airkissv2.o)
 .text.airkissv2_set_key
                0x03026dec       0x50 libmc300.a(airkissv2.o)
                0x03026dec                airkissv2_set_key
 .text.airkissv2_init
                0x03026e3c       0x64 libmc300.a(airkissv2.o)
                0x03026e3c                airkissv2_init
 .text.airkissv2_reset
                0x03026ea0       0x2c libmc300.a(airkissv2.o)
                0x03026ea0                airkissv2_reset
 .text.airkissv2_finish
                0x03026ecc       0x70 libmc300.a(airkissv2.o)
                0x03026ecc                airkissv2_finish
 .text.airkissv2_fix_channel
                0x03026f3c       0x3c libmc300.a(airkissv2.o)
                0x03026f3c                airkissv2_fix_channel
 .text.airlink_timer_callback
                0x03026f78       0xd0 libmc300.a(airkissv2.o)
                0x03026f78                airlink_timer_callback
 .text.process_thread_airlink_discover_process
                0x03027048       0xfc libmc300.a(airkissv2.o)
 .text.hfnet_start_airlink
                0x03027144       0x9c libmc300.a(airkissv2.o)
                0x03027144                hfnet_start_airlink
 .text.hfnet_stop_airlink
                0x030271e0       0x54 libmc300.a(airkissv2.o)
                0x030271e0                hfnet_stop_airlink
 .text          0x03027234        0x0 libmc300.a(assis_thread.o)
 .text.add_reply
                0x03027234       0xe8 libmc300.a(assis_thread.o)
 .text.m2m_assis_write
                0x0302731c       0x80 libmc300.a(assis_thread.o)
                0x0302731c                m2m_assis_write
 .text.m2m_assis_writen
                0x0302739c       0x38 libmc300.a(assis_thread.o)
                0x0302739c                m2m_assis_writen
 .text.assis_thread_receiver
                0x030273d4      0x484 libmc300.a(assis_thread.o)
 .text.hfnet_assis_write
                0x03027858        0x8 libmc300.a(assis_thread.o)
                0x03027858                hfnet_assis_write
 .text.start_assis_thread
                0x03027860       0x64 libmc300.a(assis_thread.o)
                0x03027860                start_assis_thread
 .text          0x030278c4        0x0 libmc300.a(hftimer.o)
 .text.hftimer_init
                0x030278c4       0x3c libmc300.a(hftimer.o)
                0x030278c4                hftimer_init
 .text.hftimer_create
                0x03027900       0xc8 libmc300.a(hftimer.o)
                0x03027900                hftimer_create
 .text.hftimer_get_timer_id
                0x030279c8       0x10 libmc300.a(hftimer.o)
                0x030279c8                hftimer_get_timer_id
 .text.hftimer_start
                0x030279d8       0xa4 libmc300.a(hftimer.o)
                0x030279d8                hftimer_start
 .text.hftimer_stop
                0x03027a7c       0x24 libmc300.a(hftimer.o)
                0x03027a7c                hftimer_stop
 .text.hftimer_delete
                0x03027aa0       0x54 libmc300.a(hftimer.o)
                0x03027aa0                hftimer_delete
 .text.hftimer_change_period
                0x03027af4        0x8 libmc300.a(hftimer.o)
                0x03027af4                hftimer_change_period
 .text.hftimer_get_counter
                0x03027afc       0x1c libmc300.a(hftimer.o)
                0x03027afc                hftimer_get_counter
 .text.hftimer_poll
                0x03027b18       0x14 libmc300.a(hftimer.o)
                0x03027b18                hftimer_poll
 .text          0x03027b2c        0x0 libmc300.a(at_fota.o)
 .text.at_fota_event_download_sw
                0x03027b2c      0x144 libmc300.a(at_fota.o)
 .text.hf_at_cmd_upurl
                0x03027c70       0xd4 libmc300.a(at_fota.o)
 .text.hf_at_cmd_ota
                0x03027d44       0xdc libmc300.a(at_fota.o)
 .text          0x03027e20        0x0 libmc300.a(mc300_main.o)
 .text.sta_connect
                0x03027e20       0xa8 libmc300.a(mc300_main.o)
                0x03027e20                sta_connect
 .text.process_thread_auto_connect_process
                0x03027ec8      0x894 libmc300.a(mc300_main.o)
 .text.At_ParserInd
                0x0302875c      0x1a4 libmc300.a(mc300_main.o)
                0x0302875c                At_ParserInd
 .text.process_thread_Cabrio_ate_process
                0x03028900      0x308 libmc300.a(mc300_main.o)
 .text.process_thread_wifi_check_process
                0x03028c08      0x384 libmc300.a(mc300_main.o)
 .text.hfwifi_ap_start
                0x03028f8c       0xf8 libmc300.a(mc300_main.o)
                0x03028f8c                hfwifi_ap_start
 .text          0x03029084        0x0 libmc300.a(hfsniffer.o)
 .text.hfsniffer_is_run
                0x03029084       0x1c libmc300.a(hfsniffer.o)
                0x03029084                hfsniffer_is_run
 .text.hfsniffer_start
                0x030290a0       0xa0 libmc300.a(hfsniffer.o)
                0x030290a0                hfsniffer_start
 .text.hfsniffer_stop
                0x03029140        0xc libmc300.a(hfsniffer.o)
                0x03029140                hfsniffer_stop
 .text.hfsniffer_set_filter
                0x0302914c       0x1c libmc300.a(hfsniffer.o)
                0x0302914c                hfsniffer_set_filter
 .text.hfsniffer_set_channel
                0x03029168       0x38 libmc300.a(hfsniffer.o)
                0x03029168                hfsniffer_set_channel
 .text          0x030291a0        0x0 libmc300.a(socket_b.o)
 .text.process_thread_socketb_thread
                0x030291a0      0x2cc libmc300.a(socket_b.o)
 .text.process_socketb_tcp
                0x0302946c      0x10c libmc300.a(socket_b.o)
                0x0302946c                process_socketb_tcp
 .text.process_thread_socketb_tcp_thread
                0x03029578      0x350 libmc300.a(socket_b.o)
 .text.process_socketb_udp
                0x030298c8       0xa8 libmc300.a(socket_b.o)
                0x030298c8                process_socketb_udp
 .text.process_thread_socketb_udp_thread
                0x03029970      0x194 libmc300.a(socket_b.o)
 .text.hfnet_socketb_fd
                0x03029b04       0x10 libmc300.a(socket_b.o)
                0x03029b04                hfnet_socketb_fd
 .text.socketb_is_started
                0x03029b14       0x10 libmc300.a(socket_b.o)
                0x03029b14                socketb_is_started
 .text.start_socketb
                0x03029b24       0x64 libmc300.a(socket_b.o)
                0x03029b24                start_socketb
 .text.socketb_tcp_disconnect
                0x03029b88       0x4c libmc300.a(socket_b.o)
                0x03029b88                socketb_tcp_disconnect
 .text.socketb_tcp_connect
                0x03029bd4       0x48 libmc300.a(socket_b.o)
                0x03029bd4                socketb_tcp_connect
 .text.socketb_send
                0x03029c1c       0xb4 libmc300.a(socket_b.o)
                0x03029c1c                socketb_send
 .text          0x03029cd0        0x0 libmc300.a(socket_a.o)
 .text.socketa_tcp_server_remove_client
                0x03029cd0       0xd0 libmc300.a(socket_a.o)
 .text.process_thread_socketa_tcpserver_process
                0x03029da0      0x3c0 libmc300.a(socket_a.o)
 .text.start_socketa
                0x0302a160       0xcc libmc300.a(socket_a.o)
                0x0302a160                start_socketa
 .text.socketa_send
                0x0302a22c      0x10c libmc300.a(socket_a.o)
                0x0302a22c                socketa_send
 .text          0x0302a338        0x0 libmc300.a(at_socket_cmd.o)
 .text.hf_atcmd_recvb
                0x0302a338        0x8 libmc300.a(at_socket_cmd.o)
 .text.hf_atcmd_sndb
                0x0302a340        0x8 libmc300.a(at_socket_cmd.o)
 .text.hf_atcmd_maxsk
                0x0302a348       0x64 libmc300.a(at_socket_cmd.o)
 .text.hf_atcmd_tcpto
                0x0302a3ac       0x70 libmc300.a(at_socket_cmd.o)
 .text.hf_atcmd_tcptob
                0x0302a41c       0x70 libmc300.a(at_socket_cmd.o)
 .text.hf_atcmd_tcplk
                0x0302a48c       0x90 libmc300.a(at_socket_cmd.o)
 .text.hf_atcmd_tcplkb
                0x0302a51c       0x44 libmc300.a(at_socket_cmd.o)
 .text.hf_atcmd_netp
                0x0302a560      0x144 libmc300.a(at_socket_cmd.o)
 .text.hf_atcmd_tcpdis
                0x0302a6a4       0xac libmc300.a(at_socket_cmd.o)
 .text.hf_atcmd_tcpdisb
                0x0302a750       0x90 libmc300.a(at_socket_cmd.o)
 .text.hf_atcmd_sockb
                0x0302a7e0      0x178 libmc300.a(at_socket_cmd.o)
 .text          0x0302a958        0x0 libmc300.a(socket_a_client)
 .text.process_thread_socketa_client_thread
                0x0302a958      0x2d4 libmc300.a(socket_a_client)
 .text.process_socketa_client_tcp
                0x0302ac2c      0x12c libmc300.a(socket_a_client)
                0x0302ac2c                process_socketa_client_tcp
 .text.process_thread_socketa_tcp_client_thread
                0x0302ad58      0x3b0 libmc300.a(socket_a_client)
 .text.process_socketa_udp
                0x0302b108       0x9c libmc300.a(socket_a_client)
                0x0302b108                process_socketa_udp
 .text.process_thread_socketa_udp_thread
                0x0302b1a4      0x1bc libmc300.a(socket_a_client)
 .text.start_socketa_client
                0x0302b360       0x40 libmc300.a(socket_a_client)
                0x0302b360                start_socketa_client
 .text.socketa_tcp_client_disconnect
                0x0302b3a0       0x50 libmc300.a(socket_a_client)
                0x0302b3a0                socketa_tcp_client_disconnect
 .text.socketa_tcp_client_connect
                0x0302b3f0       0x50 libmc300.a(socket_a_client)
                0x0302b3f0                socketa_tcp_client_connect
 .text          0x0302b440        0x0 libmc300.a(atcmd.o)
 .text.process_thread_rf_event_process
                0x0302b440      0x17c libmc300.a(atcmd.o)
 .text.process_thread_poll_tx_process
                0x0302b5bc       0x6c libmc300.a(atcmd.o)
 .text.allocate_buffer_in
                0x0302b628       0x40 libmc300.a(atcmd.o)
                0x0302b628                allocate_buffer_in
 .text.release_buffer_in
                0x0302b668       0x30 libmc300.a(atcmd.o)
                0x0302b668                release_buffer_in
 .text.allocate_buffer_out
                0x0302b698       0x40 libmc300.a(atcmd.o)
                0x0302b698                allocate_buffer_out
 .text.release_buffer_out
                0x0302b6d8       0x30 libmc300.a(atcmd.o)
                0x0302b6d8                release_buffer_out
 .text.parseBuff2Param
                0x0302b708       0x94 libmc300.a(atcmd.o)
                0x0302b708                parseBuff2Param
 .text.At_EnableSmartReboot
                0x0302b79c       0xa0 libmc300.a(atcmd.o)
                0x0302b79c                At_EnableSmartReboot
 .text.At_EnableSmartMode
                0x0302b83c       0x8c libmc300.a(atcmd.o)
                0x0302b83c                At_EnableSmartMode
 .text.showDataRate
                0x0302b8c8       0x1c libmc300.a(atcmd.o)
                0x0302b8c8                showDataRate
 .text.securityString
                0x0302b8e4       0x1c libmc300.a(atcmd.o)
                0x0302b8e4                securityString
 .text.securitySubString
                0x0302b900       0x1c libmc300.a(atcmd.o)
                0x0302b900                securitySubString
 .text.At_Reboot
                0x0302b91c       0x1c libmc300.a(atcmd.o)
                0x0302b91c                At_Reboot
 .text.At_WatchDOG_Start
                0x0302b938       0x38 libmc300.a(atcmd.o)
                0x0302b938                At_WatchDOG_Start
 .text.At_WatchDOG_Stop
                0x0302b970       0x38 libmc300.a(atcmd.o)
                0x0302b970                At_WatchDOG_Stop
 .text.At_ProcessQueKill
                0x0302b9a8       0x60 libmc300.a(atcmd.o)
                0x0302b9a8                At_ProcessQueKill
 .text.At_ProcessKill
                0x0302ba08       0x60 libmc300.a(atcmd.o)
                0x0302ba08                At_ProcessKill
 .text.At_ProcessAllQueDump
                0x0302ba68       0x34 libmc300.a(atcmd.o)
                0x0302ba68                At_ProcessAllQueDump
 .text.At_ProcessAllDump
                0x0302ba9c       0x34 libmc300.a(atcmd.o)
                0x0302ba9c                At_ProcessAllDump
 .text.At_ShowNtpTime
                0x0302bad0       0x20 libmc300.a(atcmd.o)
                0x0302bad0                At_ShowNtpTime
 .text.At_ShowAllAP
                0x0302baf0      0x154 libmc300.a(atcmd.o)
                0x0302baf0                At_ShowAllAP
 .text.At_ShowConnectAP
                0x0302bc44      0x1e0 libmc300.a(atcmd.o)
                0x0302bc44                At_ShowConnectAP
 .text.At_SetGpio
                0x0302be24      0x10c libmc300.a(atcmd.o)
                0x0302be24                At_SetGpio
 .text.At_WriteGpio
                0x0302bf30       0xec libmc300.a(atcmd.o)
                0x0302bf30                At_WriteGpio
 .text.At_ReadGpio
                0x0302c01c       0xdc libmc300.a(atcmd.o)
                0x0302c01c                At_ReadGpio
 .text.At_SetPWM
                0x0302c0f8       0xf4 libmc300.a(atcmd.o)
                0x0302c0f8                At_SetPWM
 .text.AT_SetDebugInfo
                0x0302c1ec       0xf0 libmc300.a(atcmd.o)
                0x0302c1ec                AT_SetDebugInfo
 .text.At_ParserRecv
                0x0302c2dc       0x4c libmc300.a(atcmd.o)
                0x0302c2dc                At_ParserRecv
 .text.At_TCPChange_Timeout
                0x0302c328       0x98 libmc300.a(atcmd.o)
                0x0302c328                At_TCPChange_Timeout
 .text.At_SET_AP_SSID
                0x0302c3c0       0x60 libmc300.a(atcmd.o)
                0x0302c3c0                At_SET_AP_SSID
 .text.At_SET_AUTO_CONNECT
                0x0302c420       0x80 libmc300.a(atcmd.o)
                0x0302c420                At_SET_AUTO_CONNECT
 .text.At_SAVE_CONFIG
                0x0302c4a0       0x3c libmc300.a(atcmd.o)
                0x0302c4a0                At_SAVE_CONFIG
 .text.At_Clean_Lists
                0x0302c4dc       0x20 libmc300.a(atcmd.o)
                0x0302c4dc                At_Clean_Lists
 .text.At_AP    0x0302c4fc       0x24 libmc300.a(atcmd.o)
                0x0302c4fc                At_AP
 .text.At_DBG_LEASETIME
                0x0302c520       0x50 libmc300.a(atcmd.o)
                0x0302c520                At_DBG_LEASETIME
 .text.At_SET_APCONFIG
                0x0302c570      0x280 libmc300.a(atcmd.o)
                0x0302c570                At_SET_APCONFIG
 .text.At_AP_EXIT
                0x0302c7f0       0x24 libmc300.a(atcmd.o)
                0x0302c7f0                At_AP_EXIT
 .text.At_TestFlashErase
                0x0302c814       0xc8 libmc300.a(atcmd.o)
                0x0302c814                At_TestFlashErase
 .text.At_TestFlashWrite
                0x0302c8dc       0xb8 libmc300.a(atcmd.o)
                0x0302c8dc                At_TestFlashWrite
 .text.At_BenchFlashRead
                0x0302c994      0x10c libmc300.a(atcmd.o)
                0x0302c994                At_BenchFlashRead
 .text.At_BenchFlashWrite
                0x0302caa0      0x114 libmc300.a(atcmd.o)
                0x0302caa0                At_BenchFlashWrite
 .text.At_TestFlashRead
                0x0302cbb4       0xa4 libmc300.a(atcmd.o)
                0x0302cbb4                At_TestFlashRead
 .text.At_Parser
                0x0302cc58      0xa98 libmc300.a(atcmd.o)
                0x0302cc58                At_Parser
 .text          0x0302d6f0        0x0 libmc300.a(dhcp_process.o)
 .text.process_thread_dhcp_process
                0x0302d6f0      0x150 libmc300.a(dhcp_process.o)
 .text.replyAck
                0x0302d840        0x4 libmc300.a(dhcp_process.o)
                0x0302d840                replyAck
 .text.set_node_ip
                0x0302d844       0xa4 libmc300.a(dhcp_process.o)
                0x0302d844                set_node_ip
 .text.ip_configure
                0x0302d8e8       0x10 libmc300.a(dhcp_process.o)
                0x0302d8e8                ip_configure
 .text.dhcp_configure
                0x0302d8f8       0xbc libmc300.a(dhcp_process.o)
                0x0302d8f8                dhcp_configure
 .text          0x0302d9b4        0x0 libmc300.a(dhcpc.o)
 .text.create_msg
                0x0302d9b4       0xfc libmc300.a(dhcpc.o)
 .text.msg_for_me
                0x0302dab0      0x108 libmc300.a(dhcpc.o)
 .text.send_request
                0x0302dbb8      0x108 libmc300.a(dhcpc.o)
 .text.parse_msg
                0x0302dcc0      0x19c libmc300.a(dhcpc.o)
 .text.send_discover
                0x0302de5c       0xec libmc300.a(dhcpc.o)
 .text.getDhcpState
                0x0302df48       0x10 libmc300.a(dhcpc.o)
                0x0302df48                getDhcpState
 .text.dhcpc_configured
                0x0302df58      0x144 libmc300.a(dhcpc.o)
                0x0302df58                dhcpc_configured
 .text.handle_dhcp.isra.0
                0x0302e09c      0x7b0 libmc300.a(dhcpc.o)
 .text.dhcpc_unconfigured
                0x0302e84c        0xc libmc300.a(dhcpc.o)
                0x0302e84c                dhcpc_unconfigured
 .text.dhcpc_init
                0x0302e858      0x12c libmc300.a(dhcpc.o)
                0x0302e858                dhcpc_init
 .text.dhcpc_appcall
                0x0302e984       0x18 libmc300.a(dhcpc.o)
                0x0302e984                dhcpc_appcall
 .text.dhcpc_request
                0x0302e99c       0xd0 libmc300.a(dhcpc.o)
                0x0302e99c                dhcpc_request
 .text          0x0302ea6c        0x0 libmc300.a(dhcps.o)
 .text.unlikely.find_option
                0x0302ea6c       0x60 libmc300.a(dhcps.o)
 .text.unlikely.find_free_lease
                0x0302eacc       0x40 libmc300.a(dhcps.o)
 .text.create_msg
                0x0302eb0c       0x8c libmc300.a(dhcps.o)
 .text.add_lease_time
                0x0302eb98       0x68 libmc300.a(dhcps.o)
 .text.add_config
                0x0302ec00       0xa8 libmc300.a(dhcps.o)
 .text.unlikely.lookup_lease_ip
                0x0302eca8      0x170 libmc300.a(dhcps.o)
 .text.get_leased_mac
                0x0302ee18      0x248 libmc300.a(dhcps.o)
 .text.send_nack
                0x0302f060       0x98 libmc300.a(dhcps.o)
 .text.dhcp_dump_info
                0x0302f0f8        0x4 libmc300.a(dhcps.o)
                0x0302f0f8                dhcp_dump_info
 .text.init_lease
                0x0302f0fc       0x20 libmc300.a(dhcps.o)
                0x0302f0fc                init_lease
 .text.process_thread_dhcp_server_process
                0x0302f11c      0xb3c libmc300.a(dhcps.o)
 .text.release_address_by_mac
                0x0302fc58       0xc4 libmc300.a(dhcps.o)
                0x0302fc58                release_address_by_mac
 .text.dhcps_init
                0x0302fd1c       0x7c libmc300.a(dhcps.o)
                0x0302fd1c                dhcps_init
 .text.dhcps_exit
                0x0302fd98        0xc libmc300.a(dhcps.o)
                0x0302fd98                dhcps_exit
 .text          0x0302fda4        0x0 libmc300.a(resolv.o)
 .text.skip_name
                0x0302fda4       0x98 libmc300.a(resolv.o)
 .text.process_thread_resolv_process
                0x0302fe3c      0x8a8 libmc300.a(resolv.o)
 .text.resolv_query
                0x030306e4      0x170 libmc300.a(resolv.o)
                0x030306e4                resolv_query
 .text.resolv_lookup
                0x03030854      0x19c libmc300.a(resolv.o)
                0x03030854                resolv_lookup
 .text.resolv_getserver
                0x030309f0        0xc libmc300.a(resolv.o)
                0x030309f0                resolv_getserver
 .text.resolv_conf
                0x030309fc       0x1c libmc300.a(resolv.o)
                0x030309fc                resolv_conf
 .text.resolv_conf_second_dns
                0x03030a18       0x1c libmc300.a(resolv.o)
                0x03030a18                resolv_conf_second_dns
 .text          0x03030a34        0x0 libmc300.a(ringbuf.o)
 .text.ringbuf_init
                0x03030a34       0x28 libmc300.a(ringbuf.o)
                0x03030a34                ringbuf_init
 .text.ringbuf_put
                0x03030a5c       0x8c libmc300.a(ringbuf.o)
                0x03030a5c                ringbuf_put
 .text.ringbuf_get
                0x03030ae8       0x70 libmc300.a(ringbuf.o)
                0x03030ae8                ringbuf_get
 .text.ringbuf_size
                0x03030b58       0x10 libmc300.a(ringbuf.o)
                0x03030b58                ringbuf_size
 .text          0x03030b68        0x0 libmc300.a(simple-udp.o)
 .text.process_thread_simple_udp_process
                0x03030b68      0x14c libmc300.a(simple-udp.o)
 .text.simple_udp_send
                0x03030cb4       0x48 libmc300.a(simple-udp.o)
                0x03030cb4                simple_udp_send
 .text.simple_udp_sendto
                0x03030cfc       0x44 libmc300.a(simple-udp.o)
                0x03030cfc                simple_udp_sendto
 .text.simple_udp_sendto_port
                0x03030d40       0x40 libmc300.a(simple-udp.o)
                0x03030d40                simple_udp_sendto_port
 .text.simple_udp_register
                0x03030d80       0xcc libmc300.a(simple-udp.o)
                0x03030d80                simple_udp_register
 .text          0x03030e4c        0x0 libmc300.a(soft_ap_init.o)
 .text.softap_combine_ssid_mac
                0x03030e4c       0x5c libmc300.a(soft_ap_init.o)
                0x03030e4c                softap_combine_ssid_mac
 .text.softap_dump_dhcp_setting
                0x03030ea8       0x98 libmc300.a(soft_ap_init.o)
                0x03030ea8                softap_dump_dhcp_setting
 .text.softap_dhcp_init
                0x03030f40      0x16c libmc300.a(soft_ap_init.o)
                0x03030f40                softap_dhcp_init
 .text.softap_init_ex
                0x030310ac       0xf8 libmc300.a(soft_ap_init.o)
                0x030310ac                softap_init_ex
 .text.softap_init_ex2
                0x030311a4       0x74 libmc300.a(soft_ap_init.o)
                0x030311a4                softap_init_ex2
 .text.softap_init
                0x03031218       0x8c libmc300.a(soft_ap_init.o)
                0x03031218                softap_init
 .text          0x030312a4        0x0 libmc300.a(uip-udp-packet.)
 .text          0x030312a4        0x0 libmc300.a(uip_arp.o)
 .text.send_arp_request
                0x030312a4       0xf0 libmc300.a(uip_arp.o)
 .text.process_thread_get_gatewaymac_process
                0x03031394       0xcc libmc300.a(uip_arp.o)
 .text.uip_arp_print
                0x03031460       0x80 libmc300.a(uip_arp.o)
                0x03031460                uip_arp_print
 .text.uip_arp_delete
                0x030314e0       0xac libmc300.a(uip_arp.o)
                0x030314e0                uip_arp_delete
 .text.uip_arp_init
                0x0303158c       0x84 libmc300.a(uip_arp.o)
                0x0303158c                uip_arp_init
 .text.uip_arp_timer
                0x03031610       0x84 libmc300.a(uip_arp.o)
                0x03031610                uip_arp_timer
 .text.process_thread_arptable_polling_process
                0x03031694       0x94 libmc300.a(uip_arp.o)
 .text.uip_arp_update
                0x03031728      0x204 libmc300.a(uip_arp.o)
                0x03031728                uip_arp_update
 .text.uip_arp_softap_init
                0x0303192c       0x40 libmc300.a(uip_arp.o)
                0x0303192c                uip_arp_softap_init
 .text.check_ip_in_arptable
                0x0303196c       0x4c libmc300.a(uip_arp.o)
                0x0303196c                check_ip_in_arptable
 .text.send_needip_arp_request
                0x030319b8       0x10 libmc300.a(uip_arp.o)
                0x030319b8                send_needip_arp_request
 .text.uip_arp_ready
                0x030319c8       0xc8 libmc300.a(uip_arp.o)
                0x030319c8                uip_arp_ready
 .text          0x03031a90        0x0 libmc300.a(uip_igmp.o)
 .text.igmp_report
                0x03031a90      0x130 libmc300.a(uip_igmp.o)
                0x03031a90                igmp_report
 .text.igmp_in  0x03031bc0       0x98 libmc300.a(uip_igmp.o)
                0x03031bc0                igmp_in
 .text          0x03031c58        0x0 libmc300.a(uiplib.o)
 .text.uiplib_ip4addrconv
                0x03031c58       0xa4 libmc300.a(uiplib.o)
                0x03031c58                uiplib_ip4addrconv
 .text          0x03031cfc        0x0 libmc300.a(arc4.o)
 .text          0x03031cfc        0x0 libmc300.a(wep.o)
 .text.crc32_le.constprop.0
                0x03031cfc       0x50 libmc300.a(wep.o)
 .text.getAuthChallengeTextLen
                0x03031d4c       0x10 libmc300.a(wep.o)
                0x03031d4c                getAuthChallengeTextLen
 .text.getAuthAlgNum
                0x03031d5c       0x10 libmc300.a(wep.o)
                0x03031d5c                getAuthAlgNum
 .text.getAuthSeqNum
                0x03031d6c       0x10 libmc300.a(wep.o)
                0x03031d6c                getAuthSeqNum
 .text.getAuthStatus
                0x03031d7c       0x10 libmc300.a(wep.o)
                0x03031d7c                getAuthStatus
 .text.SetAuthChallengeText
                0x03031d8c       0x30 libmc300.a(wep.o)
                0x03031d8c                SetAuthChallengeText
 .text.SetAuthChallengeTextLen
                0x03031dbc       0x18 libmc300.a(wep.o)
                0x03031dbc                SetAuthChallengeTextLen
 .text.SetAuthAlgNum
                0x03031dd4       0x10 libmc300.a(wep.o)
                0x03031dd4                SetAuthAlgNum
 .text.setAuthSeqNum
                0x03031de4       0x10 libmc300.a(wep.o)
                0x03031de4                setAuthSeqNum
 .text.setAuthStatus
                0x03031df4       0x10 libmc300.a(wep.o)
                0x03031df4                setAuthStatus
 .text.setKeyAndIV
                0x03031e04       0x48 libmc300.a(wep.o)
                0x03031e04                setKeyAndIV
 .text.saveAftEncData
                0x03031e4c       0x84 libmc300.a(wep.o)
                0x03031e4c                saveAftEncData
 .text.setBefEncData
                0x03031ed0       0x84 libmc300.a(wep.o)
                0x03031ed0                setBefEncData
 .text.getEncDecData
                0x03031f54       0xbc libmc300.a(wep.o)
                0x03031f54                getEncDecData
 .text.encDecSrcData
                0x03032010       0xa4 libmc300.a(wep.o)
                0x03032010                encDecSrcData
 .text.initKeyAndIV
                0x030320b4       0x2c libmc300.a(wep.o)
                0x030320b4                initKeyAndIV
 .text.randIV   0x030320e0       0x3c libmc300.a(wep.o)
                0x030320e0                randIV
 .text.install_wepkey
                0x0303211c       0x28 libmc300.a(wep.o)
                0x0303211c                install_wepkey
 .text.savePassToTotalKey
                0x03032144      0x1a8 libmc300.a(wep.o)
                0x03032144                savePassToTotalKey
 .text.initWEP  0x030322ec       0x80 libmc300.a(wep.o)
                0x030322ec                initWEP
 .text.clearParaWithWEP
                0x0303236c       0x24 libmc300.a(wep.o)
                0x0303236c                clearParaWithWEP
 .text          0x03032390        0x0 libmc300.a(autostart.o)
 .text.autostart_start
                0x03032390       0x24 libmc300.a(autostart.o)
                0x03032390                autostart_start
 .text.autostart_exit
                0x030323b4       0x20 libmc300.a(autostart.o)
                0x030323b4                autostart_exit
 .text          0x030323d4        0x0 libmc300.a(random.o)
 .text.random_init
                0x030323d4        0x4 libmc300.a(random.o)
                0x030323d4                random_init
 .text.random_rand
                0x030323d8       0x14 libmc300.a(random.o)
                0x030323d8                random_rand
 .text          0x030323ec        0x0 libmc300.a(airkiss.o)
 .text.clearAirKissBuf
                0x030323ec        0x4 libmc300.a(airkiss.o)
                0x030323ec                clearAirKissBuf
 .text.initAirKiss
                0x030323f0        0x4 libmc300.a(airkiss.o)
                0x030323f0                initAirKiss
 .text          0x030323f4        0x0 libmc300.a(atcmd_icomm.o)
 .text.At_RespOK
                0x030323f4       0x90 libmc300.a(atcmd_icomm.o)
                0x030323f4                At_RespOK
 .text.At_PS    0x03032484        0x8 libmc300.a(atcmd_icomm.o)
                0x03032484                At_PS
 .text.At_GetLocalMac
                0x0303248c       0x4c libmc300.a(atcmd_icomm.o)
                0x0303248c                At_GetLocalMac
 .text.At_GetVersion
                0x030324d8       0x2c libmc300.a(atcmd_icomm.o)
                0x030324d8                At_GetVersion
 .text.At_GetManufactureInfo
                0x03032504       0x2c libmc300.a(atcmd_icomm.o)
                0x03032504                At_GetManufactureInfo
 .text.At_SetWifiConfig
                0x03032530      0x2d4 libmc300.a(atcmd_icomm.o)
                0x03032530                At_SetWifiConfig
 .text.At_GetConfigure
                0x03032804       0xb4 libmc300.a(atcmd_icomm.o)
                0x03032804                At_GetConfigure
 .text.At_SetIfConfigure
                0x030328b8      0x19c libmc300.a(atcmd_icomm.o)
                0x030328b8                At_SetIfConfigure
 .text.At_GetNetStatus
                0x03032a54       0x30 libmc300.a(atcmd_icomm.o)
                0x03032a54                At_GetNetStatus
 .text.At_Ping  0x03032a84       0x80 libmc300.a(atcmd_icomm.o)
                0x03032a84                At_Ping
 .text.At_Help  0x03032b04      0x240 libmc300.a(atcmd_icomm.o)
                0x03032b04                At_Help
 .text.At_GetApStatus
                0x03032d44       0x70 libmc300.a(atcmd_icomm.o)
                0x03032d44                At_GetApStatus
 .text.At_GetSoftapStatus
                0x03032db4      0x1ac libmc300.a(atcmd_icomm.o)
                0x03032db4                At_GetSoftapStatus
 .text.At_GetWifiStatus
                0x03032f60      0x2f8 libmc300.a(atcmd_icomm.o)
                0x03032f60                At_GetWifiStatus
 .text.At_GetMRX
                0x03033258      0x130 libmc300.a(atcmd_icomm.o)
                0x03033258                At_GetMRX
 .text.At_TestMemRead
                0x03033388       0x88 libmc300.a(atcmd_icomm.o)
                0x03033388                At_TestMemRead
 .text.At_MboxDump
                0x03033410       0x14 libmc300.a(atcmd_icomm.o)
                0x03033410                At_MboxDump
 .text.At_PbufDump
                0x03033424       0x10 libmc300.a(atcmd_icomm.o)
                0x03033424                At_PbufDump
 .text.At_WifiReset
                0x03033434       0x10 libmc300.a(atcmd_icomm.o)
                0x03033434                At_WifiReset
 .text.At_GetIPconf
                0x03033444       0x4c libmc300.a(atcmd_icomm.o)
                0x03033444                At_GetIPconf
 .text.At_NetScan
                0x03033490       0x14 libmc300.a(atcmd_icomm.o)
                0x03033490                At_NetScan
 .text.At_NetScan_Custom
                0x030334a4       0xb4 libmc300.a(atcmd_icomm.o)
                0x030334a4                At_NetScan_Custom
 .text.At_Connect
                0x03033558       0x14 libmc300.a(atcmd_icomm.o)
                0x03033558                At_Connect
 .text.At_ReConnect
                0x0303356c       0x14 libmc300.a(atcmd_icomm.o)
                0x0303356c                At_ReConnect
 .text.At_Disconnect
                0x03033580       0x10 libmc300.a(atcmd_icomm.o)
                0x03033580                At_Disconnect
 .text.At_POWERSAVE
                0x03033590       0x34 libmc300.a(atcmd_icomm.o)
                0x03033590                At_POWERSAVE
 .text.At_WriteReg32
                0x030335c4       0xd4 libmc300.a(atcmd_icomm.o)
                0x030335c4                At_WriteReg32
 .text.At_ReadReg32
                0x03033698       0x94 libmc300.a(atcmd_icomm.o)
                0x03033698                At_ReadReg32
 .text.At_DumpReg32
                0x0303372c       0xf0 libmc300.a(atcmd_icomm.o)
                0x0303372c                At_DumpReg32
 .text.At_SetChannel
                0x0303381c       0x9c libmc300.a(atcmd_icomm.o)
                0x0303381c                At_SetChannel
 .text.At_GetRfStatus
                0x030338b8      0x198 libmc300.a(atcmd_icomm.o)
                0x030338b8                At_GetRfStatus
 .text.At_ShowRfCommand
                0x03033a50      0x21c libmc300.a(atcmd_icomm.o)
                0x03033a50                At_ShowRfCommand
 .text.AT_RemoveCfsConf
                0x03033c6c        0x4 libmc300.a(atcmd_icomm.o)
                0x03033c6c                AT_RemoveCfsConf
 .text.At_bmode_count
                0x03033c70       0x44 libmc300.a(atcmd_icomm.o)
                0x03033c70                At_bmode_count
 .text.At_bmode_reset
                0x03033cb4       0x1c libmc300.a(atcmd_icomm.o)
                0x03033cb4                At_bmode_reset
 .text.At_gmode_count
                0x03033cd0       0x48 libmc300.a(atcmd_icomm.o)
                0x03033cd0                At_gmode_count
 .text.At_gmode_reset
                0x03033d18       0x20 libmc300.a(atcmd_icomm.o)
                0x03033d18                At_gmode_reset
 .text.At_filter_reset
                0x03033d38      0x1f0 libmc300.a(atcmd_icomm.o)
                0x03033d38                At_filter_reset
 .text.At_filter_count
                0x03033f28       0x5c libmc300.a(atcmd_icomm.o)
                0x03033f28                At_filter_count
 .text.At_set_rateindex
                0x03033f84       0x34 libmc300.a(atcmd_icomm.o)
                0x03033f84                At_set_rateindex
 .text.at_cmd_start
                0x03033fb8       0x1c libmc300.a(atcmd_icomm.o)
                0x03033fb8                at_cmd_start
 .text.at_cmd_exit
                0x03033fd4       0x18 libmc300.a(atcmd_icomm.o)
                0x03033fd4                at_cmd_exit
 .text          0x03033fec        0x0 libmc300.a(bsp_info.o)
 .text.bsp_get_boot_info
                0x03033fec       0xcc libmc300.a(bsp_info.o)
                0x03033fec                bsp_get_boot_info
 .text.get_boot_stack_fence
                0x030340b8       0x3c libmc300.a(bsp_info.o)
                0x030340b8                get_boot_stack_fence
 .text.bsp_get_mp_info
                0x030340f4      0x534 libmc300.a(bsp_info.o)
                0x030340f4                bsp_get_mp_info
 .text.bsp_get_define_info
                0x03034628       0xb8 libmc300.a(bsp_info.o)
                0x03034628                bsp_get_define_info
 .text.bsp_get_config_info
                0x030346e0      0x374 libmc300.a(bsp_info.o)
                0x030346e0                bsp_get_config_info
 .text          0x03034a54        0x0 libmc300.a(cfs-coffee.o)
 .text.load_file
                0x03034a54       0xa8 libmc300.a(cfs-coffee.o)
 .text.read_header
                0x03034afc       0x18 libmc300.a(cfs-coffee.o)
 .text.file_end
                0x03034b14       0x94 libmc300.a(cfs-coffee.o)
 .text.write_header
                0x03034ba8       0x24 libmc300.a(cfs-coffee.o)
 .text.next_file.isra.0
                0x03034bcc       0x2c libmc300.a(cfs-coffee.o)
 .text.find_file
                0x03034bf8       0xec libmc300.a(cfs-coffee.o)
 .text.find_contiguous_pages
                0x03034ce4       0xe4 libmc300.a(cfs-coffee.o)
 .text.remove_by_page.isra.1
                0x03034dc8      0x118 libmc300.a(cfs-coffee.o)
 .text.reserve.constprop.3
                0x03034ee0      0x354 libmc300.a(cfs-coffee.o)
 .text.cfs_open
                0x03035234       0xf0 libmc300.a(cfs-coffee.o)
                0x03035234                cfs_open
 .text.cfs_close
                0x03035324       0x44 libmc300.a(cfs-coffee.o)
                0x03035324                cfs_close
 .text.cfs_seek
                0x03035368       0x94 libmc300.a(cfs-coffee.o)
                0x03035368                cfs_seek
 .text.cfs_remove
                0x030353fc       0x34 libmc300.a(cfs-coffee.o)
                0x030353fc                cfs_remove
 .text.cfs_read
                0x03035430       0x9c libmc300.a(cfs-coffee.o)
                0x03035430                cfs_read
 .text.cfs_write
                0x030354cc      0x28c libmc300.a(cfs-coffee.o)
                0x030354cc                cfs_write
 .text.cfs_opendir
                0x03035758       0x18 libmc300.a(cfs-coffee.o)
                0x03035758                cfs_opendir
 .text.cfs_readdir
                0x03035770       0xe4 libmc300.a(cfs-coffee.o)
                0x03035770                cfs_readdir
 .text.cfs_closedir
                0x03035854        0x4 libmc300.a(cfs-coffee.o)
                0x03035854                cfs_closedir
 .text.cfs_coffee_reserve
                0x03035858       0x2c libmc300.a(cfs-coffee.o)
                0x03035858                cfs_coffee_reserve
 .text.cfs_coffee_configure_log
                0x03035884       0x9c libmc300.a(cfs-coffee.o)
                0x03035884                cfs_coffee_configure_log
 .text.get_cabrio_fs_table_marker
                0x03035920       0x40 libmc300.a(cfs-coffee.o)
                0x03035920                get_cabrio_fs_table_marker
 .text.cfs_dbg_flash_dump_data
                0x03035960        0x4 libmc300.a(cfs-coffee.o)
                0x03035960                cfs_dbg_flash_dump_data
 .text.set_cabrio_fs_table_marker
                0x03035964       0x14 libmc300.a(cfs-coffee.o)
                0x03035964                set_cabrio_fs_table_marker
 .text.cfs_coffee_format
                0x03035978       0x54 libmc300.a(cfs-coffee.o)
                0x03035978                cfs_coffee_format
 .text.cfs_coffee_get_protected_mem
                0x030359cc       0x14 libmc300.a(cfs-coffee.o)
                0x030359cc                cfs_coffee_get_protected_mem
 .text          0x030359e0        0x0 libmc300.a(console.o)
 .text.console_init
                0x030359e0       0x74 libmc300.a(console.o)
                0x030359e0                console_init
 .text          0x03035a54        0x0 libmc300.a(drv_gpio.o)
 .text.drv_gpio_Output
                0x03035a54      0x1e0 libmc300.a(drv_gpio.o)
                0x03035a54                drv_gpio_Output
 .text.drv_gpio_Input
                0x03035c34       0x88 libmc300.a(drv_gpio.o)
                0x03035c34                drv_gpio_Input
 .text.drv_gpio_write
                0x03035cbc       0x40 libmc300.a(drv_gpio.o)
                0x03035cbc                drv_gpio_write
 .text.drv_gpio_set_irq
                0x03035cfc      0x118 libmc300.a(drv_gpio.o)
                0x03035cfc                drv_gpio_set_irq
 .text.drv_gpio_func
                0x03035e14      0x1e8 libmc300.a(drv_gpio.o)
                0x03035e14                drv_gpio_func
 .text          0x03035ffc        0x0 libmc300.a(gpio_api.o)
 .text.pinMode  0x03035ffc       0x44 libmc300.a(gpio_api.o)
                0x03035ffc                pinMode
 .text.digitalWrite
                0x03036040       0x10 libmc300.a(gpio_api.o)
                0x03036040                digitalWrite
 .text.digitalRead
                0x03036050        0x4 libmc300.a(gpio_api.o)
                0x03036050                digitalRead
 .text.gpio_irq_enable
                0x03036054       0x40 libmc300.a(gpio_api.o)
                0x03036054                gpio_irq_enable
 .text.gpio_irq_disable
                0x03036094       0x10 libmc300.a(gpio_api.o)
                0x03036094                gpio_irq_disable
 .text          0x030360a4        0x0 libmc300.a(drv_pmu.o)
 .text.drv_pmu_setwake_cnt
                0x030360a4       0x44 libmc300.a(drv_pmu.o)
                0x030360a4                drv_pmu_setwake_cnt
 .text.drv_pmu_tu0
                0x030360e8       0x60 libmc300.a(drv_pmu.o)
                0x030360e8                drv_pmu_tu0
 .text.drv_pmu_tm0
                0x03036148       0x60 libmc300.a(drv_pmu.o)
                0x03036148                drv_pmu_tm0
 .text.drv_pmu_sleep
                0x030361a8      0x234 libmc300.a(drv_pmu.o)
                0x030361a8                drv_pmu_sleep
 .text.drv_pmu_init
                0x030363dc       0x40 libmc300.a(drv_pmu.o)
                0x030363dc                drv_pmu_init
 .text.drv_pmu_chk
                0x0303641c       0x18 libmc300.a(drv_pmu.o)
                0x0303641c                drv_pmu_chk
 .text.drv_pmu_check_interupt_event
                0x03036434       0x20 libmc300.a(drv_pmu.o)
                0x03036434                drv_pmu_check_interupt_event
 .text          0x03036454        0x0 libmc300.a(pwm_api.o)
 .text.enableHwPWM_sip
                0x03036454       0x3c libmc300.a(pwm_api.o)
                0x03036454                enableHwPWM_sip
 .text.enableHwPWM
                0x03036490        0xc libmc300.a(pwm_api.o)
                0x03036490                enableHwPWM
 .text.disableHwPWM_sip
                0x0303649c       0x18 libmc300.a(pwm_api.o)
                0x0303649c                disableHwPWM_sip
 .text.disableHwPWM
                0x030364b4        0x8 libmc300.a(pwm_api.o)
                0x030364b4                disableHwPWM
 .text          0x030364bc        0x0 libmc300.a(serial_api.o)
 .text.SerialInit
                0x030364bc       0x48 libmc300.a(serial_api.o)
                0x030364bc                SerialInit
 .text.SerialConfig
                0x03036504        0xc libmc300.a(serial_api.o)
                0x03036504                SerialConfig
 .text.SerialDeinit
                0x03036510       0x38 libmc300.a(serial_api.o)
                0x03036510                SerialDeinit
 .text          0x03036548        0x0 libmc300.a(drv_wdog.o)
 .text.drv_wdog_reboot
                0x03036548       0x48 libmc300.a(drv_wdog.o)
                0x03036548                drv_wdog_reboot
 .text.drv_wdog_period_5000ms
                0x03036590       0x50 libmc300.a(drv_wdog.o)
                0x03036590                drv_wdog_period_5000ms
 .text.drv_wdog_period_10000ms
                0x030365e0       0x50 libmc300.a(drv_wdog.o)
                0x030365e0                drv_wdog_period_10000ms
 .text.drv_wdog_period_cutommed
                0x03036630       0x48 libmc300.a(drv_wdog.o)
                0x03036630                drv_wdog_period_cutommed
 .text.drv_wdog_stop
                0x03036678       0x40 libmc300.a(drv_wdog.o)
                0x03036678                drv_wdog_stop
 .text          0x030366b8        0x0 libmc300.a(fence.o)
 .text.do_fence
                0x030366b8       0x1c libmc300.a(fence.o)
                0x030366b8                do_fence
 .text.fence_init
                0x030366d4       0x28 libmc300.a(fence.o)
                0x030366d4                fence_init
 .text          0x030366fc        0x0 libmc300.a(smartComm.o)
 .text.set_slink_ready_ack
                0x030366fc       0x10 libmc300.a(smartComm.o)
                0x030366fc                set_slink_ready_ack
 .text.enableSmartHwFilter
                0x0303670c      0x220 libmc300.a(smartComm.o)
                0x0303670c                enableSmartHwFilter
 .text.disableSmartHwFilter
                0x0303692c      0x248 libmc300.a(smartComm.o)
                0x0303692c                disableSmartHwFilter
 .text.setSmartCmdStatus
                0x03036b74       0x1c libmc300.a(smartComm.o)
                0x03036b74                setSmartCmdStatus
 .text.disableSendToPhone
                0x03036b90       0x14 libmc300.a(smartComm.o)
                0x03036b90                disableSendToPhone
 .text.getSendToPhoneStatus
                0x03036ba4       0x10 libmc300.a(smartComm.o)
                0x03036ba4                getSendToPhoneStatus
 .text.enableSendToPhoneData
                0x03036bb4       0x14 libmc300.a(smartComm.o)
                0x03036bb4                enableSendToPhoneData
 .text.disableSendToPhoneData
                0x03036bc8       0x14 libmc300.a(smartComm.o)
                0x03036bc8                disableSendToPhoneData
 .text.setSmartPhoneIP
                0x03036bdc       0x18 libmc300.a(smartComm.o)
                0x03036bdc                setSmartPhoneIP
 .text.getPhoneMac
                0x03036bf4       0x10 libmc300.a(smartComm.o)
                0x03036bf4                getPhoneMac
 .text.setPhoneMAC
                0x03036c04       0x18 libmc300.a(smartComm.o)
                0x03036c04                setPhoneMAC
 .text.setPhoneData
                0x03036c1c       0x20 libmc300.a(smartComm.o)
                0x03036c1c                setPhoneData
 .text.sendMessageToPhone
                0x03036c3c       0x14 libmc300.a(smartComm.o)
                0x03036c3c                sendMessageToPhone
 .text.process_thread_smart_conf_ack
                0x03036c50       0x64 libmc300.a(smartComm.o)
 .text.smartSetIfconfigAndConnect
                0x03036cb4       0x38 libmc300.a(smartComm.o)
                0x03036cb4                smartSetIfconfigAndConnect
 .text.checkAndSetAPMac
                0x03036cec      0x130 libmc300.a(smartComm.o)
                0x03036cec                checkAndSetAPMac
 .text          0x03036e1c        0x0 libmc300.a(smartConf.o)
 .text.clearSmartLinkBuf
                0x03036e1c        0x4 libmc300.a(smartConf.o)
                0x03036e1c                clearSmartLinkBuf
 .text.rx_process_smartConf
                0x03036e20        0x4 libmc300.a(smartConf.o)
                0x03036e20                rx_process_smartConf
 .text.initSmartLink
                0x03036e24        0x4 libmc300.a(smartConf.o)
                0x03036e24                initSmartLink
 .text          0x03036e28        0x0 libmc300.a(ssv_lib_slow.o)
 .text.mac_atoi
                0x03036e28       0x44 libmc300.a(ssv_lib_slow.o)
                0x03036e28                mac_atoi
 .text.dbg_dump_reg_pc
                0x03036e6c       0x10 libmc300.a(ssv_lib_slow.o)
                0x03036e6c                dbg_dump_reg_pc
 .text.dbg_dump_reg_sp
                0x03036e7c       0x10 libmc300.a(ssv_lib_slow.o)
                0x03036e7c                dbg_dump_reg_sp
 .text.dbg_dump_reg_cpsr
                0x03036e8c       0xa0 libmc300.a(ssv_lib_slow.o)
                0x03036e8c                dbg_dump_reg_cpsr
 .text.dbg_dump_binary
                0x03036f2c       0x78 libmc300.a(ssv_lib_slow.o)
                0x03036f2c                dbg_dump_binary
 .text.dbg_dump_mac
                0x03036fa4       0x48 libmc300.a(ssv_lib_slow.o)
                0x03036fa4                dbg_dump_mac
 .text.dbg_dump_ip
                0x03036fec       0x38 libmc300.a(ssv_lib_slow.o)
                0x03036fec                dbg_dump_ip
 .text          0x03037024        0x0 libmc300.a(userSmart.o)
 .text.SET_FILTER_TABLE0
                0x03037024       0x68 libmc300.a(userSmart.o)
                0x03037024                SET_FILTER_TABLE0
 .text.SET_FILTER_TABLE1
                0x0303708c       0x88 libmc300.a(userSmart.o)
                0x0303708c                SET_FILTER_TABLE1
 .text.SET_FILTER_TABLE2
                0x03037114       0xa0 libmc300.a(userSmart.o)
                0x03037114                SET_FILTER_TABLE2
 .text.SET_FILTER_TABLE3
                0x030371b4       0xc4 libmc300.a(userSmart.o)
                0x030371b4                SET_FILTER_TABLE3
 .text.rejectAllFrame
                0x03037278      0x20c libmc300.a(userSmart.o)
                0x03037278                rejectAllFrame
 .text.AutoScanAP
                0x03037484        0x4 libmc300.a(userSmart.o)
                0x03037484                AutoScanAP
 .text.userSmartSetChannel
                0x03037488       0x38 libmc300.a(userSmart.o)
                0x03037488                userSmartSetChannel
 .text.SetUserReceFilter
                0x030374c0       0x48 libmc300.a(userSmart.o)
                0x030374c0                SetUserReceFilter
 .text.EnableUserReceFilter
                0x03037508       0xa4 libmc300.a(userSmart.o)
                0x03037508                EnableUserReceFilter
 .text.DisableUserReceFilter
                0x030375ac       0x3c libmc300.a(userSmart.o)
                0x030375ac                DisableUserReceFilter
 .text.SetCallBackFunction
                0x030375e8       0x10 libmc300.a(userSmart.o)
                0x030375e8                SetCallBackFunction
 .text.EnableCallBackFrame
                0x030375f8       0x38 libmc300.a(userSmart.o)
                0x030375f8                EnableCallBackFrame
 .text.DisableCallBackFrame
                0x03037630       0x18 libmc300.a(userSmart.o)
                0x03037630                DisableCallBackFrame
 .text.EnableUserSmartMode
                0x03037648       0xa8 libmc300.a(userSmart.o)
                0x03037648                EnableUserSmartMode
 .text.DisableUserSmartMode
                0x030376f0      0x11c libmc300.a(userSmart.o)
                0x030376f0                DisableUserSmartMode
 .text          0x0303780c        0x0 libmc300.a(drv_mbox.o)
 .text.drv_mailbox_cpu_pri_ff
                0x0303780c       0x30 libmc300.a(drv_mbox.o)
                0x0303780c                drv_mailbox_cpu_pri_ff
 .text          0x0303783c        0x0 libmc300.a(hash_alg.o)
 .text          0x0303783c        0x0 libmc300.a(hmac_md5.o)
 .text          0x0303783c        0x0 libmc300.a(hmac_sha1.o)
 .text          0x0303783c        0x0 libmc300.a(ieee80211_mac.o)
 .text.off      0x0303783c       0x18 libmc300.a(ieee80211_mac.o)
 .text.channel_check_interval
                0x03037854        0x8 libmc300.a(ieee80211_mac.o)
 .text.init     0x0303785c       0x14 libmc300.a(ieee80211_mac.o)
 .text.on       0x03037870       0x1c libmc300.a(ieee80211_mac.o)
 .text.dump_data
                0x0303788c       0x64 libmc300.a(ieee80211_mac.o)
                0x0303788c                dump_data
 .text.data_decryt
                0x030378f0       0x80 libmc300.a(ieee80211_mac.o)
                0x030378f0                data_decryt
 .text          0x03037970        0x0 libmc300.a(sha1.o)
 .text          0x03037970        0x0 libmc300.a(sys_status_api.)
 .text.get_local_mac
                0x03037970       0x38 libmc300.a(sys_status_api.)
                0x03037970                get_local_mac
 .text.get_connectAP_mac
                0x030379a8       0x38 libmc300.a(sys_status_api.)
                0x030379a8                get_connectAP_mac
 .text.get_wifi_connect_status
                0x030379e0       0x10 libmc300.a(sys_status_api.)
                0x030379e0                get_wifi_connect_status
 .text.get_wifi_connected
                0x030379f0       0x10 libmc300.a(sys_status_api.)
                0x030379f0                get_wifi_connected
 .text.get_softap_sta_connected
                0x03037a00       0x3c libmc300.a(sys_status_api.)
                0x03037a00                get_softap_sta_connected
 .text.set_macfilter
                0x03037a3c       0x10 libmc300.a(sys_status_api.)
                0x03037a3c                set_macfilter
 .text.get_ap_lsit_total_num
                0x03037a4c        0x4 libmc300.a(sys_status_api.)
                0x03037a4c                get_ap_lsit_total_num
 .text.set_nslookup
                0x03037a50        0x4 libmc300.a(sys_status_api.)
                0x03037a50                set_nslookup
 .text.set_slink_ready_and_ack
                0x03037a54        0x4 libmc300.a(sys_status_api.)
                0x03037a54                set_slink_ready_and_ack
 .text          0x03037a58        0x0 libmc300.a(shell-ping.o)
 .text.send_ping
                0x03037a58      0x160 libmc300.a(shell-ping.o)
 .text.process_thread_shell_ping_process
                0x03037bb8      0x108 libmc300.a(shell-ping.o)
 .text.send_gateway_ping
                0x03037cc0        0xc libmc300.a(shell-ping.o)
                0x03037cc0                send_gateway_ping
 .text.ping_start
                0x03037ccc       0x10 libmc300.a(shell-ping.o)
                0x03037ccc                ping_start
 .text          0x03037cdc        0x0 libmc300.a(drv_fence.o)
 .text.hwfence_init
                0x03037cdc       0x1c libmc300.a(drv_fence.o)
                0x03037cdc                hwfence_init
 .text.hwfence_start
                0x03037cf8       0x14 libmc300.a(drv_fence.o)
                0x03037cf8                hwfence_start
 .text          0x03037d0c        0x0 libmc300.a(drv_pwm.o)
 .text.drv_pwm_setduty_sip
                0x03037d0c       0x9c libmc300.a(drv_pwm.o)
                0x03037d0c                drv_pwm_setduty_sip
 .text.drv_pwm_init_sip
                0x03037da8       0xa4 libmc300.a(drv_pwm.o)
                0x03037da8                drv_pwm_init_sip
 .text.drv_pwm_init
                0x03037e4c        0x8 libmc300.a(drv_pwm.o)
                0x03037e4c                drv_pwm_init
 .text.drv_pwm_setduty
                0x03037e54        0xc libmc300.a(drv_pwm.o)
                0x03037e54                drv_pwm_setduty
 .text.drv_pwm_enable_sip
                0x03037e60       0x34 libmc300.a(drv_pwm.o)
                0x03037e60                drv_pwm_enable_sip
 .text.drv_pwm_enable
                0x03037e94        0x8 libmc300.a(drv_pwm.o)
                0x03037e94                drv_pwm_enable
 .text.drv_pwm_deinit_sip
                0x03037e9c       0x80 libmc300.a(drv_pwm.o)
                0x03037e9c                drv_pwm_deinit_sip
 .text.drv_pwm_deinit
                0x03037f1c        0x8 libmc300.a(drv_pwm.o)
                0x03037f1c                drv_pwm_deinit
 .text.drv_pwm_disable_sip
                0x03037f24       0x34 libmc300.a(drv_pwm.o)
                0x03037f24                drv_pwm_disable_sip
 .text.drv_pwm_disable
                0x03037f58        0x8 libmc300.a(drv_pwm.o)
                0x03037f58                drv_pwm_disable
 .text          0x03037f60        0x0 libmc300.a(EAPOL.o)
 .text.rx_process_wpa
                0x03037f60      0x180 libmc300.a(EAPOL.o)
                0x03037f60                rx_process_wpa
 .text.rx_process_eapol
                0x030380e0      0x1a8 libmc300.a(EAPOL.o)
                0x030380e0                rx_process_eapol
 .text.tx_eapol_start_req
                0x03038288        0x4 libmc300.a(EAPOL.o)
                0x03038288                tx_eapol_start_req
 .text          0x0303828c        0x0 libcjsona.a(cJSON.o)
 .text.cJSON_strcasecmp
                0x0303828c       0xa4 libcjsona.a(cJSON.o)
 .text.parse_hex4
                0x03038330      0x100 libcjsona.a(cJSON.o)
 .text.parse_string
                0x03038430      0x264 libcjsona.a(cJSON.o)
 .text.skip     0x03038694       0x24 libcjsona.a(cJSON.o)
 .text.cJSON_New_Item
                0x030386b8       0x30 libcjsona.a(cJSON.o)
 .text.ensure   0x030386e8       0xbc libcjsona.a(cJSON.o)
 .text.create_reference
                0x030387a4       0x44 libcjsona.a(cJSON.o)
 .text.cJSON_strdup
                0x030387e8       0x3c libcjsona.a(cJSON.o)
 .text.update   0x03038824       0x34 libcjsona.a(cJSON.o)
 .text.print_number
                0x03038858      0x248 libcjsona.a(cJSON.o)
 .text.print_string_ptr
                0x03038aa0      0x25c libcjsona.a(cJSON.o)
 .text.parse_value
                0x03038cfc      0x514 libcjsona.a(cJSON.o)
 .text.print_array.isra.3
                0x03039210      0x314 libcjsona.a(cJSON.o)
 .text.print_value
                0x03039524      0x170 libcjsona.a(cJSON.o)
 .text.print_object.isra.2
                0x03039694      0x5ec libcjsona.a(cJSON.o)
 .text.cJSON_GetErrorPtr
                0x03039c80       0x10 libcjsona.a(cJSON.o)
                0x03039c80                cJSON_GetErrorPtr
 .text.cJSON_InitHooks
                0x03039c90       0x58 libcjsona.a(cJSON.o)
                0x03039c90                cJSON_InitHooks
 .text.cJSON_Delete
                0x03039ce8       0x84 libcjsona.a(cJSON.o)
                0x03039ce8                cJSON_Delete
 .text.cJSON_ParseWithOpts
                0x03039d6c       0x98 libcjsona.a(cJSON.o)
                0x03039d6c                cJSON_ParseWithOpts
 .text.cJSON_Parse
                0x03039e04        0xc libcjsona.a(cJSON.o)
                0x03039e04                cJSON_Parse
 .text.cJSON_Print
                0x03039e10       0x10 libcjsona.a(cJSON.o)
                0x03039e10                cJSON_Print
 .text.cJSON_PrintUnformatted
                0x03039e20       0x10 libcjsona.a(cJSON.o)
                0x03039e20                cJSON_PrintUnformatted
 .text.cJSON_PrintBuffered
                0x03039e30       0x48 libcjsona.a(cJSON.o)
                0x03039e30                cJSON_PrintBuffered
 .text.cJSON_GetArraySize
                0x03039e78       0x1c libcjsona.a(cJSON.o)
                0x03039e78                cJSON_GetArraySize
 .text.cJSON_GetArrayItem
                0x03039e94       0x1c libcjsona.a(cJSON.o)
                0x03039e94                cJSON_GetArrayItem
 .text.cJSON_GetObjectItem
                0x03039eb0       0x34 libcjsona.a(cJSON.o)
                0x03039eb0                cJSON_GetObjectItem
 .text.cJSON_AddItemToArray
                0x03039ee4       0x34 libcjsona.a(cJSON.o)
                0x03039ee4                cJSON_AddItemToArray
 .text.cJSON_AddItemToObject
                0x03039f18       0x48 libcjsona.a(cJSON.o)
                0x03039f18                cJSON_AddItemToObject
 .text.cJSON_AddItemToObjectCS
                0x03039f60       0x58 libcjsona.a(cJSON.o)
                0x03039f60                cJSON_AddItemToObjectCS
 .text.cJSON_AddItemReferenceToArray
                0x03039fb8       0x20 libcjsona.a(cJSON.o)
                0x03039fb8                cJSON_AddItemReferenceToArray
 .text.cJSON_AddItemReferenceToObject
                0x03039fd8       0x28 libcjsona.a(cJSON.o)
                0x03039fd8                cJSON_AddItemReferenceToObject
 .text.cJSON_DetachItemFromArray
                0x0303a000       0x5c libcjsona.a(cJSON.o)
                0x0303a000                cJSON_DetachItemFromArray
 .text.cJSON_DeleteItemFromArray
                0x0303a05c       0x10 libcjsona.a(cJSON.o)
                0x0303a05c                cJSON_DeleteItemFromArray
 .text.cJSON_DetachItemFromObject
                0x0303a06c       0x50 libcjsona.a(cJSON.o)
                0x0303a06c                cJSON_DetachItemFromObject
 .text.cJSON_DeleteItemFromObject
                0x0303a0bc       0x10 libcjsona.a(cJSON.o)
                0x0303a0bc                cJSON_DeleteItemFromObject
 .text.cJSON_InsertItemInArray
                0x0303a0cc       0x4c libcjsona.a(cJSON.o)
                0x0303a0cc                cJSON_InsertItemInArray
 .text.cJSON_ReplaceItemInArray
                0x0303a118       0x68 libcjsona.a(cJSON.o)
                0x0303a118                cJSON_ReplaceItemInArray
 .text.cJSON_ReplaceItemInObject
                0x0303a180       0x5c libcjsona.a(cJSON.o)
                0x0303a180                cJSON_ReplaceItemInObject
 .text.cJSON_CreateNull
                0x0303a1dc       0x18 libcjsona.a(cJSON.o)
                0x0303a1dc                cJSON_CreateNull
 .text.cJSON_CreateTrue
                0x0303a1f4       0x18 libcjsona.a(cJSON.o)
                0x0303a1f4                cJSON_CreateTrue
 .text.cJSON_CreateFalse
                0x0303a20c       0x18 libcjsona.a(cJSON.o)
                0x0303a20c                cJSON_CreateFalse
 .text.cJSON_CreateBool
                0x0303a224       0x24 libcjsona.a(cJSON.o)
                0x0303a224                cJSON_CreateBool
 .text.cJSON_CreateNumber
                0x0303a248       0x40 libcjsona.a(cJSON.o)
                0x0303a248                cJSON_CreateNumber
 .text.cJSON_CreateString
                0x0303a288       0x30 libcjsona.a(cJSON.o)
                0x0303a288                cJSON_CreateString
 .text.cJSON_CreateArray
                0x0303a2b8       0x18 libcjsona.a(cJSON.o)
                0x0303a2b8                cJSON_CreateArray
 .text.cJSON_CreateObject
                0x0303a2d0       0x18 libcjsona.a(cJSON.o)
                0x0303a2d0                cJSON_CreateObject
 .text.cJSON_CreateIntArray
                0x0303a2e8       0x58 libcjsona.a(cJSON.o)
                0x0303a2e8                cJSON_CreateIntArray
 .text.cJSON_CreateFloatArray
                0x0303a340       0x58 libcjsona.a(cJSON.o)
                0x0303a340                cJSON_CreateFloatArray
 .text.cJSON_CreateDoubleArray
                0x0303a398       0x54 libcjsona.a(cJSON.o)
                0x0303a398                cJSON_CreateDoubleArray
 .text.cJSON_CreateStringArray
                0x0303a3ec       0x54 libcjsona.a(cJSON.o)
                0x0303a3ec                cJSON_CreateStringArray
 .text.cJSON_Duplicate
                0x0303a440       0xe4 libcjsona.a(cJSON.o)
                0x0303a440                cJSON_Duplicate
 .text.cJSON_Minify
                0x0303a524      0x114 libcjsona.a(cJSON.o)
                0x0303a524                cJSON_Minify
 .text          0x0303a638      0x85c ./thirdpartylib/libairkiss.a(airkiss.o)
                0x0303a664                airkiss_version
                0x0303a670                airkiss_init
                0x0303a6e4                airkiss_recv
                0x0303ad98                airkiss_get_result
                0x0303ae3c                airkiss_change_channel
 .text          0x0303ae94      0x34c ./thirdpartylib/libairkiss.a(airlink.o)
                0x0303aeb0                __airkiss_lan_recv
                0x0303afb8                __airkiss_lan_pack
                0x0303b1d0                airkiss_lan_recv
                0x0303b1d4                airkiss_lan_pack
 .text          0x0303b1e0        0x0 /usr/bin/../lib/gcc/arm-none-eabi/4.8.4/../../../../arm-none-eabi/lib/libm.a(lib_a-s_fabs.o)
 .text.fabs     0x0303b1e0        0x8 /usr/bin/../lib/gcc/arm-none-eabi/4.8.4/../../../../arm-none-eabi/lib/libm.a(lib_a-s_fabs.o)
                0x0303b1e0                fabs
 .text          0x0303b1e8        0x0 /usr/bin/../lib/gcc/arm-none-eabi/4.8.4/../../../../arm-none-eabi/lib/libm.a(lib_a-s_floor.o)
 .text.floor    0x0303b1e8      0x198 /usr/bin/../lib/gcc/arm-none-eabi/4.8.4/../../../../arm-none-eabi/lib/libm.a(lib_a-s_floor.o)
                0x0303b1e8                floor
 .text          0x0303b380        0x0 /usr/bin/../lib/gcc/arm-none-eabi/4.8.4/../../../../arm-none-eabi/lib/libm.a(lib_a-w_pow.o)
 .text.pow      0x0303b380      0x4f8 /usr/bin/../lib/gcc/arm-none-eabi/4.8.4/../../../../arm-none-eabi/lib/libm.a(lib_a-w_pow.o)
                0x0303b380                pow
 .text          0x0303b878        0x0 /usr/bin/../lib/gcc/arm-none-eabi/4.8.4/../../../../arm-none-eabi/lib/libm.a(lib_a-e_pow.o)
 .text.__ieee754_pow
                0x0303b878     0x1028 /usr/bin/../lib/gcc/arm-none-eabi/4.8.4/../../../../arm-none-eabi/lib/libm.a(lib_a-e_pow.o)
                0x0303b878                __ieee754_pow
 .text          0x0303c8a0        0x0 /usr/bin/../lib/gcc/arm-none-eabi/4.8.4/../../../../arm-none-eabi/lib/libm.a(lib_a-e_sqrt.o)
 .text.__ieee754_sqrt
                0x0303c8a0      0x224 /usr/bin/../lib/gcc/arm-none-eabi/4.8.4/../../../../arm-none-eabi/lib/libm.a(lib_a-e_sqrt.o)
                0x0303c8a0                __ieee754_sqrt
 .text          0x0303cac4        0x0 /usr/bin/../lib/gcc/arm-none-eabi/4.8.4/../../../../arm-none-eabi/lib/libm.a(lib_a-s_finite.o)
 .text.finite   0x0303cac4       0x10 /usr/bin/../lib/gcc/arm-none-eabi/4.8.4/../../../../arm-none-eabi/lib/libm.a(lib_a-s_finite.o)
                0x0303cac4                finite
 .text          0x0303cad4        0x0 /usr/bin/../lib/gcc/arm-none-eabi/4.8.4/../../../../arm-none-eabi/lib/libm.a(lib_a-s_fpclassify.o)
 .text.__fpclassifyd
                0x0303cad4       0x6c /usr/bin/../lib/gcc/arm-none-eabi/4.8.4/../../../../arm-none-eabi/lib/libm.a(lib_a-s_fpclassify.o)
                0x0303cad4                __fpclassifyd
 .text          0x0303cb40        0x0 /usr/bin/../lib/gcc/arm-none-eabi/4.8.4/../../../../arm-none-eabi/lib/libm.a(lib_a-s_lib_ver.o)
 .text          0x0303cb40        0x0 /usr/bin/../lib/gcc/arm-none-eabi/4.8.4/../../../../arm-none-eabi/lib/libm.a(lib_a-s_matherr.o)
 .text.matherr  0x0303cb40        0x8 /usr/bin/../lib/gcc/arm-none-eabi/4.8.4/../../../../arm-none-eabi/lib/libm.a(lib_a-s_matherr.o)
                0x0303cb40                matherr
 .text          0x0303cb48        0x0 /usr/bin/../lib/gcc/arm-none-eabi/4.8.4/../../../../arm-none-eabi/lib/libm.a(lib_a-s_nan.o)
 .text.nan      0x0303cb48       0x10 /usr/bin/../lib/gcc/arm-none-eabi/4.8.4/../../../../arm-none-eabi/lib/libm.a(lib_a-s_nan.o)
                0x0303cb48                nan
 .text          0x0303cb58        0x0 /usr/bin/../lib/gcc/arm-none-eabi/4.8.4/../../../../arm-none-eabi/lib/libm.a(lib_a-s_rint.o)
 .text.rint     0x0303cb58      0x184 /usr/bin/../lib/gcc/arm-none-eabi/4.8.4/../../../../arm-none-eabi/lib/libm.a(lib_a-s_rint.o)
                0x0303cb58                rint
 .text          0x0303ccdc        0x0 /usr/bin/../lib/gcc/arm-none-eabi/4.8.4/../../../../arm-none-eabi/lib/libm.a(lib_a-s_scalbn.o)
 *fill*         0x0303ccdc        0x4 
 .text.scalbn   0x0303cce0      0x1a8 /usr/bin/../lib/gcc/arm-none-eabi/4.8.4/../../../../arm-none-eabi/lib/libm.a(lib_a-s_scalbn.o)
                0x0303cce0                scalbn
 .text          0x0303ce88        0x0 /usr/bin/../lib/gcc/arm-none-eabi/4.8.4/../../../../arm-none-eabi/lib/libm.a(lib_a-s_copysign.o)
 .text.copysign
                0x0303ce88       0x18 /usr/bin/../lib/gcc/arm-none-eabi/4.8.4/../../../../arm-none-eabi/lib/libm.a(lib_a-s_copysign.o)
                0x0303ce88                copysign
 .text          0x0303cea0      0x41c /usr/bin/../lib/gcc/arm-none-eabi/4.8.4/libgcc.a(_arm_addsubdf3.o)
                0x0303cea0                __aeabi_drsub
                0x0303cea8                __aeabi_dsub
                0x0303cea8                __subdf3
                0x0303ceac                __adddf3
                0x0303ceac                __aeabi_dadd
                0x0303d1bc                __aeabi_ui2d
                0x0303d1bc                __floatunsidf
                0x0303d1e0                __floatsidf
                0x0303d1e0                __aeabi_i2d
                0x0303d208                __extendsfdf2
                0x0303d208                __aeabi_f2d
                0x0303d248                __aeabi_ul2d
                0x0303d248                __floatundidf
                0x0303d25c                __floatdidf
                0x0303d25c                __aeabi_l2d
 .text          0x0303d2bc      0x49c /usr/bin/../lib/gcc/arm-none-eabi/4.8.4/libgcc.a(_arm_muldivdf3.o)
                0x0303d2bc                __aeabi_dmul
                0x0303d2bc                __muldf3
                0x0303d54c                __aeabi_ddiv
                0x0303d54c                __divdf3
 .text          0x0303d758      0x144 /usr/bin/../lib/gcc/arm-none-eabi/4.8.4/libgcc.a(_arm_cmpdf2.o)
                0x0303d758                __gtdf2
                0x0303d758                __gedf2
                0x0303d760                __ltdf2
                0x0303d760                __ledf2
                0x0303d768                __cmpdf2
                0x0303d768                __eqdf2
                0x0303d768                __nedf2
                0x0303d7f0                __aeabi_cdrcmple
                0x0303d80c                __aeabi_cdcmple
                0x0303d80c                __aeabi_cdcmpeq
                0x0303d824                __aeabi_dcmpeq
                0x0303d83c                __aeabi_dcmplt
                0x0303d854                __aeabi_dcmple
                0x0303d86c                __aeabi_dcmpge
                0x0303d884                __aeabi_dcmpgt
 .text          0x0303d89c       0x5c /usr/bin/../lib/gcc/arm-none-eabi/4.8.4/libgcc.a(_arm_fixdfsi.o)
                0x0303d89c                __fixdfsi
                0x0303d89c                __aeabi_d2iz
 .text          0x0303d8f8       0xa0 /usr/bin/../lib/gcc/arm-none-eabi/4.8.4/libgcc.a(_arm_truncdfsf2.o)
                0x0303d8f8                __aeabi_d2f
                0x0303d8f8                __truncdfsf2
 .text          0x0303d998      0x2ac /usr/bin/../lib/gcc/arm-none-eabi/4.8.4/libgcc.a(_arm_addsubsf3.o)
                0x0303d998                __aeabi_frsub
                0x0303d9a0                __subsf3
                0x0303d9a0                __aeabi_fsub
                0x0303d9a4                __aeabi_fadd
                0x0303d9a4                __addsf3
                0x0303db60                __aeabi_ui2f
                0x0303db60                __floatunsisf
                0x0303db68                __aeabi_i2f
                0x0303db68                __floatsisf
                0x0303db88                __floatundisf
                0x0303db88                __aeabi_ul2f
                0x0303db98                __floatdisf
                0x0303db98                __aeabi_l2f
 .text          0x0303dc44      0x2f8 /usr/bin/../lib/gcc/arm-none-eabi/4.8.4/libgcc.a(_arm_muldivsf3.o)
                0x0303dc44                __mulsf3
                0x0303dc44                __aeabi_fmul
                0x0303dddc                __divsf3
                0x0303dddc                __aeabi_fdiv
 .text          0x0303df3c       0x48 /usr/bin/../lib/gcc/arm-none-eabi/4.8.4/libgcc.a(_clzsi2.o)
                0x0303df3c                __clzsi2
 .text          0x0303df84        0x0 /usr/bin/../lib/gcc/arm-none-eabi/4.8.4/../../../../arm-none-eabi/lib/libg_s.a(lib_a-atoi.o)
 .text.atoi     0x0303df84       0x18 /usr/bin/../lib/gcc/arm-none-eabi/4.8.4/../../../../arm-none-eabi/lib/libg_s.a(lib_a-atoi.o)
                0x0303df84                atoi
 .text._atoi_r  0x0303df9c       0x18 /usr/bin/../lib/gcc/arm-none-eabi/4.8.4/../../../../arm-none-eabi/lib/libg_s.a(lib_a-atoi.o)
                0x0303df9c                _atoi_r
 .text          0x0303dfb4        0x0 /usr/bin/../lib/gcc/arm-none-eabi/4.8.4/../../../../arm-none-eabi/lib/libg_s.a(lib_a-bzero.o)
 .text.bzero    0x0303dfb4       0x18 /usr/bin/../lib/gcc/arm-none-eabi/4.8.4/../../../../arm-none-eabi/lib/libg_s.a(lib_a-bzero.o)
                0x0303dfb4                bzero
 .text          0x0303dfcc        0x0 /usr/bin/../lib/gcc/arm-none-eabi/4.8.4/../../../../arm-none-eabi/lib/libg_s.a(lib_a-ctype_.o)
 .text          0x0303dfcc        0x0 /usr/bin/../lib/gcc/arm-none-eabi/4.8.4/../../../../arm-none-eabi/lib/libg_s.a(lib_a-errno.o)
 .text.__errno  0x0303dfcc       0x10 /usr/bin/../lib/gcc/arm-none-eabi/4.8.4/../../../../arm-none-eabi/lib/libg_s.a(lib_a-errno.o)
                0x0303dfcc                __errno
 .text          0x0303dfdc        0x0 /usr/bin/../lib/gcc/arm-none-eabi/4.8.4/../../../../arm-none-eabi/lib/libg_s.a(lib_a-impure.o)
 .text          0x0303dfdc        0x0 /usr/bin/../lib/gcc/arm-none-eabi/4.8.4/../../../../arm-none-eabi/lib/libg_s.a(lib_a-malloc.o)
 .text.malloc   0x0303dfdc       0x20 /usr/bin/../lib/gcc/arm-none-eabi/4.8.4/../../../../arm-none-eabi/lib/libg_s.a(lib_a-malloc.o)
                0x0303dfdc                malloc
 .text.free     0x0303dffc       0x20 /usr/bin/../lib/gcc/arm-none-eabi/4.8.4/../../../../arm-none-eabi/lib/libg_s.a(lib_a-malloc.o)
                0x0303dffc                free
 .text          0x0303e01c        0x0 /usr/bin/../lib/gcc/arm-none-eabi/4.8.4/../../../../arm-none-eabi/lib/libg_s.a(lib_a-memchr-stub.o)
 .text.memchr   0x0303e01c       0x34 /usr/bin/../lib/gcc/arm-none-eabi/4.8.4/../../../../arm-none-eabi/lib/libg_s.a(lib_a-memchr-stub.o)
                0x0303e01c                memchr
 .text          0x0303e050        0x0 /usr/bin/../lib/gcc/arm-none-eabi/4.8.4/../../../../arm-none-eabi/lib/libg_s.a(lib_a-mstats.o)
 .text.mallinfo
                0x0303e050       0x24 /usr/bin/../lib/gcc/arm-none-eabi/4.8.4/../../../../arm-none-eabi/lib/libg_s.a(lib_a-mstats.o)
                0x0303e050                mallinfo
 .text.malloc_stats
                0x0303e074       0x1c /usr/bin/../lib/gcc/arm-none-eabi/4.8.4/../../../../arm-none-eabi/lib/libg_s.a(lib_a-mstats.o)
                0x0303e074                malloc_stats
 .text.mallopt  0x0303e090       0x28 /usr/bin/../lib/gcc/arm-none-eabi/4.8.4/../../../../arm-none-eabi/lib/libg_s.a(lib_a-mstats.o)
                0x0303e090                mallopt
 .text._mstats_r
                0x0303e0b8       0x40 /usr/bin/../lib/gcc/arm-none-eabi/4.8.4/../../../../arm-none-eabi/lib/libg_s.a(lib_a-mstats.o)
                0x0303e0b8                _mstats_r
 .text.mstats   0x0303e0f8       0x14 /usr/bin/../lib/gcc/arm-none-eabi/4.8.4/../../../../arm-none-eabi/lib/libg_s.a(lib_a-mstats.o)
                0x0303e0f8                mstats
 .text          0x0303e10c        0x0 /usr/bin/../lib/gcc/arm-none-eabi/4.8.4/../../../../arm-none-eabi/lib/libg_s.a(lib_a-nano-freer.o)
 .text._free_r  0x0303e10c      0x104 /usr/bin/../lib/gcc/arm-none-eabi/4.8.4/../../../../arm-none-eabi/lib/libg_s.a(lib_a-nano-freer.o)
                0x0303e10c                _free_r
 .text          0x0303e210        0x0 /usr/bin/../lib/gcc/arm-none-eabi/4.8.4/../../../../arm-none-eabi/lib/libg_s.a(lib_a-nano-mallinfor.o)
 .text._mallinfo_r
                0x0303e210       0x9c /usr/bin/../lib/gcc/arm-none-eabi/4.8.4/../../../../arm-none-eabi/lib/libg_s.a(lib_a-nano-mallinfor.o)
                0x0303e210                _mallinfo_r
 .text          0x0303e2ac        0x0 /usr/bin/../lib/gcc/arm-none-eabi/4.8.4/../../../../arm-none-eabi/lib/libg_s.a(lib_a-nano-mallocr.o)
 .text._malloc_r
                0x0303e2ac      0x124 /usr/bin/../lib/gcc/arm-none-eabi/4.8.4/../../../../arm-none-eabi/lib/libg_s.a(lib_a-nano-mallocr.o)
                0x0303e2ac                _malloc_r
 .text          0x0303e3d0        0x0 /usr/bin/../lib/gcc/arm-none-eabi/4.8.4/../../../../arm-none-eabi/lib/libg_s.a(lib_a-nano-malloptr.o)
 .text._mallopt_r
                0x0303e3d0        0x8 /usr/bin/../lib/gcc/arm-none-eabi/4.8.4/../../../../arm-none-eabi/lib/libg_s.a(lib_a-nano-malloptr.o)
                0x0303e3d0                _mallopt_r
 .text          0x0303e3d8        0x0 /usr/bin/../lib/gcc/arm-none-eabi/4.8.4/../../../../arm-none-eabi/lib/libg_s.a(lib_a-nano-mallstatsr.o)
 .text._malloc_stats_r
                0x0303e3d8       0x78 /usr/bin/../lib/gcc/arm-none-eabi/4.8.4/../../../../arm-none-eabi/lib/libg_s.a(lib_a-nano-mallstatsr.o)
                0x0303e3d8                _malloc_stats_r
 .text          0x0303e450        0x0 /usr/bin/../lib/gcc/arm-none-eabi/4.8.4/../../../../arm-none-eabi/lib/libg_s.a(lib_a-rand.o)
 .text.srand    0x0303e450       0xa4 /usr/bin/../lib/gcc/arm-none-eabi/4.8.4/../../../../arm-none-eabi/lib/libg_s.a(lib_a-rand.o)
                0x0303e450                srand
 .text.rand     0x0303e4f4       0xcc /usr/bin/../lib/gcc/arm-none-eabi/4.8.4/../../../../arm-none-eabi/lib/libg_s.a(lib_a-rand.o)
                0x0303e4f4                rand
 .text          0x0303e5c0        0x0 /usr/bin/../lib/gcc/arm-none-eabi/4.8.4/../../../../arm-none-eabi/lib/libg_s.a(lib_a-realloc.o)
 .text.realloc  0x0303e5c0       0x28 /usr/bin/../lib/gcc/arm-none-eabi/4.8.4/../../../../arm-none-eabi/lib/libg_s.a(lib_a-realloc.o)
                0x0303e5c0                realloc
 .text          0x0303e5e8        0x0 /usr/bin/../lib/gcc/arm-none-eabi/4.8.4/../../../../arm-none-eabi/lib/libg_s.a(lib_a-sbrkr.o)
 .text._sbrk_r  0x0303e5e8       0x3c /usr/bin/../lib/gcc/arm-none-eabi/4.8.4/../../../../arm-none-eabi/lib/libg_s.a(lib_a-sbrkr.o)
                0x0303e5e8                _sbrk_r
 .text          0x0303e624        0x0 /usr/bin/../lib/gcc/arm-none-eabi/4.8.4/../../../../arm-none-eabi/lib/libg_s.a(lib_a-sscanf.o)
 .text.sscanf   0x0303e624       0x78 /usr/bin/../lib/gcc/arm-none-eabi/4.8.4/../../../../arm-none-eabi/lib/libg_s.a(lib_a-sscanf.o)
                0x0303e624                sscanf
                0x0303e624                siscanf
 .text._sscanf_r
                0x0303e69c       0x78 /usr/bin/../lib/gcc/arm-none-eabi/4.8.4/../../../../arm-none-eabi/lib/libg_s.a(lib_a-sscanf.o)
                0x0303e69c                _siscanf_r
                0x0303e69c                _sscanf_r
 .text          0x0303e714        0x0 /usr/bin/../lib/gcc/arm-none-eabi/4.8.4/../../../../arm-none-eabi/lib/libg_s.a(lib_a-stdio.o)
 .text.__sread  0x0303e714       0x34 /usr/bin/../lib/gcc/arm-none-eabi/4.8.4/../../../../arm-none-eabi/lib/libg_s.a(lib_a-stdio.o)
                0x0303e714                __sread
 .text.__seofread
                0x0303e748        0x8 /usr/bin/../lib/gcc/arm-none-eabi/4.8.4/../../../../arm-none-eabi/lib/libg_s.a(lib_a-stdio.o)
                0x0303e748                __seofread
 .text.__swrite
                0x0303e750       0x54 /usr/bin/../lib/gcc/arm-none-eabi/4.8.4/../../../../arm-none-eabi/lib/libg_s.a(lib_a-stdio.o)
                0x0303e750                __swrite
 .text.__sseek  0x0303e7a4       0x34 /usr/bin/../lib/gcc/arm-none-eabi/4.8.4/../../../../arm-none-eabi/lib/libg_s.a(lib_a-stdio.o)
                0x0303e7a4                __sseek
 .text.__sclose
                0x0303e7d8       0x14 /usr/bin/../lib/gcc/arm-none-eabi/4.8.4/../../../../arm-none-eabi/lib/libg_s.a(lib_a-stdio.o)
                0x0303e7d8                __sclose
 .text          0x0303e7ec        0x0 /usr/bin/../lib/gcc/arm-none-eabi/4.8.4/../../../../arm-none-eabi/lib/libg_s.a(lib_a-strcasecmp.o)
 .text.strcasecmp
                0x0303e7ec       0x64 /usr/bin/../lib/gcc/arm-none-eabi/4.8.4/../../../../arm-none-eabi/lib/libg_s.a(lib_a-strcasecmp.o)
                0x0303e7ec                strcasecmp
 .text          0x0303e850        0x0 /usr/bin/../lib/gcc/arm-none-eabi/4.8.4/../../../../arm-none-eabi/lib/libg_s.a(lib_a-strncasecmp.o)
 .text.strncasecmp
                0x0303e850       0x74 /usr/bin/../lib/gcc/arm-none-eabi/4.8.4/../../../../arm-none-eabi/lib/libg_s.a(lib_a-strncasecmp.o)
                0x0303e850                strncasecmp
 .text          0x0303e8c4        0x0 /usr/bin/../lib/gcc/arm-none-eabi/4.8.4/../../../../arm-none-eabi/lib/libg_s.a(lib_a-strtol.o)
 .text._strtol_r
                0x0303e8c4      0x1c0 /usr/bin/../lib/gcc/arm-none-eabi/4.8.4/../../../../arm-none-eabi/lib/libg_s.a(lib_a-strtol.o)
                0x0303e8c4                _strtol_r
 .text.strtol   0x0303ea84       0x2c /usr/bin/../lib/gcc/arm-none-eabi/4.8.4/../../../../arm-none-eabi/lib/libg_s.a(lib_a-strtol.o)
                0x0303ea84                strtol
 .text          0x0303eab0        0x0 /usr/bin/../lib/gcc/arm-none-eabi/4.8.4/../../../../arm-none-eabi/lib/libg_s.a(lib_a-strtoul.o)
 .text._strtoul_r
                0x0303eab0      0x194 /usr/bin/../lib/gcc/arm-none-eabi/4.8.4/../../../../arm-none-eabi/lib/libg_s.a(lib_a-strtoul.o)
                0x0303eab0                _strtoul_r
 .text.strtoul  0x0303ec44       0x2c /usr/bin/../lib/gcc/arm-none-eabi/4.8.4/../../../../arm-none-eabi/lib/libg_s.a(lib_a-strtoul.o)
                0x0303ec44                strtoul
 .text          0x0303ec70        0x0 /usr/bin/../lib/gcc/arm-none-eabi/4.8.4/../../../../arm-none-eabi/lib/libg_s.a(lib_a-svfscanf.o)
 .text._sungetc_r
                0x0303ec70       0xe0 /usr/bin/../lib/gcc/arm-none-eabi/4.8.4/../../../../arm-none-eabi/lib/libg_s.a(lib_a-svfscanf.o)
                0x0303ec70                _sungetc_r
 .text.__ssrefill_r
                0x0303ed50       0x68 /usr/bin/../lib/gcc/arm-none-eabi/4.8.4/../../../../arm-none-eabi/lib/libg_s.a(lib_a-svfscanf.o)
                0x0303ed50                __ssrefill_r
 .text.__ssvfscanf_r
                0x0303edb8      0x478 /usr/bin/../lib/gcc/arm-none-eabi/4.8.4/../../../../arm-none-eabi/lib/libg_s.a(lib_a-svfscanf.o)
                0x0303edb8                __ssvfscanf_r
                0x0303edb8                __ssvfiscanf_r
 .text          0x0303f230        0x0 /usr/bin/../lib/gcc/arm-none-eabi/4.8.4/../../../../arm-none-eabi/lib/libg_s.a(lib_a-ungetc.o)
 .text.__submore
                0x0303f230       0xa8 /usr/bin/../lib/gcc/arm-none-eabi/4.8.4/../../../../arm-none-eabi/lib/libg_s.a(lib_a-ungetc.o)
                0x0303f230                __submore
 .text._ungetc_r
                0x0303f2d8      0x184 /usr/bin/../lib/gcc/arm-none-eabi/4.8.4/../../../../arm-none-eabi/lib/libg_s.a(lib_a-ungetc.o)
                0x0303f2d8                _ungetc_r
 .text.ungetc   0x0303f45c       0x1c /usr/bin/../lib/gcc/arm-none-eabi/4.8.4/../../../../arm-none-eabi/lib/libg_s.a(lib_a-ungetc.o)
                0x0303f45c                ungetc
 .text          0x0303f478        0x0 /usr/bin/../lib/gcc/arm-none-eabi/4.8.4/../../../../arm-none-eabi/lib/libg_s.a(lib_a-vfscanf_i.o)
 .text._scanf_chars
                0x0303f478      0x170 /usr/bin/../lib/gcc/arm-none-eabi/4.8.4/../../../../arm-none-eabi/lib/libg_s.a(lib_a-vfscanf_i.o)
                0x0303f478                _scanf_chars
 .text._scanf_i
                0x0303f5e8      0x338 /usr/bin/../lib/gcc/arm-none-eabi/4.8.4/../../../../arm-none-eabi/lib/libg_s.a(lib_a-vfscanf_i.o)
                0x0303f5e8                _scanf_i
 .text          0x0303f920        0x0 /usr/bin/../lib/gcc/arm-none-eabi/4.8.4/../../../../arm-none-eabi/lib/libg_s.a(lib_a-writer.o)
 .text._write_r
                0x0303f920       0x44 /usr/bin/../lib/gcc/arm-none-eabi/4.8.4/../../../../arm-none-eabi/lib/libg_s.a(lib_a-writer.o)
                0x0303f920                _write_r
 .text          0x0303f964        0x0 /usr/bin/../lib/gcc/arm-none-eabi/4.8.4/../../../../arm-none-eabi/lib/libg_s.a(lib_a-closer.o)
 .text._close_r
                0x0303f964       0x3c /usr/bin/../lib/gcc/arm-none-eabi/4.8.4/../../../../arm-none-eabi/lib/libg_s.a(lib_a-closer.o)
                0x0303f964                _close_r
 .text          0x0303f9a0        0x0 /usr/bin/../lib/gcc/arm-none-eabi/4.8.4/../../../../arm-none-eabi/lib/libg_s.a(lib_a-fflush.o)
 .text.__sflush_r
                0x0303f9a0      0x1ec /usr/bin/../lib/gcc/arm-none-eabi/4.8.4/../../../../arm-none-eabi/lib/libg_s.a(lib_a-fflush.o)
                0x0303f9a0                __sflush_r
 .text._fflush_r
                0x0303fb8c       0x88 /usr/bin/../lib/gcc/arm-none-eabi/4.8.4/../../../../arm-none-eabi/lib/libg_s.a(lib_a-fflush.o)
                0x0303fb8c                _fflush_r
 .text.fflush   0x0303fc14       0x40 /usr/bin/../lib/gcc/arm-none-eabi/4.8.4/../../../../arm-none-eabi/lib/libg_s.a(lib_a-fflush.o)
                0x0303fc14                fflush
 .text          0x0303fc54        0x0 /usr/bin/../lib/gcc/arm-none-eabi/4.8.4/../../../../arm-none-eabi/lib/libg_s.a(lib_a-findfp.o)
 .text.__fp_lock
                0x0303fc54        0x8 /usr/bin/../lib/gcc/arm-none-eabi/4.8.4/../../../../arm-none-eabi/lib/libg_s.a(lib_a-findfp.o)
 .text.__fp_unlock
                0x0303fc5c        0x8 /usr/bin/../lib/gcc/arm-none-eabi/4.8.4/../../../../arm-none-eabi/lib/libg_s.a(lib_a-findfp.o)
 .text._cleanup_r
                0x0303fc64       0x5c /usr/bin/../lib/gcc/arm-none-eabi/4.8.4/../../../../arm-none-eabi/lib/libg_s.a(lib_a-findfp.o)
                0x0303fc64                _cleanup_r
 .text.std.isra.0
                0x0303fcc0       0x7c /usr/bin/../lib/gcc/arm-none-eabi/4.8.4/../../../../arm-none-eabi/lib/libg_s.a(lib_a-findfp.o)
 .text.__sfmoreglue
                0x0303fd3c       0x48 /usr/bin/../lib/gcc/arm-none-eabi/4.8.4/../../../../arm-none-eabi/lib/libg_s.a(lib_a-findfp.o)
                0x0303fd3c                __sfmoreglue
 .text._cleanup
                0x0303fd84       0x10 /usr/bin/../lib/gcc/arm-none-eabi/4.8.4/../../../../arm-none-eabi/lib/libg_s.a(lib_a-findfp.o)
                0x0303fd84                _cleanup
 .text.__sinit  0x0303fd94       0xa4 /usr/bin/../lib/gcc/arm-none-eabi/4.8.4/../../../../arm-none-eabi/lib/libg_s.a(lib_a-findfp.o)
                0x0303fd94                __sinit
 .text.__sfp    0x0303fe38       0xd8 /usr/bin/../lib/gcc/arm-none-eabi/4.8.4/../../../../arm-none-eabi/lib/libg_s.a(lib_a-findfp.o)
                0x0303fe38                __sfp
 .text.__sfp_lock_acquire
                0x0303ff10        0x4 /usr/bin/../lib/gcc/arm-none-eabi/4.8.4/../../../../arm-none-eabi/lib/libg_s.a(lib_a-findfp.o)
                0x0303ff10                __sfp_lock_acquire
 .text.__sfp_lock_release
                0x0303ff14        0x4 /usr/bin/../lib/gcc/arm-none-eabi/4.8.4/../../../../arm-none-eabi/lib/libg_s.a(lib_a-findfp.o)
                0x0303ff14                __sfp_lock_release
 .text.__sinit_lock_acquire
                0x0303ff18        0x4 /usr/bin/../lib/gcc/arm-none-eabi/4.8.4/../../../../arm-none-eabi/lib/libg_s.a(lib_a-findfp.o)
                0x0303ff18                __sinit_lock_acquire
 .text.__sinit_lock_release
                0x0303ff1c        0x4 /usr/bin/../lib/gcc/arm-none-eabi/4.8.4/../../../../arm-none-eabi/lib/libg_s.a(lib_a-findfp.o)
                0x0303ff1c                __sinit_lock_release
 .text.__fp_lock_all
                0x0303ff20       0x24 /usr/bin/../lib/gcc/arm-none-eabi/4.8.4/../../../../arm-none-eabi/lib/libg_s.a(lib_a-findfp.o)
                0x0303ff20                __fp_lock_all
 .text.__fp_unlock_all
                0x0303ff44       0x24 /usr/bin/../lib/gcc/arm-none-eabi/4.8.4/../../../../arm-none-eabi/lib/libg_s.a(lib_a-findfp.o)
                0x0303ff44                __fp_unlock_all
 .text          0x0303ff68        0x0 /usr/bin/../lib/gcc/arm-none-eabi/4.8.4/../../../../arm-none-eabi/lib/libg_s.a(lib_a-fprintf.o)
 .text._fprintf_r
                0x0303ff68       0x28 /usr/bin/../lib/gcc/arm-none-eabi/4.8.4/../../../../arm-none-eabi/lib/libg_s.a(lib_a-fprintf.o)
                0x0303ff68                _fprintf_r
                0x0303ff68                _fiprintf_r
 .text.fprintf  0x0303ff90       0x38 /usr/bin/../lib/gcc/arm-none-eabi/4.8.4/../../../../arm-none-eabi/lib/libg_s.a(lib_a-fprintf.o)
                0x0303ff90                fprintf
                0x0303ff90                fiprintf
 .text          0x0303ffc8        0x0 /usr/bin/../lib/gcc/arm-none-eabi/4.8.4/../../../../arm-none-eabi/lib/libg_s.a(lib_a-fwalk.o)
 .text._fwalk   0x0303ffc8       0x6c /usr/bin/../lib/gcc/arm-none-eabi/4.8.4/../../../../arm-none-eabi/lib/libg_s.a(lib_a-fwalk.o)
                0x0303ffc8                _fwalk
 .text._fwalk_reent
                0x03040034       0x74 /usr/bin/../lib/gcc/arm-none-eabi/4.8.4/../../../../arm-none-eabi/lib/libg_s.a(lib_a-fwalk.o)
                0x03040034                _fwalk_reent
 .text          0x030400a8        0x0 /usr/bin/../lib/gcc/arm-none-eabi/4.8.4/../../../../arm-none-eabi/lib/libg_s.a(lib_a-lseekr.o)
 .text._lseek_r
                0x030400a8       0x44 /usr/bin/../lib/gcc/arm-none-eabi/4.8.4/../../../../arm-none-eabi/lib/libg_s.a(lib_a-lseekr.o)
                0x030400a8                _lseek_r
 .text          0x030400ec        0x0 /usr/bin/../lib/gcc/arm-none-eabi/4.8.4/../../../../arm-none-eabi/lib/libg_s.a(lib_a-nano-reallocr.o)
 .text._realloc_r
                0x030400ec       0x7c /usr/bin/../lib/gcc/arm-none-eabi/4.8.4/../../../../arm-none-eabi/lib/libg_s.a(lib_a-nano-reallocr.o)
                0x030400ec                _realloc_r
 .text          0x03040168        0x0 /usr/bin/../lib/gcc/arm-none-eabi/4.8.4/../../../../arm-none-eabi/lib/libg_s.a(lib_a-readr.o)
 .text._read_r  0x03040168       0x44 /usr/bin/../lib/gcc/arm-none-eabi/4.8.4/../../../../arm-none-eabi/lib/libg_s.a(lib_a-readr.o)
                0x03040168                _read_r
 .text          0x030401ac        0x0 /usr/bin/../lib/gcc/arm-none-eabi/4.8.4/../../../../arm-none-eabi/lib/libg_s.a(lib_a-reent.o)
 .text.cleanup_glue
                0x030401ac       0x2c /usr/bin/../lib/gcc/arm-none-eabi/4.8.4/../../../../arm-none-eabi/lib/libg_s.a(lib_a-reent.o)
                0x030401ac                cleanup_glue
 .text._reclaim_reent
                0x030401d8      0x148 /usr/bin/../lib/gcc/arm-none-eabi/4.8.4/../../../../arm-none-eabi/lib/libg_s.a(lib_a-reent.o)
                0x030401d8                _reclaim_reent
 .text          0x03040320        0x0 /usr/bin/../lib/gcc/arm-none-eabi/4.8.4/../../../../arm-none-eabi/lib/libg_s.a(lib_a-sccl.o)
 .text.__sccl   0x03040320       0xc4 /usr/bin/../lib/gcc/arm-none-eabi/4.8.4/../../../../arm-none-eabi/lib/libg_s.a(lib_a-sccl.o)
                0x03040320                __sccl
 .text          0x030403e4        0x0 /usr/bin/../lib/gcc/arm-none-eabi/4.8.4/../../../../arm-none-eabi/lib/libg_s.a(lib_a-vfprintf.o)
 .text.__sfputc_r
                0x030403e4       0x54 /usr/bin/../lib/gcc/arm-none-eabi/4.8.4/../../../../arm-none-eabi/lib/libg_s.a(lib_a-vfprintf.o)
 .text.__sfputs_r
                0x03040438       0x44 /usr/bin/../lib/gcc/arm-none-eabi/4.8.4/../../../../arm-none-eabi/lib/libg_s.a(lib_a-vfprintf.o)
                0x03040438                __sfputs_r
 .text.__sprint_r
                0x0304047c       0x34 /usr/bin/../lib/gcc/arm-none-eabi/4.8.4/../../../../arm-none-eabi/lib/libg_s.a(lib_a-vfprintf.o)
                0x0304047c                __sprint_r
 .text._vfprintf_r
                0x030404b0      0x344 /usr/bin/../lib/gcc/arm-none-eabi/4.8.4/../../../../arm-none-eabi/lib/libg_s.a(lib_a-vfprintf.o)
                0x030404b0                _vfiprintf_r
                0x030404b0                _vfprintf_r
 .text.vfprintf
                0x030407f4       0x2c /usr/bin/../lib/gcc/arm-none-eabi/4.8.4/../../../../arm-none-eabi/lib/libg_s.a(lib_a-vfprintf.o)
                0x030407f4                vfiprintf
                0x030407f4                vfprintf
 .text          0x03040820        0x0 /usr/bin/../lib/gcc/arm-none-eabi/4.8.4/../../../../arm-none-eabi/lib/libg_s.a(lib_a-vfprintf_i.o)
 .text._printf_common
                0x03040820      0x16c /usr/bin/../lib/gcc/arm-none-eabi/4.8.4/../../../../arm-none-eabi/lib/libg_s.a(lib_a-vfprintf_i.o)
                0x03040820                _printf_common
 .text._printf_i
                0x0304098c      0x3c8 /usr/bin/../lib/gcc/arm-none-eabi/4.8.4/../../../../arm-none-eabi/lib/libg_s.a(lib_a-vfprintf_i.o)
                0x0304098c                _printf_i
 .text          0x03040d54        0x0 /usr/bin/../lib/gcc/arm-none-eabi/4.8.4/../../../../arm-none-eabi/lib/libg_s.a(lib_a-wbuf.o)
 .text.__swbuf_r
                0x03040d54      0x128 /usr/bin/../lib/gcc/arm-none-eabi/4.8.4/../../../../arm-none-eabi/lib/libg_s.a(lib_a-wbuf.o)
                0x03040d54                __swbuf_r
 .text.__swbuf  0x03040e7c       0x1c /usr/bin/../lib/gcc/arm-none-eabi/4.8.4/../../../../arm-none-eabi/lib/libg_s.a(lib_a-wbuf.o)
                0x03040e7c                __swbuf
 .text          0x03040e98        0x0 /usr/bin/../lib/gcc/arm-none-eabi/4.8.4/../../../../arm-none-eabi/lib/libg_s.a(lib_a-wsetup.o)
 .text.__swsetup_r
                0x03040e98      0x164 /usr/bin/../lib/gcc/arm-none-eabi/4.8.4/../../../../arm-none-eabi/lib/libg_s.a(lib_a-wsetup.o)
                0x03040e98                __swsetup_r
 .text          0x03040ffc        0x0 /usr/bin/../lib/gcc/arm-none-eabi/4.8.4/../../../../arm-none-eabi/lib/libg_s.a(lib_a-fvwrite.o)
 .text.__sfvwrite_r
                0x03040ffc      0x458 /usr/bin/../lib/gcc/arm-none-eabi/4.8.4/../../../../arm-none-eabi/lib/libg_s.a(lib_a-fvwrite.o)
                0x03040ffc                __sfvwrite_r
 .text          0x03041454        0x0 /usr/bin/../lib/gcc/arm-none-eabi/4.8.4/../../../../arm-none-eabi/lib/libg_s.a(lib_a-makebuf.o)
 .text.__smakebuf_r
                0x03041454       0xf8 /usr/bin/../lib/gcc/arm-none-eabi/4.8.4/../../../../arm-none-eabi/lib/libg_s.a(lib_a-makebuf.o)
                0x03041454                __smakebuf_r
 .text          0x0304154c        0x0 /usr/bin/../lib/gcc/arm-none-eabi/4.8.4/../../../../arm-none-eabi/lib/libg_s.a(lib_a-nano-msizer.o)
 .text._malloc_usable_size_r
                0x0304154c       0x1c /usr/bin/../lib/gcc/arm-none-eabi/4.8.4/../../../../arm-none-eabi/lib/libg_s.a(lib_a-nano-msizer.o)
                0x0304154c                _malloc_usable_size_r
 .text          0x03041568        0x0 /usr/bin/../lib/gcc/arm-none-eabi/4.8.4/../../../../arm-none-eabi/lib/libg_s.a(lib_a-fstatr.o)
 .text._fstat_r
                0x03041568       0x40 /usr/bin/../lib/gcc/arm-none-eabi/4.8.4/../../../../arm-none-eabi/lib/libg_s.a(lib_a-fstatr.o)
                0x03041568                _fstat_r
 .text          0x030415a8        0x0 /usr/bin/../lib/gcc/arm-none-eabi/4.8.4/../../../../arm-none-eabi/lib/libg_s.a(lib_a-isattyr.o)
 .text._isatty_r
                0x030415a8       0x3c /usr/bin/../lib/gcc/arm-none-eabi/4.8.4/../../../../arm-none-eabi/lib/libg_s.a(lib_a-isattyr.o)
                0x030415a8                _isatty_r
 .text          0x030415e4        0x0 /usr/bin/../lib/gcc/arm-none-eabi/4.8.4/../../../../arm-none-eabi/lib/libnosys.a(close.o)
 .text._close   0x030415e4       0x18 /usr/bin/../lib/gcc/arm-none-eabi/4.8.4/../../../../arm-none-eabi/lib/libnosys.a(close.o)
                0x030415e4                _close
 .text          0x030415fc        0x0 /usr/bin/../lib/gcc/arm-none-eabi/4.8.4/../../../../arm-none-eabi/lib/libnosys.a(fstat.o)
 .text._fstat   0x030415fc       0x18 /usr/bin/../lib/gcc/arm-none-eabi/4.8.4/../../../../arm-none-eabi/lib/libnosys.a(fstat.o)
                0x030415fc                _fstat
 .text          0x03041614        0x0 /usr/bin/../lib/gcc/arm-none-eabi/4.8.4/../../../../arm-none-eabi/lib/libnosys.a(isatty.o)
 .text._isatty  0x03041614       0x18 /usr/bin/../lib/gcc/arm-none-eabi/4.8.4/../../../../arm-none-eabi/lib/libnosys.a(isatty.o)
                0x03041614                _isatty
 .text          0x0304162c        0x0 /usr/bin/../lib/gcc/arm-none-eabi/4.8.4/../../../../arm-none-eabi/lib/libnosys.a(lseek.o)
 .text._lseek   0x0304162c       0x18 /usr/bin/../lib/gcc/arm-none-eabi/4.8.4/../../../../arm-none-eabi/lib/libnosys.a(lseek.o)
                0x0304162c                _lseek
 .text          0x03041644        0x0 /usr/bin/../lib/gcc/arm-none-eabi/4.8.4/../../../../arm-none-eabi/lib/libnosys.a(read.o)
 .text._read    0x03041644       0x18 /usr/bin/../lib/gcc/arm-none-eabi/4.8.4/../../../../arm-none-eabi/lib/libnosys.a(read.o)
                0x03041644                _read
 .text          0x0304165c        0x0 /usr/bin/../lib/gcc/arm-none-eabi/4.8.4/../../../../arm-none-eabi/lib/libnosys.a(write.o)
 .text._write   0x0304165c       0x18 /usr/bin/../lib/gcc/arm-none-eabi/4.8.4/../../../../arm-none-eabi/lib/libnosys.a(write.o)
                0x0304165c                _write
 *(EXCLUDE_FILE(libmc300.a:ssv_lib.o libmc300.a:sha256.o libmc300.a:sha384.o libmc300.a:sha512.o libmc300.a:x905.o libmc300.a:asn1.o libmc300.a:pstmsqrcomba.o libmc300.a:pstmmulcomba.o libmc300.a:pstmmonreduce.o libmc300.a:pstm.o libmc300.a:aes.o libmc300.a:sha1ssl.o libmc300.a:psock.o libmc300.a:socket_driver.o libmc300.a:powersave.o libmc300.a:hw_regs_api.o libmc300.a:flash_api.o libmc300.a:drv_flash.o libmc300.a:xmem.o libmc300.a:soft_ap.o libmc300.a:debug-uart.o libmc300.a:dbg-puts.o libmc300.a:strformat.o libmc300.a:dbg-printf.o libmc300.a:rate_control.o libmc300.a:throughput.o libmc300.a:ssv6200_tx.o libmc300.a:ssv6200_rx.o libmc300.a:ssvradio.o libmc300.a:drv_pktbuf.o libmc300.a:packetbuf.o libmc300.a:ieee80211_rdc.o libmc300.a:ieee80211_net.o libmc300.a:tcpip.o libmc300.a:etimer.o libmc300.a:clock.o libmc300.a:timer.o libmc300.a:uip-split.o libmc300.a:uip.o libmc300.a:boot-hiflying.o /usr/bin/../lib/gcc/arm-none-eabi/4.8.4/libgcc.a:_udivsi3.o /usr/bin/../lib/gcc/arm-none-eabi/4.8.4/libgcc.a:_divsi3.o /usr/bin/../lib/gcc/arm-none-eabi/4.8.4/libgcc.a:_dvmd_tls.o /usr/bin/../lib/gcc/arm-none-eabi/4.8.4/libgcc.a:_udivdi3.o /usr/bin/../lib/gcc/arm-none-eabi/4.8.4/libgcc.a:bpabi.o /usr/bin/../lib/gcc/arm-none-eabi/4.8.4/libgcc.a:_divdi3.o /usr/bin/../lib/gcc/arm-none-eabi/4.8.4/libgcc.a:_aeabi_uldivmod.o) .text.*)
 *(EXCLUDE_FILE(libmc300.a:ssv_lib.o libmc300.a:sha256.o libmc300.a:sha384.o libmc300.a:sha512.o libmc300.a:x905.o libmc300.a:asn1.o libmc300.a:pstmsqrcomba.o libmc300.a:pstmmulcomba.o libmc300.a:pstmmonreduce.o libmc300.a:pstm.o libmc300.a:aes.o libmc300.a:sha1ssl.o libmc300.a:psock.o libmc300.a:socket_driver.o libmc300.a:powersave.o libmc300.a:hw_regs_api.o libmc300.a:flash_api.o libmc300.a:drv_flash.o libmc300.a:xmem.o libmc300.a:soft_ap.o libmc300.a:debug-uart.o libmc300.a:dbg-puts.o libmc300.a:strformat.o libmc300.a:dbg-printf.o libmc300.a:rate_control.o libmc300.a:throughput.o libmc300.a:ssv6200_tx.o libmc300.a:ssv6200_rx.o libmc300.a:ssvradio.o libmc300.a:drv_pktbuf.o libmc300.a:packetbuf.o libmc300.a:ieee80211_rdc.o libmc300.a:ieee80211_net.o libmc300.a:tcpip.o libmc300.a:etimer.o libmc300.a:clock.o libmc300.a:timer.o libmc300.a:uip-split.o libmc300.a:uip.o libmc300.a:boot-hiflying.o /usr/bin/../lib/gcc/arm-none-eabi/4.8.4/libgcc.a:_udivsi3.o /usr/bin/../lib/gcc/arm-none-eabi/4.8.4/libgcc.a:_divsi3.o /usr/bin/../lib/gcc/arm-none-eabi/4.8.4/libgcc.a:_dvmd_tls.o /usr/bin/../lib/gcc/arm-none-eabi/4.8.4/libgcc.a:_udivdi3.o /usr/bin/../lib/gcc/arm-none-eabi/4.8.4/libgcc.a:bpabi.o /usr/bin/../lib/gcc/arm-none-eabi/4.8.4/libgcc.a:_divdi3.o /usr/bin/../lib/gcc/arm-none-eabi/4.8.4/libgcc.a:_aeabi_uldivmod.o) .rodata)
 .rodata        0x03041674       0x38 userapps.a(hm_uart_handle.)
 .rodata        0x030416ac       0x70 userapps.a(hm_bind_json_pr)
 .rodata        0x0304171c       0x14 userapps.a(hm_parameter.o)
 .rodata        0x03041730       0x14 libmc300.a(systemconf.o)
 .rodata        0x03041744        0xc libmc300.a(hfsmtlk.o)
 .rodata        0x03041750        0x6 libmc300.a(ieee80211_mac.o)
 .rodata        0x03041756      0x100 ./thirdpartylib/libairkiss.a(airkiss.o)
 *fill*         0x03041856        0x2 
 .rodata        0x03041858        0x4 ./thirdpartylib/libairkiss.a(airlink.o)
 .rodata        0x0304185c        0xc /usr/bin/../lib/gcc/arm-none-eabi/4.8.4/../../../../arm-none-eabi/lib/libg_s.a(lib_a-vfscanf_i.o)
 *(EXCLUDE_FILE(libmc300.a:ssv_lib.o libmc300.a:sha256.o libmc300.a:sha384.o libmc300.a:sha512.o libmc300.a:x905.o libmc300.a:asn1.o libmc300.a:pstmsqrcomba.o libmc300.a:pstmmulcomba.o libmc300.a:pstmmonreduce.o libmc300.a:pstm.o libmc300.a:aes.o libmc300.a:sha1ssl.o libmc300.a:psock.o libmc300.a:socket_driver.o libmc300.a:powersave.o libmc300.a:hw_regs_api.o libmc300.a:flash_api.o libmc300.a:drv_flash.o libmc300.a:xmem.o libmc300.a:soft_ap.o libmc300.a:debug-uart.o libmc300.a:dbg-puts.o libmc300.a:strformat.o libmc300.a:dbg-printf.o libmc300.a:rate_control.o libmc300.a:throughput.o libmc300.a:ssv6200_tx.o libmc300.a:ssv6200_rx.o libmc300.a:ssvradio.o libmc300.a:drv_pktbuf.o libmc300.a:packetbuf.o libmc300.a:ieee80211_rdc.o libmc300.a:ieee80211_net.o libmc300.a:tcpip.o libmc300.a:etimer.o libmc300.a:clock.o libmc300.a:timer.o libmc300.a:uip-split.o libmc300.a:uip.o libmc300.a:boot-hiflying.o /usr/bin/../lib/gcc/arm-none-eabi/4.8.4/libgcc.a:_udivsi3.o /usr/bin/../lib/gcc/arm-none-eabi/4.8.4/libgcc.a:_divsi3.o /usr/bin/../lib/gcc/arm-none-eabi/4.8.4/libgcc.a:_dvmd_tls.o /usr/bin/../lib/gcc/arm-none-eabi/4.8.4/libgcc.a:_udivdi3.o /usr/bin/../lib/gcc/arm-none-eabi/4.8.4/libgcc.a:bpabi.o /usr/bin/../lib/gcc/arm-none-eabi/4.8.4/libgcc.a:_divdi3.o /usr/bin/../lib/gcc/arm-none-eabi/4.8.4/libgcc.a:_aeabi_uldivmod.o) .rodata*)
 .rodata.autostart_processes
                0x03041868        0x8 main.o
                0x03041868                autostart_processes
 .rodata.str1.1
                0x03041870        0xd main.o
 .rodata.str1.1
                0x0304187d       0xd4 userapps.a(app_main.o)
 *fill*         0x03041951        0x3 
 .rodata.user_define_at_cmds_table
                0x03041954       0x10 userapps.a(app_main.o)
                0x03041954                user_define_at_cmds_table
 .rodata.hf_gpio_fid_to_pid_map_table
                0x03041964      0x264 userapps.a(app_main.o)
                0x03041964                hf_gpio_fid_to_pid_map_table
 .rodata.str1.1
                0x03041bc8      0xde1 userapps.a(hm_system.o)
                                0xe0c (size before relaxing)
 .rodata.str1.1
                0x030429a9        0xc userapps.a(RCLutils.o)
                                 0x11 (size before relaxing)
 .rodata.str1.1
                0x030429b5       0xae userapps.a(hm_app_main.o)
 .rodata.str1.1
                0x03042a63       0xf7 userapps.a(hm_uart.o)
                                 0xff (size before relaxing)
 .rodata.str1.1
                0x03042b5a      0x232 userapps.a(hm_uart_handle.)
                                0x241 (size before relaxing)
 .rodata.str1.1
                0x03042d8c      0x5d5 userapps.a(hm_connect_clou)
                                0x611 (size before relaxing)
 .rodata.str1.1
                0x03043361      0x1d3 userapps.a(hm_sub_devsend_)
                                0x218 (size before relaxing)
 .rodata.str1.1
                0x03043534      0x4e1 userapps.a(hm_bind_json_pr)
                                0x5ad (size before relaxing)
 *fill*         0x03043a15        0x3 
 .rodata.g_action_code_table
                0x03043a18      0x154 userapps.a(hm_bind_json_pr)
                0x03043a18                g_action_code_table
 .rodata.str1.1
                0x03043b6c       0x23 userapps.a(hm_dev_model.o)
                                 0x28 (size before relaxing)
 .rodata.str1.1
                0x03043b8f      0x13e userapps.a(hm_parameter.o)
                                0x149 (size before relaxing)
 .rodata.str1.1
                0x03043ccd      0x321 userapps.a(hm_link.o)
                                0x371 (size before relaxing)
 .rodata.str1.1
                0x03043fee       0x11 userapps.a(hm_MD5_sum.o)
 .rodata.str1.1
                0x03043fff       0x61 libmc300.a(printf.o)
 .rodata.str1.1
                0x03044060       0xf2 libmc300.a(process.o)
 .rodata.str1.1
                0x03044152       0x94 libmc300.a(contiki-main.o)
                                 0x98 (size before relaxing)
 *fill*         0x030441e6        0x2 
 .rodata.uarts  0x030441e8        0x8 libmc300.a(drv_uart.o)
 .rodata.__FUNCTION__.7270
                0x030441f0       0x14 libmc300.a(hw_init.o)
 .rodata.asic_rf_setting
                0x03044204      0x1b0 libmc300.a(hw_init.o)
 .rodata.vt_tbl
                0x030443b4       0xc4 libmc300.a(hw_init.o)
 .rodata.str1.1
                0x03044478       0xf7 libmc300.a(hw_init.o)
 *fill*         0x0304456f        0x1 
 .rodata.phy_setting
                0x03044570      0x628 libmc300.a(hw_init.o)
 .rodata.str1.1
                0x03044b98      0x164 libmc300.a(systemconf.o)
 .rodata.__func__.6629
                0x03044cfc       0x18 libmc300.a(systemconf.o)
 .rodata.__func__.6635
                0x03044d14       0x19 libmc300.a(systemconf.o)
 .rodata.__func__.6640
                0x03044d2d       0x19 libmc300.a(systemconf.o)
 .rodata.str1.1
                0x03044d46       0x61 libmc300.a(wdog_api.o)
 .rodata.str1.1
                0x03044da7       0x14 libmc300.a(bsp.o)
 .rodata.str1.1
                0x03044dbb       0x19 libmc300.a(crypthw.o)
 .rodata.str1.1
                0x03044dd4      0x625 libmc300.a(dbg-atcmd-api.o)
                                0x749 (size before relaxing)
 *fill*         0x030453f9        0x3 
 .rodata.RADIO_OP
                0x030453fc       0xd4 libmc300.a(dbg-atcmd-api.o)
 .rodata.CSWTCH.114
                0x030454d0       0x28 libmc300.a(dbg-atcmd-api.o)
 .rodata.CSWTCH.117
                0x030454f8        0xe libmc300.a(dbg-atcmd-api.o)
 .rodata.tssi_tbl_gain
                0x03045506       0x24 libmc300.a(drv_phy.o)
                0x03045506                tssi_tbl_gain
 *fill*         0x0304552a        0x2 
 .rodata.phy_cali_config_rxrc
                0x0304552c       0x14 libmc300.a(drv_phy.o)
                0x0304552c                phy_cali_config_rxrc
 .rodata.rfreg_tbl_papd_bypa_lievb
                0x03045540       0x48 libmc300.a(drv_phy.o)
 .rodata.papd_tbl_x
                0x03045588       0x34 libmc300.a(drv_phy.o)
 .rodata.rfreg_tbl_txlo
                0x030455bc       0x38 libmc300.a(drv_phy.o)
 .rodata.rfreg_tbl_papd_bypa_limpb
                0x030455f4       0x48 libmc300.a(drv_phy.o)
 .rodata.phyreg_tbl_init
                0x0304563c      0x6f8 libmc300.a(drv_phy.o)
 .rodata.rfreg_tbl_papd_bypa_hp
                0x03045d34       0x48 libmc300.a(drv_phy.o)
 .rodata.phy_cali_config_tssi
                0x03045d7c       0x14 libmc300.a(drv_phy.o)
                0x03045d7c                phy_cali_config_tssi
 .rodata.str1.1
                0x03045d90       0x3e libmc300.a(drv_phy.o)
 *fill*         0x03045dce        0x2 
 .rodata.phy_cali_config_txiq
                0x03045dd0       0x14 libmc300.a(drv_phy.o)
                0x03045dd0                phy_cali_config_txiq
 .rodata.rfreg_tbl_config_bypa
                0x03045de4       0x20 libmc300.a(drv_phy.o)
 .rodata.rfreg_tbl_papd_bypa_def
                0x03045e04       0x48 libmc300.a(drv_phy.o)
 .rodata.rfreg_tbl_rxrck
                0x03045e4c       0x38 libmc300.a(drv_phy.o)
 .rodata.rfreg_tbl_rxdck
                0x03045e84       0x38 libmc300.a(drv_phy.o)
 .rodata.phy_cali_config_txlo
                0x03045ebc       0x14 libmc300.a(drv_phy.o)
                0x03045ebc                phy_cali_config_txlo
 .rodata.rfreg_tbl_init
                0x03045ed0      0x188 libmc300.a(drv_phy.o)
 .rodata.phy_cali_config_rxiq
                0x03046058       0x14 libmc300.a(drv_phy.o)
                0x03046058                phy_cali_config_rxiq
 .rodata.phy_cali_config_rxdc
                0x0304606c       0x14 libmc300.a(drv_phy.o)
                0x0304606c                phy_cali_config_rxdc
 .rodata.rfreg_tbl_config_byxtal
                0x03046080      0x108 libmc300.a(drv_phy.o)
 .rodata.rfreg_tbl_txiqk
                0x03046188       0x38 libmc300.a(drv_phy.o)
 .rodata.rfreg_tbl_tssi
                0x030461c0       0x38 libmc300.a(drv_phy.o)
 .rodata.phyreg_tbl_papd
                0x030461f8       0x38 libmc300.a(drv_phy.o)
 .rodata.rfreg_tbl_rxiqk
                0x03046230       0x38 libmc300.a(drv_phy.o)
 .rodata.__func__.4670
                0x03046268       0x16 libmc300.a(drv_pktbuf_slow)
 .rodata.str1.1
                0x0304627e      0x4dd libmc300.a(drv_pktbuf_slow)
                                0x4df (size before relaxing)
 .rodata.__func__.7722
                0x0304675b       0x25 libmc300.a(ieee80211_mgmt.)
 .rodata.__func__.7499
                0x03046780       0x15 libmc300.a(ieee80211_mgmt.)
 .rodata.__func__.7640
                0x03046795       0x11 libmc300.a(ieee80211_mgmt.)
 .rodata.__func__.7644
                0x030467a6       0x13 libmc300.a(ieee80211_mgmt.)
 .rodata.str1.1
                0x030467b9      0x4f9 libmc300.a(ieee80211_mgmt.)
                                0x529 (size before relaxing)
 .rodata.__func__.7457
                0x03046cb2        0xd libmc300.a(ieee80211_mgmt.)
 .rodata.__func__.7464
                0x03046cbf       0x1b libmc300.a(ieee80211_mgmt.)
 .rodata.__func__.7507
                0x03046cda       0x11 libmc300.a(ieee80211_mgmt.)
 .rodata.__func__.7472
                0x03046ceb       0x1b libmc300.a(ieee80211_mgmt.)
 .rodata.__func__.7705
                0x03046d06       0x1e libmc300.a(ieee80211_mgmt.)
 .rodata.__func__.7481
                0x03046d24       0x18 libmc300.a(ieee80211_mgmt.)
 .rodata.__func__.7492
                0x03046d3c       0x13 libmc300.a(ieee80211_mgmt.)
 .rodata.str1.1
                0x03046d4f       0x30 libmc300.a(irq.o)
 .rodata.str1.1
                0x03046d7f      0x230 libmc300.a(wpa.o)
 .rodata.str1.1
                0x03046faf      0x690 libmc300.a(hfat.o)
                                0x6d4 (size before relaxing)
 *fill*         0x0304763f        0x1 
 .rodata.hf_at_cmd_tables
                0x03047640       0x38 libmc300.a(hfat.o)
                0x03047640                hf_at_cmd_tables
 .rodata.hf_utils_at_cmds_table
                0x03047678      0x1e0 libmc300.a(hfat.o)
                0x03047678                hf_utils_at_cmds_table
 .rodata.hf_wifi_at_cmds_table
                0x03047858      0x120 libmc300.a(at_wifi_cmd.o)
                0x03047858                hf_wifi_at_cmds_table
 .rodata.str1.1
                0x03047978      0x601 libmc300.a(at_wifi_cmd.o)
                                0x672 (size before relaxing)
 .rodata.__FUNCTION__.9381
                0x03047f79        0xd libmc300.a(at_wifi_cmd.o)
 .rodata.str1.1
                0x03047f86      0x360 libmc300.a(at_network_cmd.)
                                0x3aa (size before relaxing)
 *fill*         0x030482e6        0x2 
 .rodata.hf_network_at_cmds_table
                0x030482e8       0xe0 libmc300.a(at_network_cmd.)
                0x030482e8                hf_network_at_cmds_table
 .rodata.str1.1
                0x030483c8       0x83 libmc300.a(hfgpio.o)
 *fill*         0x0304844b        0x1 
 .rodata.hf_gpio_pid_to_cpid_map_table
                0x0304844c       0xcc libmc300.a(hfgpio.o)
 .rodata.__FUNCTION__.8502
                0x03048518       0x20 libmc300.a(hfgpio.o)
 .rodata.hf_gpio_pid_table
                0x03048538       0xc4 libmc300.a(hfgpio.o)
                0x03048538                hf_gpio_pid_table
 .rodata.str1.1
                0x030485fc       0x45 libmc300.a(hfsys.o)
                                 0x46 (size before relaxing)
 .rodata.lpb120_default_rf_table
                0x03048641      0x100 libmc300.a(hfconfig.o)
 .rodata.lpt220_default_rf_table
                0x03048741      0x100 libmc300.a(hfconfig.o)
 .rodata.lpb125_default_rf_table
                0x03048841      0x100 libmc300.a(hfconfig.o)
 .rodata.str1.1
                0x03048941      0x27a libmc300.a(hfconfig.o)
                                0x29f (size before relaxing)
 .rodata.lpt120g_default_rf_table
                0x03048bbb      0x100 libmc300.a(hfconfig.o)
 .rodata.lpt120_default_rf_table
                0x03048cbb      0x100 libmc300.a(hfconfig.o)
 .rodata.str1.1
                0x03048dbb       0x54 libmc300.a(hfflash.o)
                                 0x74 (size before relaxing)
 .rodata.__FUNCTION__.8327
                0x03048e0f       0x14 libmc300.a(hfflash.o)
 .rodata.str1.1
                0x03048e23      0x15d libmc300.a(hfnet.o)
 .rodata.CSWTCH.36
                0x03048f80        0xd libmc300.a(uart_thread.o)
 .rodata.str1.1
                0x03048f8d       0x30 libmc300.a(uart_thread.o)
                                 0x7d (size before relaxing)
 .rodata.__FUNCTION__.9488
                0x03048fbd       0x12 libmc300.a(uart_thread.o)
 .rodata.str1.1
                0x03048fcf       0xa5 libmc300.a(hfwifi.o)
                                 0xe7 (size before relaxing)
 .rodata.__FUNCTION__.8839
                0x03049074       0x24 libmc300.a(hfupdate.o)
 .rodata.str1.1
                0x03049098      0x439 libmc300.a(hfupdate.o)
                                0x498 (size before relaxing)
 .rodata.__FUNCTION__.9081
                0x030494d1       0x13 libmc300.a(httpclient.o)
 .rodata.__FUNCTION__.9089
                0x030494e4       0x19 libmc300.a(httpclient.o)
 .rodata.str1.1
                0x030494fd      0x4f5 libmc300.a(httpclient.o)
                                0x556 (size before relaxing)
 .rodata.CSWTCH.143
                0x030499f2        0x6 libmc300.a(hfsmtlk.o)
 .rodata.str1.1
                0x030499f8      0x37b libmc300.a(hfsmtlk.o)
                                0x37e (size before relaxing)
 .rodata.str1.1
                0x03049d73       0xa5 libmc300.a(smartlinkV3.o)
                                 0xb8 (size before relaxing)
 .rodata.__FUNCTION__.8541
                0x03049e18       0x11 libmc300.a(smartlinkV3.o)
 .rodata.str1.1
                0x03049e29      0x136 libmc300.a(smartlinkV7.o)
                                0x13b (size before relaxing)
 .rodata.str1.1
                0x03049f5f      0x18a libmc300.a(airkissv2.o)
 *fill*         0x0304a0e9        0x3 
 .rodata.hfakconf
                0x0304a0ec       0x10 libmc300.a(airkissv2.o)
                0x0304a0ec                hfakconf
 .rodata.str1.1
                0x0304a0fc       0xe0 libmc300.a(assis_thread.o)
                                0x116 (size before relaxing)
 .rodata.str1.1
                0x0304a1dc       0x1c libmc300.a(hftimer.o)
 .rodata.hf_fota_at_cmds_table
                0x0304a1f8       0x30 libmc300.a(at_fota.o)
                0x0304a1f8                hf_fota_at_cmds_table
 .rodata.str1.1
                0x0304a228       0x69 libmc300.a(at_fota.o)
                                 0xb2 (size before relaxing)
 .rodata.str1.1
                0x0304a291      0x228 libmc300.a(mc300_main.o)
                                0x244 (size before relaxing)
 .rodata.str1.1
                0x00000000       0x32 libmc300.a(hfsniffer.o)
 .rodata.str1.1
                0x0304a4b9      0x167 libmc300.a(socket_b.o)
                                0x1a4 (size before relaxing)
 .rodata.str1.1
                0x0304a620       0x8a libmc300.a(socket_a.o)
 .rodata.str1.1
                0x0304a6aa      0x26d libmc300.a(at_socket_cmd.o)
                                0x28d (size before relaxing)
 *fill*         0x0304a917        0x1 
 .rodata.hf_socket_at_cmds_table
                0x0304a918       0xc0 libmc300.a(at_socket_cmd.o)
                0x0304a918                hf_socket_at_cmds_table
 .rodata.str1.1
                0x0304a9d8      0x11d libmc300.a(socket_a_client)
                                0x1ea (size before relaxing)
 *fill*         0x0304aaf5        0x3 
 .rodata.CSWTCH.38
                0x0304aaf8       0x10 libmc300.a(atcmd.o)
 .rodata.__func__.9157
                0x0304ab08       0x15 libmc300.a(atcmd.o)
 .rodata.__func__.9290
                0x0304ab1d        0xf libmc300.a(atcmd.o)
 .rodata.dataRateMapping
                0x0304ab2c       0x9c libmc300.a(atcmd.o)
 .rodata.CSWTCH.36
                0x0304abc8       0x14 libmc300.a(atcmd.o)
 .rodata.__func__.9162
                0x0304abdc       0x13 libmc300.a(atcmd.o)
 .rodata.str1.1
                0x0304abef      0x9e1 libmc300.a(atcmd.o)
                                0xa34 (size before relaxing)
 .rodata.__func__.9273
                0x0304b5d0        0xf libmc300.a(atcmd.o)
 .rodata.__func__.9193
                0x0304b5df       0x11 libmc300.a(atcmd.o)
 .rodata.__func__.9189
                0x0304b5f0       0x12 libmc300.a(atcmd.o)
 .rodata.__func__.9279
                0x0304b602       0x14 libmc300.a(atcmd.o)
 .rodata.str1.1
                0x0304b616       0x22 libmc300.a(dhcp_process.o)
 .rodata.str1.1
                0x0304b638      0x1e5 libmc300.a(dhcpc.o)
 .rodata.__func__.8115
                0x0304b81d        0x9 libmc300.a(dhcps.o)
 .rodata.__func__.7998
                0x0304b826       0x12 libmc300.a(dhcps.o)
 .rodata.magic_cookie
                0x0304b838        0x4 libmc300.a(dhcps.o)
 .rodata.str1.1
                0x0304b83c      0x432 libmc300.a(dhcps.o)
                                0x486 (size before relaxing)
 .rodata.__func__.8011
                0x0304bc6e        0xf libmc300.a(dhcps.o)
 .rodata.__func__.8068
                0x0304bc7d       0x1e libmc300.a(dhcps.o)
 .rodata.__func__.8058
                0x0304bc9b       0x1a libmc300.a(dhcps.o)
 .rodata.__func__.8150
                0x0304bcb5        0xb libmc300.a(dhcps.o)
 .rodata.__func__.8023
                0x0304bcc0       0x10 libmc300.a(dhcps.o)
 .rodata.__func__.8145
                0x0304bcd0       0x23 libmc300.a(dhcps.o)
 .rodata.str1.1
                0x0304bcf3      0x2ad libmc300.a(resolv.o)
                                0x2b4 (size before relaxing)
 .rodata.str1.1
                0x0304bfa0       0x13 libmc300.a(simple-udp.o)
 .rodata.__func__.8680
                0x0304bfb3       0x11 libmc300.a(soft_ap_init.o)
 .rodata.str1.1
                0x0304bfc4      0x109 libmc300.a(soft_ap_init.o)
                                0x12c (size before relaxing)
 .rodata.broadcast_ethaddr
                0x0304c0cd        0x6 libmc300.a(uip_arp.o)
 .rodata.str1.1
                0x0304c0d3       0x47 libmc300.a(uip_arp.o)
                                 0x5d (size before relaxing)
 .rodata.str1.1
                0x0304c11a       0x5f libmc300.a(wep.o)
 .rodata.str1.1
                0x0304c179     0x1376 libmc300.a(atcmd_icomm.o)
                               0x14c2 (size before relaxing)
 .rodata.str1.1
                0x0304d4ef      0x5dd libmc300.a(bsp_info.o)
                                0x60d (size before relaxing)
 .rodata.str1.1
                0x0304dacc       0x23 libmc300.a(console.o)
 .rodata.str1.1
                0x0304daef      0x198 libmc300.a(drv_gpio.o)
 .rodata.str1.1
                0x0304dc87       0x18 libmc300.a(drv_pmu.o)
                                 0x1c (size before relaxing)
 *fill*         0x0304dc9f        0x1 
 .rodata.tbl_pmu_pad_cfg
                0x0304dca0      0x1a0 libmc300.a(drv_pmu.o)
                0x0304dca0                tbl_pmu_pad_cfg
 .rodata.str1.1
                0x0304de40       0x4e libmc300.a(fence.o)
 .rodata.str1.1
                0x0304de8e       0x70 libmc300.a(smartComm.o)
 .rodata.broadcast_ethaddr.7742
                0x0304defe        0x6 libmc300.a(smartComm.o)
 .rodata.broadcast_ethaddr.7738
                0x0304df04        0x6 libmc300.a(smartComm.o)
 .rodata.str1.1
                0x0304df0a       0x9a libmc300.a(ssv_lib_slow.o)
                                 0x9c (size before relaxing)
 .rodata.str1.1
                0x0304dfa4       0xd0 libmc300.a(userSmart.o)
                                0x107 (size before relaxing)
 .rodata.str1.1
                0x0304e074       0x8f libmc300.a(ieee80211_mac.o)
                                 0xb9 (size before relaxing)
 .rodata.__func__.7073
                0x0304e103        0xc libmc300.a(ieee80211_mac.o)
 *fill*         0x0304e10f        0x1 
 .rodata.ieee80211_mac
                0x0304e110       0x1c libmc300.a(ieee80211_mac.o)
                0x0304e110                ieee80211_mac
 .rodata.__func__.7079
                0x0304e12c        0xa libmc300.a(ieee80211_mac.o)
 .rodata.__func__.7087
                0x0304e136       0x10 libmc300.a(ieee80211_mac.o)
 .rodata.str1.1
                0x0304e146       0x28 libmc300.a(sys_status_api.)
 .rodata.str1.1
                0x00000000        0x5 libmc300.a(shell-ping.o)
 .rodata.str1.1
                0x0304e16e      0x122 libmc300.a(EAPOL.o)
 .rodata.firstByteMark
                0x0304e290        0x7 libcjsona.a(cJSON.o)
 .rodata.str1.1
                0x0304e297       0x29 libcjsona.a(cJSON.o)
                                 0x34 (size before relaxing)
 .rodata.str1.1
                0x0304e2c0       0x46 ./thirdpartylib/libairkiss.a(airkiss.o)
 .rodata.str1.1
                0x0304e306       0x5c ./thirdpartylib/libairkiss.a(airlink.o)
                                 0x60 (size before relaxing)
 *fill*         0x0304e362        0x2 
 .rodata.str1.4
                0x0304e364        0x4 /usr/bin/../lib/gcc/arm-none-eabi/4.8.4/../../../../arm-none-eabi/lib/libm.a(lib_a-w_pow.o)
 .rodata.dp_h   0x0304e368       0x10 /usr/bin/../lib/gcc/arm-none-eabi/4.8.4/../../../../arm-none-eabi/lib/libm.a(lib_a-e_pow.o)
 .rodata.dp_l   0x0304e378       0x10 /usr/bin/../lib/gcc/arm-none-eabi/4.8.4/../../../../arm-none-eabi/lib/libm.a(lib_a-e_pow.o)
 .rodata.bp     0x0304e388       0x10 /usr/bin/../lib/gcc/arm-none-eabi/4.8.4/../../../../arm-none-eabi/lib/libm.a(lib_a-e_pow.o)
 .rodata.str1.4
                0x0304e398        0x4 /usr/bin/../lib/gcc/arm-none-eabi/4.8.4/../../../../arm-none-eabi/lib/libm.a(lib_a-e_pow.o)
 *fill*         0x0304e39c        0x4 
 .rodata.TWO52  0x0304e3a0       0x10 /usr/bin/../lib/gcc/arm-none-eabi/4.8.4/../../../../arm-none-eabi/lib/libm.a(lib_a-s_rint.o)
 .rodata._ctype_
                0x0304e3b0      0x101 /usr/bin/../lib/gcc/arm-none-eabi/4.8.4/../../../../arm-none-eabi/lib/libg_s.a(lib_a-ctype_.o)
                0x0304e3b0                _ctype_
 .rodata.str1.1
                0x00000000       0x5c /usr/bin/../lib/gcc/arm-none-eabi/4.8.4/../../../../arm-none-eabi/lib/libg_s.a(lib_a-impure.o)
                                  0x2 (size before relaxing)
 *fill*         0x0304e4b1        0x3 
 .rodata._global_impure_ptr
                0x0304e4b4        0x4 /usr/bin/../lib/gcc/arm-none-eabi/4.8.4/../../../../arm-none-eabi/lib/libg_s.a(lib_a-impure.o)
                0x0304e4b4                _global_impure_ptr
 .rodata.str1.1
                0x0304e4b8       0x21 /usr/bin/../lib/gcc/arm-none-eabi/4.8.4/../../../../arm-none-eabi/lib/libg_s.a(lib_a-mstats.o)
 .rodata.str1.1
                0x0304e4d9       0x4b /usr/bin/../lib/gcc/arm-none-eabi/4.8.4/../../../../arm-none-eabi/lib/libg_s.a(lib_a-nano-mallstatsr.o)
 .rodata.str1.1
                0x0304e524        0x4 /usr/bin/../lib/gcc/arm-none-eabi/4.8.4/../../../../arm-none-eabi/lib/libg_s.a(lib_a-svfscanf.o)
 .rodata.str1.1
                0x0304e528       0x18 /usr/bin/../lib/gcc/arm-none-eabi/4.8.4/../../../../arm-none-eabi/lib/libg_s.a(lib_a-vfscanf_i.o)
                                 0x1b (size before relaxing)
 .rodata.__sf_fake_stdin
                0x0304e540       0x20 /usr/bin/../lib/gcc/arm-none-eabi/4.8.4/../../../../arm-none-eabi/lib/libg_s.a(lib_a-findfp.o)
                0x0304e540                __sf_fake_stdin
 .rodata.__sf_fake_stdout
                0x0304e560       0x20 /usr/bin/../lib/gcc/arm-none-eabi/4.8.4/../../../../arm-none-eabi/lib/libg_s.a(lib_a-findfp.o)
                0x0304e560                __sf_fake_stdout
 .rodata.__sf_fake_stderr
                0x0304e580       0x20 /usr/bin/../lib/gcc/arm-none-eabi/4.8.4/../../../../arm-none-eabi/lib/libg_s.a(lib_a-findfp.o)
                0x0304e580                __sf_fake_stderr
 .rodata.str1.1
                0x0304e5a0        0xd /usr/bin/../lib/gcc/arm-none-eabi/4.8.4/../../../../arm-none-eabi/lib/libg_s.a(lib_a-vfprintf.o)
                                 0x11 (size before relaxing)
 .rodata.str1.1
                0x0304e5ad       0x11 /usr/bin/../lib/gcc/arm-none-eabi/4.8.4/../../../../arm-none-eabi/lib/libg_s.a(lib_a-vfprintf_i.o)
                                 0x22 (size before relaxing)
 *(.glue_7)
 .glue_7        0x00000000        0x0 linker stubs
 *(.glue_7t)
 .glue_7t       0x00000000        0x0 linker stubs
 *(.ARM.extab)
 .ARM.extab     0x0304e5be        0x0 /usr/bin/../lib/gcc/arm-none-eabi/4.8.4/libgcc.a(_divdi3.o)
 .ARM.extab     0x0304e5be        0x0 /usr/bin/../lib/gcc/arm-none-eabi/4.8.4/libgcc.a(_udivdi3.o)
 *(.gnu.linkonce.armextab.*)
 *(.vfp11_veneer)
 .vfp11_veneer  0x00000000        0x0 linker stubs
 *(.v4_bx)
 .v4_bx         0x00000000        0x0 linker stubs
 *(.iplt)
 .iplt          0x00000000        0x0 /tmp/ccsDtpxU.o
 *(.rel.dyn)
 *(.rel.iplt)
 .rel.iplt      0x00000000        0x0 /tmp/ccsDtpxU.o
                0x0304e5c0                . = ALIGN (0x4)
 *fill*         0x0304e5be        0x2 

prog_in_sram    0x02000000    0x14af8 load address 0x0304e5c0
 *(.startup_clone)
 .startup_clone
                0x02000000       0x50 /tmp/ccsDtpxU.o
 *(keep_in_sram)
 keep_in_sram   0x02000050       0x9c libmc300.a(etimer.o)
                0x02000050                etimer_request_poll
                0x0200005c                etimer_set
                0x02000074                etimer_set_icomm
                0x020000d4                etimer_pending
 keep_in_sram   0x020000ec      0x6c4 libmc300.a(printf.o)
                0x020000ec                printf
                0x02000148                uart_tx1
                0x02000428                print
                0x02000660                sprintf
                0x02000694                snprintf
                0x020006d8                vsprintf
                0x020006f8                vsnprintf
                0x02000724                icomprintf
 keep_in_sram   0x020007b0      0x50c libmc300.a(process.o)
                0x0200096c                process_exit
                0x0200097c                process_init
                0x020009d4                process_nevents
                0x020009f4                process_post
                0x02000ab8                process_post_synch
                0x02000ad4                process_start
                0x02000b34                process_poll
                0x02000b60                process_is_running
                0x02000b70                process_run
 keep_in_sram   0x02000cbc       0x4c libmc300.a(contiki-main.o)
                0x02000cbc                process_loop
                0x02000ce0                boot_clear_bss_patch
 keep_in_sram   0x02000d08       0xd4 libmc300.a(drv_uart.o)
                0x02000d08                drv_uart_rx_ready
                0x02000d28                drv_uart_rx
                0x02000d58                drv_uart_tx
                0x02000da4                drv_uart_40M
                0x02000db4                drv_uart_26M
                0x02000dc4                drv_uart_rx_0
 keep_in_sram   0x02000ddc      0x268 libmc300.a(hw_init.o)
                0x02000ddc                ssv_delay
                0x02000df4                ssv6xxx_rf_enable
                0x02000e08                ssv6xxx_rf_disable
                0x02000e1c                ssv6xxx_set_channel
 keep_in_sram   0x02001044       0x70 libmc300.a(ssv_lib.o)
                0x02001044                dma_memcpy
 keep_in_sram   0x020010b4      0x10c libmc300.a(swpwm.o)
                0x020010b4                do_pwm
 keep_in_sram   0x020011c0       0xb8 libmc300.a(xmem.o)
                0x020011c0                cabrio_flash_read_erase_write_in_sector_range
 keep_in_sram   0x02001278      0x2f0 libmc300.a(crypthw.o)
                0x02001278                sram_del_key
                0x02001330                sram_set_key
                0x020013fc                sram_set_wep
                0x02001454                wpa_drv_set_key
 keep_in_sram   0x02001568      0x49c libmc300.a(drv_pktbuf.o)
                0x02001568                ssv6xxx_mcu_input_full
                0x02001594                ssv6xxx_pbuf_dump_packet_buf
                0x020017a4                setpacketbuf_len
                0x020017bc                ssv6xxx_pbuf_alloc
                0x02001830                getpacketbuffer
                0x020018d0                ssv6xxx_pbuf_id_free
                0x02001980                ssv6xxx_pbuf_free
 keep_in_sram   0x02001a04      0x5cc libmc300.a(ieee80211_mgmt.)
                0x02001a04                getAvailableIndex
                0x02001a14                is_assoc_req
                0x02001a24                is_assoc_resp
                0x02001a38                is_reassoc_req
                0x02001a4c                is_reassoc_resp
                0x02001a60                is_probe_req
                0x02001a74                is_probe_resp
                0x02001a88                is_beacon
                0x02001a9c                is_atim
                0x02001ab0                is_disassoc
                0x02001ac4                is_auth
                0x02001ad8                is_deauth
                0x02001aec                find_eid_channel
                0x02001b38                updateRssiAndLevel
                0x02001bec                rx_process_check_ap
                0x02001e74                rx_process_mgmt
 keep_in_sram   0x02001fd0       0x34 libmc300.a(ieee80211_rdc.o)
 keep_in_sram   0x02002004      0x3bc libmc300.a(irq.o)
                0x02002004                irq_peri_handler
                0x0200209c                rx_packet_check
                0x020021fc                irq_mask_disable
                0x02002234                irq_mask_enable
                0x0200226c                irq_disable
                0x02002284                irq_enable
                0x0200229c                irq_dispatch
                0x02002398                do_irq
 keep_in_sram   0x020023c0       0xa4 libmc300.a(rate_control.o)
                0x020023c0                getctrlrate
                0x020023d4                navcalculate
 keep_in_sram   0x02002464      0xb74 libmc300.a(soft_ap.o)
                0x02002464                softap_set_peer_mac
                0x020024d0                softap_tx_beacon
                0x020025a4                softap_beacon_send
                0x020026c8                softap_rx_probe_request
                0x02002770                softap_rx_authenticate
                0x020027c0                softap_rx_assoc_req
                0x02002880                softap_tx_probe_response
                0x02002b0c                softap_tx_authenticate
                0x02002bf8                softap_tx_assoc_response
                0x02002d7c                softap_rx_process_data
                0x02002de8                softap_rx_process
 keep_in_sram   0x02002fd8       0x9c libmc300.a(ssv6200_rx.o)
                0x02003044                clearRxBuffer
 keep_in_sram   0x02003074      0x160 libmc300.a(hfat.o)
                0x02003108                hfat_uart_send
                0x02003110                str_escape
 keep_in_sram   0x020031d4      0x114 libmc300.a(hfdebug.o)
                0x020031d4                hfdbg_get_level
                0x020031e4                hfdbg_get_uartno
                0x02003200                HF_Debug
 keep_in_sram   0x020032e8       0x3c libmc300.a(hfuart.o)
                0x020032e8                hfuart_send
 keep_in_sram   0x02003324       0x18 libmc300.a(hfsys.o)
                0x02003324                hfsys_get_time
 keep_in_sram   0x0200333c       0xac libmc300.a(hfconfig.o)
                0x0200333c                verify_8bit
                0x02003388                hf_boot_update_ota_flag
 keep_in_sram   0x020033e8       0x5c libmc300.a(hfflash.o)
 keep_in_sram   0x02003444      0x778 libmc300.a(uart_thread.o)
                0x02003444                uart_irq
                0x02003554                uart_thread_cmd_mode
 keep_in_sram   0x02003bbc      0x204 libmc300.a(hfwifi.o)
                0x02003bbc                hfwifi_switch_power_mode
                0x02003cfc                hfwifi_powersave
                0x02003d5c                hfwifi_tcpip_ps
                0x02003db8                hfwifi_powersave_ex
 keep_in_sram   0x02003dc0       0xd4 libmc300.a(hfupdate.o)
                0x02003dc0                hfupdate_read_boot_ver
                0x02003e4c                hfupdate_check_is_new_boot
                0x02003e70                check_sum32
 keep_in_sram   0x02003e94      0xb5c libmc300.a(hfsmtlk.o)
                0x02003e94                hfsmtlk_default_sniffer_data_recv
                0x0200402c                hfsmtlk_check_is_retry_packet
                0x02004074                hfsmtlk_list_find_ap_by_bssid
                0x020040d4                hfsmtlk_decode
                0x020045e4                hfsmtlk_decode_mc
 keep_in_sram   0x020049f0      0x858 libmc300.a(smartlinkV3.o)
                0x020049f0                smartlink_correct
                0x02004c70                smartlink_get_verify_cnts
                0x02004ccc                smartlink_get_verify_code
                0x02004d3c                smartlink_correct_step1
                0x02004ea0                smartlink_save_one_seq
                0x0200518c                smartlinkv3_decode
 keep_in_sram   0x02005248      0x4b8 libmc300.a(smartlinkV7.o)
                0x02005248                smartlinkv7_check
 keep_in_sram   0x02005700      0x184 libmc300.a(hftimer.o)
                0x02005700                hw_timer_interrupt
 keep_in_sram   0x02005884       0x24 libmc300.a(hfsniffer.o)
                0x02005884                hfsniffer_default_data_recv
 keep_in_sram   0x020058a8       0xbc libmc300.a(ringbuf.o)
                0x020058a8                ringbuf_gets
                0x02005930                ringbuf_elements
 keep_in_sram   0x02005964       0xec libmc300.a(uip-udp-packet.)
                0x02005964                uip_udp_packet_send
                0x020059d4                uip_udp_packet_sendto
 keep_in_sram   0x02005a50      0x3a4 libmc300.a(uip_arp.o)
                0x02005a50                uip_arp_arpin
                0x02005bfc                uip_arp_out
 keep_in_sram   0x02005df4      0x150 libmc300.a(arc4.o)
                0x02005df4                arc4_setkey
                0x02005e6c                arc4_xor
                0x02005eec                arc4_skip
 keep_in_sram   0x02005f44        0x4 libmc300.a(airkiss.o)
                0x02005f44                rx_process_airkiss
 keep_in_sram   0x02005f48      0x1f0 libmc300.a(console.o)
                0x02005f48                drv_rx_txt
                0x02006114                cosnole_rx_handler
 keep_in_sram   0x02006138       0x5c libmc300.a(drv_gpio.o)
                0x02006138                get_PAD_Addr
                0x02006160                drv_gpio_read
 keep_in_sram   0x02006194      0x108 libmc300.a(drv_pmu.o)
                0x02006194                drv_pmu_powersave_mode
                0x02006200                drv_pmu_normal_mode
                0x02006284                drv_reset_pstate_txsend
                0x02006288                drv_reset_pstate_all
 keep_in_sram   0x0200629c       0x64 libmc300.a(serial_api.o)
                0x0200629c                SerialWrite
                0x020062e0                SerialRead
 keep_in_sram   0x02006300      0x138 libmc300.a(smartComm.o)
                0x02006300                getSmartCmdStatus
                0x0200631c                getSendToPhoneDataStatus
                0x0200632c                isSmartConfigDataFromPhone
                0x020063b0                isSmartConfigDataFromAP
 keep_in_sram   0x02006438       0x4c libmc300.a(userSmart.o)
                0x02006438                callBackFrame
                0x02006454                rx_process_userSmart
 keep_in_sram   0x02006484       0x30 libmc300.a(drv_mbox.o)
                0x02006484                drv_mailbox_cpu_ff
 keep_in_sram   0x020064b4      0x340 libmc300.a(hash_alg.o)
                0x020064b4                hmac_md5_cal
                0x02006504                hmac_sha1_cal
                0x02006554                prf_sha1
                0x02006650                pbkdf2_sha1_f
                0x02006754                pbkdf2_sha1
 keep_in_sram   0x020067f4      0x16c libmc300.a(hmac_md5.o)
                0x020067f4                hmac_md5_init
                0x020068c4                hmac_md5
 keep_in_sram   0x02006960      0x224 libmc300.a(hmac_sha1.o)
                0x02006960                hmac_sha1_init
                0x02006a64                hmac_sha1_end
 keep_in_sram   0x02006b84      0x734 libmc300.a(ieee80211_mac.o)
                0x02006f04                is_protectframe
                0x02006f10                is_data
                0x02006f24                is_mgmt
                0x02006f34                tx_pspoll
                0x02006fcc                rx_process_data
                0x020071a8                tx_nulldata_req
 keep_in_sram   0x020072b8      0x280 libmc300.a(sha1.o)
                0x020072b8                sha1hw_init
                0x02007314                sha1hw_input
                0x020073c4                sha1hw_end
                0x020074e0                sha1hw_end2
 keep_in_sram   0x02007538      0x6f8 libmc300.a(ssv6200_tx.o)
                0x02007538                ssv6200_transmit
                0x02007590                ssv6200_force_1M
                0x02007604                ssv6200_set_nav
                0x02007714                ssv6200_set_descriptor
 /usr/bin/../lib/gcc/arm-none-eabi/4.8.4/libgcc.a:_aeabi_uldivmod.o(.text .text* .rodata .rodata*)
 .text          0x02007c30       0x3c /usr/bin/../lib/gcc/arm-none-eabi/4.8.4/libgcc.a(_aeabi_uldivmod.o)
                0x02007c30                __aeabi_uldivmod
 /usr/bin/../lib/gcc/arm-none-eabi/4.8.4/libgcc.a:_divdi3.o(.text .text* .rodata .rodata*)
 .text          0x02007c6c      0x4d0 /usr/bin/../lib/gcc/arm-none-eabi/4.8.4/libgcc.a(_divdi3.o)
                0x02007c6c                __divdi3
 /usr/bin/../lib/gcc/arm-none-eabi/4.8.4/libgcc.a:bpabi.o(.text .text* .rodata .rodata*)
 .text          0x0200813c       0x84 /usr/bin/../lib/gcc/arm-none-eabi/4.8.4/libgcc.a(bpabi.o)
                0x0200813c                __gnu_ldivmod_helper
                0x02008180                __gnu_uldivmod_helper
 /usr/bin/../lib/gcc/arm-none-eabi/4.8.4/libgcc.a:_udivdi3.o(.text .text* .rodata .rodata*)
 .text          0x020081c0      0x470 /usr/bin/../lib/gcc/arm-none-eabi/4.8.4/libgcc.a(_udivdi3.o)
                0x020081c0                __udivdi3
 /usr/bin/../lib/gcc/arm-none-eabi/4.8.4/libgcc.a:_dvmd_tls.o(.text .text* .rodata .rodata*)
 .text          0x02008630        0x4 /usr/bin/../lib/gcc/arm-none-eabi/4.8.4/libgcc.a(_dvmd_tls.o)
                0x02008630                __aeabi_ldiv0
                0x02008630                __aeabi_idiv0
 /usr/bin/../lib/gcc/arm-none-eabi/4.8.4/libgcc.a:_divsi3.o(.text .text* .rodata .rodata*)
 .text          0x02008634      0x148 /usr/bin/../lib/gcc/arm-none-eabi/4.8.4/libgcc.a(_divsi3.o)
                0x02008634                __aeabi_idiv
                0x02008634                __divsi3
                0x0200875c                __aeabi_idivmod
 /usr/bin/../lib/gcc/arm-none-eabi/4.8.4/libgcc.a:_udivsi3.o(.text .text* .rodata .rodata*)
 .text          0x0200877c      0x114 /usr/bin/../lib/gcc/arm-none-eabi/4.8.4/libgcc.a(_udivsi3.o)
                0x0200877c                __udivsi3
                0x0200877c                __aeabi_uidiv
                0x02008870                __aeabi_uidivmod
 libmc300.a:uip.o(.text .text* .rodata .rodata*)
 .text          0x02008890        0x0 libmc300.a(uip.o)
 .text.chksum   0x02008890       0x74 libmc300.a(uip.o)
 .text.upper_layer_chksum
                0x02008904       0x70 libmc300.a(uip.o)
 .text.uip_getipid
                0x02008974       0x18 libmc300.a(uip.o)
                0x02008974                uip_getipid
 .text.uip_setipid
                0x0200898c       0x18 libmc300.a(uip.o)
                0x0200898c                uip_setipid
 .text.uip_add32
                0x020089a4       0xa8 libmc300.a(uip.o)
                0x020089a4                uip_add32
 .text.unlikely.uip_add_rcv_nxt
                0x02008a4c       0x4c libmc300.a(uip.o)
 .text.uip_chksum
                0x02008a98       0x2c libmc300.a(uip.o)
                0x02008a98                uip_chksum
 .text.uip_ipchksum
                0x02008ac4       0x38 libmc300.a(uip.o)
                0x02008ac4                uip_ipchksum
 .text.uip_tcpchksum
                0x02008afc        0x8 libmc300.a(uip.o)
                0x02008afc                uip_tcpchksum
 .text.uip_udpchksum
                0x02008b04        0x8 libmc300.a(uip.o)
                0x02008b04                uip_udpchksum
 .text.uip_init
                0x02008b0c       0xf0 libmc300.a(uip.o)
                0x02008b0c                uip_init
 .text.uip_checktcpsocket
                0x02008bfc       0x1c libmc300.a(uip.o)
                0x02008bfc                uip_checktcpsocket
 .text.uip_checkudpsocket
                0x02008c18       0x24 libmc300.a(uip.o)
                0x02008c18                uip_checkudpsocket
 .text.uip_printifconfig
                0x02008c3c       0x84 libmc300.a(uip.o)
                0x02008c3c                uip_printifconfig
 .text.uip_set_broadcast_addr
                0x02008cc0       0xbc libmc300.a(uip.o)
                0x02008cc0                uip_set_broadcast_addr
 .text.uip_gettcpconn
                0x02008d7c       0x20 libmc300.a(uip.o)
                0x02008d7c                uip_gettcpconn
 .text.uip_getudpconn
                0x02008d9c       0x28 libmc300.a(uip.o)
                0x02008d9c                uip_getudpconn
 .text.uip_setcurrtcpconn
                0x02008dc4       0x10 libmc300.a(uip.o)
                0x02008dc4                uip_setcurrtcpconn
 .text.uip_getcurrtcpconn
                0x02008dd4       0x10 libmc300.a(uip.o)
                0x02008dd4                uip_getcurrtcpconn
 .text.uip_getcurrudpconn
                0x02008de4       0x10 libmc300.a(uip.o)
                0x02008de4                uip_getcurrudpconn
 .text.set_random_lport
                0x02008df4      0x104 libmc300.a(uip.o)
                0x02008df4                set_random_lport
 .text.uip_connect
                0x02008ef8      0x1d4 libmc300.a(uip.o)
                0x02008ef8                uip_connect
 .text.uip_udp_new
                0x020090cc      0x13c libmc300.a(uip.o)
                0x020090cc                uip_udp_new
 .text.uip_unlisten
                0x02009208       0x64 libmc300.a(uip.o)
                0x02009208                uip_unlisten
 .text.uip_listen
                0x0200926c       0x60 libmc300.a(uip.o)
                0x0200926c                uip_listen
 .text.uip_checkgroupaddr
                0x020092cc       0x78 libmc300.a(uip.o)
                0x020092cc                uip_checkgroupaddr
 .text.uip_process
                0x02009344     0x17a8 libmc300.a(uip.o)
                0x02009344                uip_process
 .text.uip_force_send
                0x0200aaec       0x38 libmc300.a(uip.o)
                0x0200aaec                uip_force_send
 .text.uip_htons
                0x0200ab24       0x14 libmc300.a(uip.o)
                0x0200ab24                uip_htons
 .text.uip_htonl
                0x0200ab38       0x28 libmc300.a(uip.o)
                0x0200ab38                uip_htonl
 .text.uip_send
                0x0200ab60       0x5c libmc300.a(uip.o)
                0x0200ab60                uip_send
 .text.uip_set_hostaddr
                0x0200abbc       0x1c libmc300.a(uip.o)
                0x0200abbc                uip_set_hostaddr
 .rodata.uip_broadcast_addr
                0x0200abd8        0x4 libmc300.a(uip.o)
                0x0200abd8                uip_broadcast_addr
 .rodata.uip_all_zeroes_addr
                0x0200abdc        0x4 libmc300.a(uip.o)
                0x0200abdc                uip_all_zeroes_addr
 .rodata.str1.1
                0x0200abe0      0x10c libmc300.a(uip.o)
                                0x111 (size before relaxing)
 libmc300.a:uip-split.o(.text .text* .rodata .rodata*)
 .text          0x0200acec        0x0 libmc300.a(uip-split.o)
 .text.uip_split_output
                0x0200acec       0xcc libmc300.a(uip-split.o)
                0x0200acec                uip_split_output
 libmc300.a:psock.o(.text .text* .rodata .rodata*)
 libmc300.a:sha1.o(.text .text* .rodata .rodata*)
 libmc300.a:timer.o(.text .text* .rodata .rodata*)
 .text          0x0200adb8        0x0 libmc300.a(timer.o)
 .text.timer_set
                0x0200adb8       0x1c libmc300.a(timer.o)
                0x0200adb8                timer_set
 .text.timer_reset
                0x0200add4       0x20 libmc300.a(timer.o)
                0x0200add4                timer_reset
 .text.timer_restart
                0x0200adf4       0x14 libmc300.a(timer.o)
                0x0200adf4                timer_restart
 .text.timer_expired
                0x0200ae08       0x3c libmc300.a(timer.o)
                0x0200ae08                timer_expired
 .text.timer_remaining
                0x0200ae44       0x28 libmc300.a(timer.o)
                0x0200ae44                timer_remaining
 libmc300.a:clock.o(.text .text* .rodata .rodata*)
 .text          0x0200ae6c        0x0 libmc300.a(clock.o)
 .text.do_clock
                0x0200ae6c       0x7c libmc300.a(clock.o)
                0x0200ae6c                do_clock
 .text.clock_init
                0x0200aee8       0x64 libmc300.a(clock.o)
                0x0200aee8                clock_init
 .text.clock_time
                0x0200af4c       0x10 libmc300.a(clock.o)
                0x0200af4c                clock_time
 .text.clock_mseconds
                0x0200af5c       0x10 libmc300.a(clock.o)
                0x0200af5c                clock_mseconds
 .text.clock_seconds
                0x0200af6c       0x1c libmc300.a(clock.o)
                0x0200af6c                clock_seconds
 .text.clock_delay
                0x0200af88        0x4 libmc300.a(clock.o)
                0x0200af88                clock_delay
 .text.update_ntp_time
                0x0200af8c       0x3c libmc300.a(clock.o)
                0x0200af8c                update_ntp_time
 .text.get_ntp_time
                0x0200afc8       0x48 libmc300.a(clock.o)
                0x0200afc8                get_ntp_time
 libmc300.a:etimer.o(.text .text* .rodata .rodata*)
 .text          0x0200b010        0x0 libmc300.a(etimer.o)
 .text.update_time
                0x0200b010       0xa4 libmc300.a(etimer.o)
 .text.process_thread_etimer_process
                0x0200b0b4      0x124 libmc300.a(etimer.o)
 .text.add_timer
                0x0200b1d8       0x6c libmc300.a(etimer.o)
 .text.show_timer
                0x0200b244       0x70 libmc300.a(etimer.o)
                0x0200b244                show_timer
 .text.etimer_reset
                0x0200b2b4       0x18 libmc300.a(etimer.o)
                0x0200b2b4                etimer_reset
 .text.etimer_restart
                0x0200b2cc       0x18 libmc300.a(etimer.o)
                0x0200b2cc                etimer_restart
 .text.etimer_adjust
                0x0200b2e4       0x14 libmc300.a(etimer.o)
                0x0200b2e4                etimer_adjust
 .text.etimer_expired
                0x0200b2f8       0x10 libmc300.a(etimer.o)
                0x0200b2f8                etimer_expired
 .text.etimer_expiration_time
                0x0200b308       0x1c libmc300.a(etimer.o)
                0x0200b308                etimer_expiration_time
 .text.etimer_start_time
                0x0200b324        0x8 libmc300.a(etimer.o)
                0x0200b324                etimer_start_time
 .text.etimer_next_expiration_time
                0x0200b32c       0x30 libmc300.a(etimer.o)
                0x0200b32c                etimer_next_expiration_time
 .text.etimer_stop
                0x0200b35c       0x58 libmc300.a(etimer.o)
                0x0200b35c                etimer_stop
 .rodata.str1.1
                0x0200b3b4       0x1f libmc300.a(etimer.o)
 libmc300.a:tcpip.o(.text .text* .rodata .rodata*)
 .text          0x0200b3d3        0x0 libmc300.a(tcpip.o)
 *fill*         0x0200b3d3        0x1 
 .text.start_periodic_tcp_timer
                0x0200b3d4       0x24 libmc300.a(tcpip.o)
 .text.tcpip_output
                0x0200b3f8       0x2c libmc300.a(tcpip.o)
                0x0200b3f8                tcpip_output
 .text.process_thread_tcpip_process
                0x0200b424      0x384 libmc300.a(tcpip.o)
 .text.tcpip_set_outputfunc
                0x0200b7a8       0x10 libmc300.a(tcpip.o)
                0x0200b7a8                tcpip_set_outputfunc
 .text.change_periodic_tcp_timer
                0x0200b7b8       0x28 libmc300.a(tcpip.o)
                0x0200b7b8                change_periodic_tcp_timer
 .text.tcp_connect_icomm
                0x0200b7e0       0x54 libmc300.a(tcpip.o)
                0x0200b7e0                tcp_connect_icomm
 .text.tcp_listen_icomm
                0x0200b834       0x70 libmc300.a(tcpip.o)
                0x0200b834                tcp_listen_icomm
 .text.tcp_unlisten
                0x0200b8a4       0x6c libmc300.a(tcpip.o)
                0x0200b8a4                tcp_unlisten
 .text.tcp_listen
                0x0200b910       0x74 libmc300.a(tcpip.o)
                0x0200b910                tcp_listen
 .text.tcp_attach
                0x0200b984       0x18 libmc300.a(tcpip.o)
                0x0200b984                tcp_attach
 .text.udp_attach
                0x0200b99c       0x18 libmc300.a(tcpip.o)
                0x0200b99c                udp_attach
 .text.udp_new  0x0200b9b4       0x34 libmc300.a(tcpip.o)
                0x0200b9b4                udp_new
 .text.udp_new_icomm
                0x0200b9e8       0x30 libmc300.a(tcpip.o)
                0x0200b9e8                udp_new_icomm
 .text.udp_broadcast_new
                0x0200ba18       0x44 libmc300.a(tcpip.o)
                0x0200ba18                udp_broadcast_new
 .text.udp_jointgroup
                0x0200ba5c       0x38 libmc300.a(tcpip.o)
                0x0200ba5c                udp_jointgroup
 .text.tcpip_input
                0x0200ba94       0x30 libmc300.a(tcpip.o)
                0x0200ba94                tcpip_input
 .text.tcpip_poll_udp
                0x0200bac4       0x48 libmc300.a(tcpip.o)
                0x0200bac4                tcpip_poll_udp
 .text.tcpip_poll_tcp
                0x0200bb0c       0x14 libmc300.a(tcpip.o)
                0x0200bb0c                tcpip_poll_tcp
 .text.process_thread_TCP_arpcheck_process
                0x0200bb20      0x13c libmc300.a(tcpip.o)
 .text.tcp_connect
                0x0200bc5c       0x44 libmc300.a(tcpip.o)
                0x0200bc5c                tcp_connect
 .text.tcpip_uipcall
                0x0200bca0      0x118 libmc300.a(tcpip.o)
                0x0200bca0                tcpip_uipcall
 .rodata.str1.1
                0x0200bdb8       0xce libmc300.a(tcpip.o)
 libmc300.a:ieee80211_net.o(.text .text* .rodata .rodata*)
 .text          0x0200be86        0x0 libmc300.a(ieee80211_net.o)
 *fill*         0x0200be86        0x2 
 .text.input    0x0200be88      0x124 libmc300.a(ieee80211_net.o)
 .text.init     0x0200bfac        0xc libmc300.a(ieee80211_net.o)
 .text.packet_sent
                0x0200bfb8       0x1c libmc300.a(ieee80211_net.o)
 .text.output   0x0200bfd4       0x8c libmc300.a(ieee80211_net.o)
 .text.arp_packet_sent
                0x0200c060       0x64 libmc300.a(ieee80211_net.o)
                0x0200c060                arp_packet_sent
 .rodata.str1.1
                0x0200c0c4       0xf3 libmc300.a(ieee80211_net.o)
 *fill*         0x0200c1b7        0x1 
 .rodata.ieee80211_net
                0x0200c1b8        0xc libmc300.a(ieee80211_net.o)
                0x0200c1b8                ieee80211_net
 libmc300.a:ieee80211_rdc.o(.text .text* .rodata .rodata*)
 .text          0x0200c1c4        0x0 libmc300.a(ieee80211_rdc.o)
 .text.send_list
                0x0200c1c4        0xc libmc300.a(ieee80211_rdc.o)
 .text.on       0x0200c1d0       0x18 libmc300.a(ieee80211_rdc.o)
 .text.off      0x0200c1e8       0x18 libmc300.a(ieee80211_rdc.o)
 .text.channel_check_interval
                0x0200c200        0x8 libmc300.a(ieee80211_rdc.o)
 .text.init     0x0200c208        0x4 libmc300.a(ieee80211_rdc.o)
 .rodata.ieee80211_rdc
                0x0200c20c       0x20 libmc300.a(ieee80211_rdc.o)
                0x0200c20c                ieee80211_rdc
 .rodata.str1.1
                0x0200c22c        0xe libmc300.a(ieee80211_rdc.o)
 libmc300.a:packetbuf.o(.text .text* .rodata .rodata*)
 libmc300.a:drv_pktbuf.o(.text .text* .rodata .rodata*)
 .text          0x0200c23a        0x0 libmc300.a(drv_pktbuf.o)
 *fill*         0x0200c23a        0x2 
 .text.ssv6xxx_pbuf_empty
                0x0200c23c       0x20 libmc300.a(drv_pktbuf.o)
                0x0200c23c                ssv6xxx_pbuf_empty
 .text.ssv6xxx_pbuf_full
                0x0200c25c       0x24 libmc300.a(drv_pktbuf.o)
                0x0200c25c                ssv6xxx_pbuf_full
 .text.ssv6xxx_pbuf_push
                0x0200c280       0xf4 libmc300.a(drv_pktbuf.o)
                0x0200c280                ssv6xxx_pbuf_push
 .text.ssv6xxx_pbuf_pop
                0x0200c374       0xcc libmc300.a(drv_pktbuf.o)
                0x0200c374                ssv6xxx_pbuf_pop
 .rodata.__func__.4845
                0x0200c440       0x15 libmc300.a(drv_pktbuf.o)
 .rodata.__func__.4833
                0x0200c455       0x12 libmc300.a(drv_pktbuf.o)
 .rodata.str1.1
                0x0200c467      0x1d1 libmc300.a(drv_pktbuf.o)
 .rodata.__func__.4839
                0x0200c638       0x11 libmc300.a(drv_pktbuf.o)
 libmc300.a:ssvradio.o(.text .text* .rodata .rodata*)
 .text          0x0200c649        0x0 libmc300.a(ssvradio.o)
 *fill*         0x0200c649        0x3 
 .text.ssv6200_radio_prepare
                0x0200c64c        0x8 libmc300.a(ssvradio.o)
 .text.ssv6200_radio_transmit
                0x0200c654        0x8 libmc300.a(ssvradio.o)
 .text.ssv6200_radio_read
                0x0200c65c        0x8 libmc300.a(ssvradio.o)
 .text.ssv6200_radio_channel_clear
                0x0200c664        0x8 libmc300.a(ssvradio.o)
 .text.ssv6200_radio_receiving_packet
                0x0200c66c        0x8 libmc300.a(ssvradio.o)
 .text.ssv6200_radio_pending_packet
                0x0200c674        0x8 libmc300.a(ssvradio.o)
 .text.process_thread_ssv6200_radio_receive_process
                0x0200c67c      0x220 libmc300.a(ssvradio.o)
 .text.ssv6200_radio_off
                0x0200c89c       0x10 libmc300.a(ssvradio.o)
 .text.ssv6200_radio_on
                0x0200c8ac       0x10 libmc300.a(ssvradio.o)
 .text.ssv6200_radio_send
                0x0200c8bc       0x38 libmc300.a(ssvradio.o)
 .text.ssv6200_radio_init
                0x0200c8f4       0x94 libmc300.a(ssvradio.o)
 .text.ssv6200_radio_retrans
                0x0200c988       0x78 libmc300.a(ssvradio.o)
                0x0200c988                ssv6200_radio_retrans
 .rodata.__func__.6667
                0x0200ca00       0x2d libmc300.a(ssvradio.o)
 .rodata.str1.1
                0x0200ca2d       0x34 libmc300.a(ssvradio.o)
                                 0x79 (size before relaxing)
 *fill*         0x0200ca61        0x3 
 .rodata.ssv6200_radio_driver
                0x0200ca64       0x28 libmc300.a(ssvradio.o)
                0x0200ca64                ssv6200_radio_driver
 libmc300.a:ssv6200_rx.o(.text .text* .rodata .rodata*)
 .text          0x0200ca8c        0x0 libmc300.a(ssv6200_rx.o)
 .text.is_tx_active
                0x0200ca8c       0x44 libmc300.a(ssv6200_rx.o)
                0x0200ca8c                is_tx_active
 .text.ssv6200_dump_rx_descriptor
                0x0200cad0       0x44 libmc300.a(ssv6200_rx.o)
                0x0200cad0                ssv6200_dump_rx_descriptor
 .text.ssv6200_dump_null_data_mac
                0x0200cb14        0x4 libmc300.a(ssv6200_rx.o)
                0x0200cb14                ssv6200_dump_null_data_mac
 .text.filterPacketBuffer
                0x0200cb18      0x168 libmc300.a(ssv6200_rx.o)
                0x0200cb18                filterPacketBuffer
 .text.dropDataInSmartComm
                0x0200cc80      0x1a8 libmc300.a(ssv6200_rx.o)
                0x0200cc80                dropDataInSmartComm
 .text.rx_data_clear
                0x0200ce28       0x30 libmc300.a(ssv6200_rx.o)
                0x0200ce28                rx_data_clear
 .text.drop_packet
                0x0200ce58       0x30 libmc300.a(ssv6200_rx.o)
                0x0200ce58                drop_packet
 .text.STA_mac_rx_handler
                0x0200ce88      0x310 libmc300.a(ssv6200_rx.o)
                0x0200ce88                STA_mac_rx_handler
 .text.AP_mac_rx_handler
                0x0200d198      0x2b4 libmc300.a(ssv6200_rx.o)
                0x0200d198                AP_mac_rx_handler
 .rodata.str1.1
                0x0200d44c      0x15c libmc300.a(ssv6200_rx.o)
 .rodata.broadcast_ethaddr.6979
                0x0200d5a8        0x6 libmc300.a(ssv6200_rx.o)
 .rodata.__func__.6981
                0x0200d5ae       0x14 libmc300.a(ssv6200_rx.o)
 .rodata.__func__.6987
                0x0200d5c2        0xc libmc300.a(ssv6200_rx.o)
 libmc300.a:ssv6200_tx.o(.text .text* .rodata .rodata*)
 .text          0x0200d5ce        0x0 libmc300.a(ssv6200_tx.o)
 libmc300.a:throughput.o(.text .text* .rodata .rodata*)
 libmc300.a:rate_control.o(.text .text* .rodata .rodata*)
 .text          0x0200d5ce        0x0 libmc300.a(rate_control.o)
 *fill*         0x0200d5ce        0x2 
 .text.init_ratecontrol
                0x0200d5d0       0xec libmc300.a(rate_control.o)
                0x0200d5d0                init_ratecontrol
 .text.datarate_down
                0x0200d6bc       0x74 libmc300.a(rate_control.o)
                0x0200d6bc                datarate_down
 .text.datarate_up
                0x0200d730       0x8c libmc300.a(rate_control.o)
                0x0200d730                datarate_up
 .text.setup_custom_rate
                0x0200d7bc       0x18 libmc300.a(rate_control.o)
                0x0200d7bc                setup_custom_rate
 .rodata.ssv6xxx_rc_rate_set
                0x0200d7d4       0xd2 libmc300.a(rate_control.o)
                0x0200d7d4                ssv6xxx_rc_rate_set
 .rodata.str1.1
                0x0200d8a6       0x40 libmc300.a(rate_control.o)
                                 0x5f (size before relaxing)
 libmc300.a:strformat.o(.text .text* .rodata .rodata*)
 .text          0x0200d8e6        0x0 libmc300.a(strformat.o)
 *fill*         0x0200d8e6        0x2 
 .text.fill_space
                0x0200d8e8       0x64 libmc300.a(strformat.o)
 .text.format_str_v
                0x0200d94c      0xaa8 libmc300.a(strformat.o)
                0x0200d94c                format_str_v
 .text.format_str
                0x0200e3f4       0x28 libmc300.a(strformat.o)
                0x0200e3f4                format_str
 .rodata.str1.1
                0x0200e41c       0x35 libmc300.a(strformat.o)
                                 0x37 (size before relaxing)
 .rodata.buffer.3689
                0x0200e451       0x10 libmc300.a(strformat.o)
 .rodata.buffer.3698
                0x0200e461       0x10 libmc300.a(strformat.o)
 libmc300.a:debug-uart.o(.text .text* .rodata .rodata*)
 .text          0x0200e471        0x0 libmc300.a(debug-uart.o)
 *fill*         0x0200e471        0x3 
 .text.dbg_send_bytes
                0x0200e474       0x44 libmc300.a(debug-uart.o)
                0x0200e474                dbg_send_bytes
 .text.dbg_putchar
                0x0200e4b8       0x68 libmc300.a(debug-uart.o)
                0x0200e4b8                dbg_putchar
 .text.dbg_blocking_putchar
                0x0200e520       0x5c libmc300.a(debug-uart.o)
                0x0200e520                dbg_blocking_putchar
 .rodata.str1.1
                0x0200e57c        0x2 libmc300.a(debug-uart.o)
 libmc300.a:soft_ap.o(.text .text* .rodata .rodata*)
 .text          0x0200e57e        0x0 libmc300.a(soft_ap.o)
 *fill*         0x0200e57e        0x2 
 .text.softap_dump_log
                0x0200e580      0x198 libmc300.a(soft_ap.o)
                0x0200e580                softap_dump_log
 .text.softap_set_max_sta_num
                0x0200e718       0x24 libmc300.a(soft_ap.o)
                0x0200e718                softap_set_max_sta_num
 .text.softap_set_encryt_mode
                0x0200e73c       0x28 libmc300.a(soft_ap.o)
                0x0200e73c                softap_set_encryt_mode
 .text.softap_set_bssid
                0x0200e764        0xc libmc300.a(soft_ap.o)
                0x0200e764                softap_set_bssid
 .text.softap_reset_peer_mac
                0x0200e770       0x28 libmc300.a(soft_ap.o)
                0x0200e770                softap_reset_peer_mac
 .text.softap_set_passphras
                0x0200e798       0x68 libmc300.a(soft_ap.o)
                0x0200e798                softap_set_passphras
 .text.softap_reset_sta_info
                0x0200e800       0x7c libmc300.a(soft_ap.o)
                0x0200e800                softap_reset_sta_info
 .text.softap_reset_sta_state
                0x0200e87c       0x34 libmc300.a(soft_ap.o)
                0x0200e87c                softap_reset_sta_state
 .text.softap_reset_sta_all
                0x0200e8b0       0x60 libmc300.a(soft_ap.o)
                0x0200e8b0                softap_reset_sta_all
 .text.softap_incr_seq_no
                0x0200e910       0x54 libmc300.a(soft_ap.o)
                0x0200e910                softap_incr_seq_no
 .text.softap_get_timestamp
                0x0200e964       0x10 libmc300.a(soft_ap.o)
                0x0200e964                softap_get_timestamp
 .text.softap_incr_sta_idle_timer
                0x0200e974       0x54 libmc300.a(soft_ap.o)
                0x0200e974                softap_incr_sta_idle_timer
 .text.softap_get_sta_connected
                0x0200e9c8       0x28 libmc300.a(soft_ap.o)
                0x0200e9c8                softap_get_sta_connected
 .text.softap_get_sta_connected_number
                0x0200e9f0       0x1c libmc300.a(soft_ap.o)
                0x0200e9f0                softap_get_sta_connected_number
 .text.softap_incre_sta_connected_number
                0x0200ea0c       0xa0 libmc300.a(soft_ap.o)
                0x0200ea0c                softap_incre_sta_connected_number
 .text.softap_decre_sta_connected_number
                0x0200eaac       0x94 libmc300.a(soft_ap.o)
                0x0200eaac                softap_decre_sta_connected_number
 .text.softap_reset_sta_idle_timer
                0x0200eb40       0x38 libmc300.a(soft_ap.o)
                0x0200eb40                softap_reset_sta_idle_timer
 .text.softap_get_sta_index_by_mac
                0x0200eb78       0x70 libmc300.a(soft_ap.o)
                0x0200eb78                softap_get_sta_index_by_mac
 .text.softap_reset_sta_idle_timer_by_mac
                0x0200ebe8       0x40 libmc300.a(soft_ap.o)
                0x0200ebe8                softap_reset_sta_idle_timer_by_mac
 .text.softap_sta_timeouted
                0x0200ec28       0xb8 libmc300.a(soft_ap.o)
                0x0200ec28                softap_sta_timeouted
 .text.softap_reset_tx_nulldata_idle_timer
                0x0200ece0       0x60 libmc300.a(soft_ap.o)
                0x0200ece0                softap_reset_tx_nulldata_idle_timer
 .text.softap_chk_if_connected_sta
                0x0200ed40       0x78 libmc300.a(soft_ap.o)
                0x0200ed40                softap_chk_if_connected_sta
 .text.softap_push_sta_info
                0x0200edb8       0xac libmc300.a(soft_ap.o)
                0x0200edb8                softap_push_sta_info
 .text.softap_sta_assoc_resp_acked
                0x0200ee64      0x18c libmc300.a(soft_ap.o)
                0x0200ee64                softap_sta_assoc_resp_acked
 .text.softap_get_allow_connection
                0x0200eff0       0x7c libmc300.a(soft_ap.o)
                0x0200eff0                softap_get_allow_connection
 .text.softap_set_state_dhcp_rack
                0x0200f06c       0x14 libmc300.a(soft_ap.o)
                0x0200f06c                softap_set_state_dhcp_rack
 .text.softap_set_ip_info
                0x0200f080       0x3c libmc300.a(soft_ap.o)
                0x0200f080                softap_set_ip_info
 .text.softap_tx_nulldata
                0x0200f0bc       0xd0 libmc300.a(soft_ap.o)
                0x0200f0bc                softap_tx_nulldata
 .text.process_thread_softap_tx_nulldata_process
                0x0200f18c      0x154 libmc300.a(soft_ap.o)
 .text.softap_init_tx_beacon
                0x0200f2e0      0x288 libmc300.a(soft_ap.o)
                0x0200f2e0                softap_init_tx_beacon
 .text.softap_disable_autobeacon
                0x0200f568       0x14 libmc300.a(soft_ap.o)
                0x0200f568                softap_disable_autobeacon
 .text.softap_set_channel_setting
                0x0200f57c       0x2c libmc300.a(soft_ap.o)
                0x0200f57c                softap_set_channel_setting
 .text.softap_change_channel
                0x0200f5a8       0x30 libmc300.a(soft_ap.o)
                0x0200f5a8                softap_change_channel
 .text.softap_rx_check_RSN
                0x0200f5d8       0xac libmc300.a(soft_ap.o)
                0x0200f5d8                softap_rx_check_RSN
 .text.softap_rx_deauth
                0x0200f684       0x44 libmc300.a(soft_ap.o)
                0x0200f684                softap_rx_deauth
 .text.softap_rx_disassoc
                0x0200f6c8       0x44 libmc300.a(soft_ap.o)
                0x0200f6c8                softap_rx_disassoc
 .text.softap_rx_reassoc_req
                0x0200f70c       0xc0 libmc300.a(soft_ap.o)
                0x0200f70c                softap_rx_reassoc_req
 .text.softap_tx_deauth
                0x0200f7cc       0xdc libmc300.a(soft_ap.o)
                0x0200f7cc                softap_tx_deauth
 .text.softap_tx_deauth_connected
                0x0200f8a8      0x12c libmc300.a(soft_ap.o)
                0x0200f8a8                softap_tx_deauth_connected
 .text.softap_tx_deauth_unknown_sta
                0x0200f9d4       0xf0 libmc300.a(soft_ap.o)
                0x0200f9d4                softap_tx_deauth_unknown_sta
 .text.softap_tx_disassoc
                0x0200fac4       0xf4 libmc300.a(soft_ap.o)
                0x0200fac4                softap_tx_disassoc
 .text.softap_tx_reassoc_response
                0x0200fbb8      0x184 libmc300.a(soft_ap.o)
                0x0200fbb8                softap_tx_reassoc_response
 .text.softap_process_all_sta_timeouted
                0x0200fd3c       0xac libmc300.a(soft_ap.o)
                0x0200fd3c                softap_process_all_sta_timeouted
 .text.process_thread_softap_mgm_process
                0x0200fde8      0x184 libmc300.a(soft_ap.o)
 .text.softap_dhcp_start
                0x0200ff6c       0x18 libmc300.a(soft_ap.o)
                0x0200ff6c                softap_dhcp_start
 .text.softap_dhcp_leasetime
                0x0200ff84       0x30 libmc300.a(soft_ap.o)
                0x0200ff84                softap_dhcp_leasetime
 .text.softap_set_mng_queue
                0x0200ffb4       0xc4 libmc300.a(soft_ap.o)
                0x0200ffb4                softap_set_mng_queue
 .text.softap_reset_mng_queue
                0x02010078       0x7c libmc300.a(soft_ap.o)
                0x02010078                softap_reset_mng_queue
 .text.softap_start
                0x020100f4      0x1e0 libmc300.a(soft_ap.o)
                0x020100f4                softap_start
 .text.softap_exit
                0x020102d4       0xcc libmc300.a(soft_ap.o)
                0x020102d4                softap_exit
 .rodata        0x020103a0        0x6 libmc300.a(soft_ap.o)
 .rodata.__func__.8588
                0x020103a6       0x11 libmc300.a(soft_ap.o)
 .rodata.__func__.8308
                0x020103b7       0x16 libmc300.a(soft_ap.o)
 .rodata.__func__.8599
                0x020103cd       0x1b libmc300.a(soft_ap.o)
 .rodata.__func__.8631
                0x020103e8       0x19 libmc300.a(soft_ap.o)
 .rodata.__func__.8476
                0x02010401       0x11 libmc300.a(soft_ap.o)
 .rodata.__func__.8342
                0x02010412       0x22 libmc300.a(soft_ap.o)
 .rodata.__func__.8707
                0x02010434       0x13 libmc300.a(soft_ap.o)
 .rodata.__func__.8348
                0x02010447       0x22 libmc300.a(soft_ap.o)
 .rodata.__func__.8450
                0x02010469       0x13 libmc300.a(soft_ap.o)
 .rodata.__func__.8727
                0x0201047c        0xd libmc300.a(soft_ap.o)
 .rodata.__func__.8643
                0x02010489       0x1b libmc300.a(soft_ap.o)
 .rodata.__func__.8714
                0x020104a4       0x16 libmc300.a(soft_ap.o)
 .rodata.__func__.8382
                0x020104ba       0x24 libmc300.a(soft_ap.o)
 .rodata.__func__.8610
                0x020104de       0x1d libmc300.a(soft_ap.o)
 .rodata.str1.1
                0x020104fb      0x3ba libmc300.a(soft_ap.o)
                                0x40e (size before relaxing)
 .rodata.__func__.8569
                0x020108b5       0x19 libmc300.a(soft_ap.o)
 .rodata.__func__.8620
                0x020108ce       0x13 libmc300.a(soft_ap.o)
 .rodata.__func__.8578
                0x020108e1       0x17 libmc300.a(soft_ap.o)
 libmc300.a:xmem.o(.text .text* .rodata .rodata*)
 .text          0x020108f8        0x0 libmc300.a(xmem.o)
 .text.cabrio_flash_init
                0x020108f8        0x4 libmc300.a(xmem.o)
                0x020108f8                cabrio_flash_init
 .text.cabrio_flash_get_base_adddr
                0x020108fc        0x4 libmc300.a(xmem.o)
                0x020108fc                cabrio_flash_get_base_adddr
 .text.cabrio_flash_read
                0x02010900       0x2c libmc300.a(xmem.o)
                0x02010900                cabrio_flash_read
 .text.cabrio_flash_write_only
                0x0201092c       0x40 libmc300.a(xmem.o)
                0x0201092c                cabrio_flash_write_only
 .text.cabrio_flash_read_erase_write
                0x0201096c       0x5c libmc300.a(xmem.o)
                0x0201096c                cabrio_flash_read_erase_write
 .text.cabrio_flash_erase_marker_sector
                0x020109c8       0x2c libmc300.a(xmem.o)
                0x020109c8                cabrio_flash_erase_marker_sector
 .text.cabrio_flash_erase
                0x020109f4       0x88 libmc300.a(xmem.o)
                0x020109f4                cabrio_flash_erase
 libmc300.a:drv_flash.o(.text .text* .rodata .rodata*)
 .text          0x02010a7c        0x0 libmc300.a(drv_flash.o)
 .text.drv_memcpy
                0x02010a7c       0x1c libmc300.a(drv_flash.o)
                0x02010a7c                drv_memcpy
 .text.drv_flash_get_cache_addr
                0x02010a98        0xc libmc300.a(drv_flash.o)
                0x02010a98                drv_flash_get_cache_addr
 .text.drv_flash_get_base_addr
                0x02010aa4       0x10 libmc300.a(drv_flash.o)
                0x02010aa4                drv_flash_get_base_addr
 .text.drv_flash_write_cmd
                0x02010ab4       0x14 libmc300.a(drv_flash.o)
                0x02010ab4                drv_flash_write_cmd
 .text.drv_flash_init
                0x02010ac8       0xcc libmc300.a(drv_flash.o)
                0x02010ac8                drv_flash_init
 .text.drv_flash_wait_spi_busy
                0x02010b94       0x34 libmc300.a(drv_flash.o)
                0x02010b94                drv_flash_wait_spi_busy
 .text.drv_flash_read_spi_status_regsiter
                0x02010bc8       0x64 libmc300.a(drv_flash.o)
                0x02010bc8                drv_flash_read_spi_status_regsiter
 .text.drv_flash_read_cid
                0x02010c2c       0x5c libmc300.a(drv_flash.o)
                0x02010c2c                drv_flash_read_cid
 .text.drv_flash_read_devid
                0x02010c88       0x5c libmc300.a(drv_flash.o)
                0x02010c88                drv_flash_read_devid
 .text.drv_check_flash_is_valid
                0x02010ce4       0xa8 libmc300.a(drv_flash.o)
                0x02010ce4                drv_check_flash_is_valid
 .text.drv_flash_wait_spi_status_regsiter
                0x02010d8c       0x3c libmc300.a(drv_flash.o)
                0x02010d8c                drv_flash_wait_spi_status_regsiter
 .text.drv_flash_write_enable
                0x02010dc8       0x48 libmc300.a(drv_flash.o)
                0x02010dc8                drv_flash_write_enable
 .text.drv_flash_block_erase
                0x02010e10       0x60 libmc300.a(drv_flash.o)
                0x02010e10                drv_flash_block_erase
 .text.drv_flash_sector_erase
                0x02010e70       0x60 libmc300.a(drv_flash.o)
                0x02010e70                drv_flash_sector_erase
 .text.drv_flash_page_program_for_erase
                0x02010ed0       0x68 libmc300.a(drv_flash.o)
                0x02010ed0                drv_flash_page_program_for_erase
 .text.drv_flash_page_program
                0x02010f38       0x68 libmc300.a(drv_flash.o)
                0x02010f38                drv_flash_page_program
 .text.drv_flash_read
                0x02010fa0       0x84 libmc300.a(drv_flash.o)
                0x02010fa0                drv_flash_read
 .text.drv_flash_read_jedec_id
                0x02011024       0x84 libmc300.a(drv_flash.o)
                0x02011024                drv_flash_read_jedec_id
 libmc300.a:flash_api.o(.text .text* .rodata .rodata*)
 .text          0x020110a8        0x0 libmc300.a(flash_api.o)
 .text.spi_flash_init
                0x020110a8       0x10 libmc300.a(flash_api.o)
                0x020110a8                spi_flash_init
 .text.spi_flash_read
                0x020110b8       0x2c libmc300.a(flash_api.o)
                0x020110b8                spi_flash_read
 .text.spi_flash_sector_erase
                0x020110e4       0x40 libmc300.a(flash_api.o)
                0x020110e4                spi_flash_sector_erase
 .text.spi_flash_block_erase
                0x02011124       0x40 libmc300.a(flash_api.o)
                0x02011124                spi_flash_block_erase
 .text.spi_flash_erase_pages
                0x02011164       0x44 libmc300.a(flash_api.o)
                0x02011164                spi_flash_erase_pages
 .text.spi_flash_write
                0x020111a8       0x48 libmc300.a(flash_api.o)
                0x020111a8                spi_flash_write
 .text.spi_flash_finalize_ex
                0x020111f0       0x70 libmc300.a(flash_api.o)
                0x020111f0                spi_flash_finalize_ex
 .text.spi_flash_finalize
                0x02011260        0x8 libmc300.a(flash_api.o)
                0x02011260                spi_flash_finalize
 .text.spi_flash_write_directly
                0x02011268       0x78 libmc300.a(flash_api.o)
                0x02011268                spi_flash_write_directly
 .text.spi_flash_test
                0x020112e0       0xa0 libmc300.a(flash_api.o)
                0x020112e0                spi_flash_test
 .text.spi_flash_cutom_cmd
                0x02011380        0x8 libmc300.a(flash_api.o)
                0x02011380                spi_flash_cutom_cmd
 .text.spi_flash_read_jedec
                0x02011388       0x7c libmc300.a(flash_api.o)
                0x02011388                spi_flash_read_jedec
 .rodata.str1.1
                0x02011404       0xe0 libmc300.a(flash_api.o)
                                 0xe2 (size before relaxing)
 libmc300.a:hw_regs_api.o(.text .text* .rodata .rodata*)
 .text          0x020114e4        0x0 libmc300.a(hw_regs_api.o)
 .text.hw_reg_write
                0x020114e4        0xc libmc300.a(hw_regs_api.o)
                0x020114e4                hw_reg_write
 .text.hw_reg_read
                0x020114f0       0x10 libmc300.a(hw_regs_api.o)
                0x020114f0                hw_reg_read
 .text.hw_reg_set_bits
                0x02011500       0x18 libmc300.a(hw_regs_api.o)
                0x02011500                hw_reg_set_bits
 libmc300.a:powersave.o(.text .text* .rodata .rodata*)
 .text          0x02011518        0x0 libmc300.a(powersave.o)
 .text.set_power_waketime
                0x02011518       0x90 libmc300.a(powersave.o)
                0x02011518                set_power_waketime
 .text.set_power_sleeptime
                0x020115a8       0x6c libmc300.a(powersave.o)
                0x020115a8                set_power_sleeptime
 .text.disable_power_waketime
                0x02011614       0x14 libmc300.a(powersave.o)
                0x02011614                disable_power_waketime
 .text.disable_power_sleeptime
                0x02011628       0x14 libmc300.a(powersave.o)
                0x02011628                disable_power_sleeptime
 .text.is_waketime_alive
                0x0201163c       0x38 libmc300.a(powersave.o)
                0x0201163c                is_waketime_alive
 .text.findTIM  0x02011674      0x118 libmc300.a(powersave.o)
                0x02011674                findTIM
 .text.Switch_Power_mode
                0x0201178c       0x40 libmc300.a(powersave.o)
                0x0201178c                Switch_Power_mode
 .text.timerintr_handler
                0x020117cc       0xdc libmc300.a(powersave.o)
                0x020117cc                timerintr_handler
 .text.powersave_start_run
                0x020118a8       0x6c libmc300.a(powersave.o)
                0x020118a8                powersave_start_run
 .text.powersave_stop_run
                0x02011914       0x48 libmc300.a(powersave.o)
                0x02011914                powersave_stop_run
 .text.process_thread_power_wake_process
                0x0201195c       0xdc libmc300.a(powersave.o)
 .rodata.str1.1
                0x02011a38       0x4c libmc300.a(powersave.o)
 libmc300.a:socket_driver.o(.text .text* .rodata .rodata*)
 .text          0x02011a84        0x0 libmc300.a(socket_driver.o)
 .text.process_thread_udp_driver_process
                0x02011a84       0xdc libmc300.a(socket_driver.o)
 .text.getpeerIPv4addr
                0x02011b60       0x30 libmc300.a(socket_driver.o)
                0x02011b60                getpeerIPv4addr
 .text.set_tcp_timeout
                0x02011b90        0x4 libmc300.a(socket_driver.o)
                0x02011b90                set_tcp_timeout
 .text.tcp_set_send_cache
                0x02011b94       0x98 libmc300.a(socket_driver.o)
                0x02011b94                tcp_set_send_cache
 .text.tcp_set_send_buffer_size
                0x02011c2c        0x8 libmc300.a(socket_driver.o)
                0x02011c2c                tcp_set_send_buffer_size
 .text.tcpsend  0x02011c34      0x134 libmc300.a(socket_driver.o)
                0x02011c34                tcpsend
 .text.tcprecv  0x02011d68       0xd8 libmc300.a(socket_driver.o)
                0x02011d68                tcprecv
 .text.tcpevent_handle
                0x02011e40      0x308 libmc300.a(socket_driver.o)
                0x02011e40                tcpevent_handle
 .text.process_thread_tcp_driver_process
                0x02012148       0x80 libmc300.a(socket_driver.o)
 .text.tcpconnect
                0x020121c8       0x74 libmc300.a(socket_driver.o)
                0x020121c8                tcpconnect
 .text.tcpclose
                0x0201223c       0x48 libmc300.a(socket_driver.o)
                0x0201223c                tcpclose
 .text.tcplisten
                0x02012284       0x20 libmc300.a(socket_driver.o)
                0x02012284                tcplisten
 .text.tcpunlisten
                0x020122a4       0x10 libmc300.a(socket_driver.o)
                0x020122a4                tcpunlisten
 .text.tcpattch
                0x020122b4       0x20 libmc300.a(socket_driver.o)
                0x020122b4                tcpattch
 .text.udpcreate
                0x020122d4       0x48 libmc300.a(socket_driver.o)
                0x020122d4                udpcreate
 .text.udpjointgroup
                0x0201231c       0x44 libmc300.a(socket_driver.o)
                0x0201231c                udpjointgroup
 .text.udpclose
                0x02012360       0x20 libmc300.a(socket_driver.o)
                0x02012360                udpclose
 .text.udpsendto
                0x02012380       0x9c libmc300.a(socket_driver.o)
                0x02012380                udpsendto
 .text.udprecvfrom
                0x0201241c      0x11c libmc300.a(socket_driver.o)
                0x0201241c                udprecvfrom
 .rodata.str1.1
                0x02012538       0x29 libmc300.a(socket_driver.o)
 libmc300.a:pstm.o(.text .text* .rodata .rodata*)
 libmc300.a:pstmmonreduce.o(.text .text* .rodata .rodata*)
 libmc300.a:pstmmulcomba.o(.text .text* .rodata .rodata*)
 libmc300.a:pstmsqrcomba.o(.text .text* .rodata .rodata*)
 libmc300.a:asn1.o(.text .text* .rodata .rodata*)
 libmc300.a:x905.o(.text .text* .rodata .rodata*)
 libmc300.a:sha512.o(.text .text* .rodata .rodata*)
 libmc300.a:sha384.o(.text .text* .rodata .rodata*)
 libmc300.a:sha256.o(.text .text* .rodata .rodata*)
 libmc300.a:ssv_lib.o(.text .text* .rodata .rodata*)
 .text          0x02012561        0x0 libmc300.a(ssv_lib.o)
 *fill*         0x02012561        0x3 
 .text._sbrk    0x02012564       0x58 libmc300.a(ssv_lib.o)
                0x02012564                _sbrk
 .text.strlen   0x020125bc       0x20 libmc300.a(ssv_lib.o)
                0x020125bc                strlen
 .text.memcmp   0x020125dc       0x38 libmc300.a(ssv_lib.o)
                0x020125dc                memcmp
 .text.memcpy   0x02012614       0x48 libmc300.a(ssv_lib.o)
                0x02012614                memcpy
 .text.memmove  0x0201265c       0x78 libmc300.a(ssv_lib.o)
                0x0201265c                memmove
 .text.memset   0x020126d4       0x20 libmc300.a(ssv_lib.o)
                0x020126d4                memset
 .text.strncpy  0x020126f4       0x44 libmc300.a(ssv_lib.o)
                0x020126f4                strncpy
 .text.strcpy   0x02012738       0x1c libmc300.a(ssv_lib.o)
                0x02012738                strcpy
 .text.strcmp   0x02012754       0x30 libmc300.a(ssv_lib.o)
                0x02012754                strcmp
 .text.strncmp  0x02012784       0x48 libmc300.a(ssv_lib.o)
                0x02012784                strncmp
 .text.strchr   0x020127cc       0x34 libmc300.a(ssv_lib.o)
                0x020127cc                strchr
 .text.strstr   0x02012800       0x68 libmc300.a(ssv_lib.o)
                0x02012800                strstr
 .text.strcat   0x02012868       0x30 libmc300.a(ssv_lib.o)
                0x02012868                strcat
 .text.strtok   0x02012898       0xa0 libmc300.a(ssv_lib.o)
                0x02012898                strtok
 .text.dbg_running_in_irq
                0x02012938       0x18 libmc300.a(ssv_lib.o)
                0x02012938                dbg_running_in_irq
 .rodata.str1.1
                0x02012950       0x46 libmc300.a(ssv_lib.o)
 libmc300.a:aes.o(.text .text* .rodata .rodata*)
 .text          0x02012996        0x0 libmc300.a(aes.o)
 *fill*         0x02012996        0x2 
 .text.setup_mix
                0x02012998       0x4c libmc300.a(aes.o)
 .text.setup_mix2
                0x020129e4       0x58 libmc300.a(aes.o)
 .text.psAesEncryptBlock.part.0
                0x02012a3c      0x378 libmc300.a(aes.o)
 .text.psAesDecryptBlock.part.1
                0x02012db4      0x378 libmc300.a(aes.o)
 .text.psAesInitKey
                0x0201312c      0x404 libmc300.a(aes.o)
                0x0201312c                psAesInitKey
 .text.psAesInit
                0x02013530       0x88 libmc300.a(aes.o)
                0x02013530                psAesInit
 .text.psAesEncryptBlock
                0x020135b8       0x18 libmc300.a(aes.o)
                0x020135b8                psAesEncryptBlock
 .text.psAesEncrypt
                0x020135d0       0xe0 libmc300.a(aes.o)
                0x020135d0                psAesEncrypt
 .text.psAesDecryptBlock
                0x020136b0       0x18 libmc300.a(aes.o)
                0x020136b0                psAesDecryptBlock
 .text.psAesDecrypt
                0x020136c8      0x100 libmc300.a(aes.o)
                0x020136c8                psAesDecrypt
 .text.AES_convert_key2
                0x020137c8       0xc4 libmc300.a(aes.o)
                0x020137c8                AES_convert_key2
 .text.aes_wrap2
                0x0201388c       0xe0 libmc300.a(aes.o)
                0x0201388c                aes_wrap2
 .text.aes_unwrap2
                0x0201396c      0x140 libmc300.a(aes.o)
                0x0201396c                aes_unwrap2
 .rodata.str1.1
                0x02013aac       0x12 libmc300.a(aes.o)
 *fill*         0x02013abe        0x2 
 .rodata.TD0    0x02013ac0      0x400 libmc300.a(aes.o)
 .rodata.TE0    0x02013ec0      0x400 libmc300.a(aes.o)
 .rodata.rcon   0x020142c0       0x28 libmc300.a(aes.o)
 .rodata.Td4    0x020142e8      0x410 libmc300.a(aes.o)
 .rodata.Te4    0x020146f8      0x400 libmc300.a(aes.o)
 libmc300.a:sha1ssl.o(.text .text* .rodata .rodata*)
 *(.text.process_thread*)
                0x02014af8                . = ALIGN (0x4)
                0x02000000                _tbeg_dst = ORIGIN (ram)
                0x0304e5c0                _sitxt3 = (LOADADDR (prog_in_flash) + SIZEOF (prog_in_flash))
                0x0304e5c0                _tbeg_src = LOADADDR (prog_in_sram)
                0x02014af8                _tend_dst = (_tbeg_dst + SIZEOF (prog_in_sram))

.ARM            0x02014af8        0x8 load address 0x030630b8
 *(.ARM.exidx*)
 .ARM.exidx     0x02014af8        0x8 /usr/bin/../lib/gcc/arm-none-eabi/4.8.4/libgcc.a(_divdi3.o)
 .ARM.exidx     0x02014b00        0x0 /usr/bin/../lib/gcc/arm-none-eabi/4.8.4/libgcc.a(_udivdi3.o)
                                  0x8 (size before relaxing)
                0x02014b00                _tend_dst = .

.data           0x02014b00     0x1040 load address 0x030630c0
                0x02014b00                _dbeg_dst = .
 *(EXCLUDE_FILE(libmc300.a:boot-hiflying.o) .data)
 .data          0x02014b00        0x0 /tmp/ccsDtpxU.o
 .data          0x02014b00        0x0 /tmp/ccrvIGXc.o
 .data          0x02014b00        0x0 main.o
 .data          0x02014b00        0x0 userapps.a(app_main.o)
 .data          0x02014b00        0x0 userapps.a(hm_system.o)
 .data          0x02014b00        0x0 userapps.a(RCLutils.o)
 .data          0x02014b00        0x0 userapps.a(hm_app_main.o)
 .data          0x02014b00        0x0 userapps.a(hm_uart.o)
 .data          0x02014b00        0x0 userapps.a(hm_uart_handle.)
 .data          0x02014b00        0x0 userapps.a(hm_connect_clou)
 .data          0x02014b00        0x0 userapps.a(hm_sub_devsend_)
 .data          0x02014b00        0x0 userapps.a(hm_bind_json_pr)
 .data          0x02014b00        0x0 userapps.a(hm_dev_model.o)
 .data          0x02014b00        0x0 userapps.a(hm_parameter.o)
 .data          0x02014b00        0x0 userapps.a(hm_link.o)
 .data          0x02014b00        0x0 userapps.a(hm_wifi_frame.o)
 .data          0x02014b00        0x0 userapps.a(hm_MD5_sum.o)
 .data          0x02014b00        0x0 userapps.a(md5sum.o)
 .data          0x02014b00        0x0 libmc300.a(etimer.o)
 .data          0x02014b00        0x0 libmc300.a(printf.o)
 .data          0x02014b00        0x0 libmc300.a(process.o)
 .data          0x02014b00        0x0 libmc300.a(strformat.o)
 .data          0x02014b00        0x0 libmc300.a(timer.o)
 .data          0x02014b00        0x0 libmc300.a(clock.o)
 .data          0x02014b00        0x0 libmc300.a(contiki-main.o)
 .data          0x02014b00        0x0 libmc300.a(debug-uart.o)
 .data          0x02014b00        0x0 libmc300.a(drv_timer.o)
 .data          0x02014b00        0x0 libmc300.a(drv_uart.o)
 .data          0x02014b00        0x0 libmc300.a(hw_init.o)
 .data          0x02014b00        0x0 libmc300.a(hw_regs_api.o)
 .data          0x02014b00        0x0 libmc300.a(ssv_lib.o)
 .data          0x02014b00        0x0 libmc300.a(swpwm.o)
 .data          0x02014b00        0x0 libmc300.a(systemconf.o)
 .data          0x02014b00        0x0 libmc300.a(wdog_api.o)
 .data          0x02014b00        0x0 libmc300.a(xmem.o)
 .data          0x02014b00        0x0 libmc300.a(bsp.o)
 .data          0x02014b00        0x0 libmc300.a(crypthw.o)
 .data          0x02014b00        0x0 libmc300.a(dbg-atcmd-api.o)
 .data          0x02014b00        0x0 libmc300.a(drv_mac.o)
 .data          0x02014b00        0x0 libmc300.a(drv_phy.o)
 .data          0x02014b00        0x0 libmc300.a(drv_pktbuf.o)
 .data          0x02014b00        0x0 libmc300.a(drv_pktbuf_slow)
 .data          0x02014b00        0x0 libmc300.a(ieee80211_mgmt.)
 .data          0x02014b00        0x0 libmc300.a(ieee80211_rdc.o)
 .data          0x02014b00        0x0 libmc300.a(irq.o)
 .data          0x02014b00        0x0 libmc300.a(netstack.o)
 .data          0x02014b00        0x0 libmc300.a(powersave.o)
 .data          0x02014b00        0x0 libmc300.a(rate_control.o)
 .data          0x02014b00        0x0 libmc300.a(soft_ap.o)
 .data          0x02014b00        0x0 libmc300.a(ssv6200_rx.o)
 .data          0x02014b00        0x0 libmc300.a(ssvradio.o)
 .data          0x02014b00        0x0 libmc300.a(wpa.o)
 .data          0x02014b00        0x0 libmc300.a(aes.o)
 .data          0x02014b00        0x0 libmc300.a(hfat.o)
 .data          0x02014b00        0x0 libmc300.a(at_wifi_cmd.o)
 .data          0x02014b00        0x0 libmc300.a(at_network_cmd.)
 .data          0x02014b00        0x0 libmc300.a(hfgpio.o)
 .data          0x02014b00        0x0 libmc300.a(hfdebug.o)
 .data          0x02014b00        0x0 libmc300.a(hfuart.o)
 .data          0x02014b00        0x0 libmc300.a(hfsys.o)
 .data          0x02014b00        0x0 libmc300.a(hfconfig.o)
 .data          0x02014b00        0x0 libmc300.a(hfflash.o)
 .data          0x02014b00        0x0 libmc300.a(hfnet.o)
 .data          0x02014b00        0x0 libmc300.a(uart_thread.o)
 .data          0x02014b00        0x0 libmc300.a(hfwifi.o)
 .data          0x02014b00        0x0 libmc300.a(hfupdate.o)
 .data          0x02014b00        0x0 libmc300.a(httpclient.o)
 .data          0x02014b00        0x0 libmc300.a(hfsmtlk.o)
 .data          0x02014b00        0x0 libmc300.a(smartlinkV3.o)
 .data          0x02014b00        0x0 libmc300.a(smartlinkV7.o)
 .data          0x02014b00        0x0 libmc300.a(airkissv2.o)
 .data          0x02014b00        0x0 libmc300.a(assis_thread.o)
 .data          0x02014b00        0x0 libmc300.a(hftimer.o)
 .data          0x02014b00        0x0 libmc300.a(at_fota.o)
 .data          0x02014b00        0x0 libmc300.a(mc300_main.o)
 .data          0x02014b00        0x0 libmc300.a(hfsniffer.o)
 .data          0x02014b00        0x0 libmc300.a(socket_b.o)
 .data          0x02014b00        0x0 libmc300.a(socket_a.o)
 .data          0x02014b00        0x0 libmc300.a(at_socket_cmd.o)
 .data          0x02014b00        0x0 libmc300.a(socket_a_client)
 .data          0x02014b00        0x0 libmc300.a(atcmd.o)
 .data          0x02014b00        0x0 libmc300.a(dhcp_process.o)
 .data          0x02014b00        0x0 libmc300.a(dhcpc.o)
 .data          0x02014b00        0x0 libmc300.a(dhcps.o)
 .data          0x02014b00        0x0 libmc300.a(resolv.o)
 .data          0x02014b00        0x0 libmc300.a(ringbuf.o)
 .data          0x02014b00        0x0 libmc300.a(simple-udp.o)
 .data          0x02014b00        0x0 libmc300.a(socket_driver.o)
 .data          0x02014b00        0x0 libmc300.a(soft_ap_init.o)
 .data          0x02014b00        0x0 libmc300.a(tcpip.o)
 .data          0x02014b00        0x0 libmc300.a(uip-split.o)
 .data          0x02014b00        0x0 libmc300.a(uip-udp-packet.)
 .data          0x02014b00        0x0 libmc300.a(uip.o)
 .data          0x02014b00        0x0 libmc300.a(uip_arp.o)
 .data          0x02014b00        0x0 libmc300.a(uip_igmp.o)
 .data          0x02014b00        0x0 libmc300.a(uiplib.o)
 .data          0x02014b00        0x0 libmc300.a(arc4.o)
 .data          0x02014b00        0x0 libmc300.a(wep.o)
 .data          0x02014b00        0x0 libmc300.a(autostart.o)
 .data          0x02014b00        0x0 libmc300.a(random.o)
 .data          0x02014b00        0x0 libmc300.a(airkiss.o)
 .data          0x02014b00        0x0 libmc300.a(atcmd_icomm.o)
 .data          0x02014b00        0x0 libmc300.a(bsp_info.o)
 .data          0x02014b00        0x0 libmc300.a(cfs-coffee.o)
 .data          0x02014b00        0x0 libmc300.a(console.o)
 .data          0x02014b00        0x0 libmc300.a(drv_flash.o)
 .data          0x02014b00        0x0 libmc300.a(drv_gpio.o)
 .data          0x02014b00        0x0 libmc300.a(gpio_api.o)
 .data          0x02014b00        0x0 libmc300.a(drv_pmu.o)
 .data          0x02014b00        0x0 libmc300.a(pwm_api.o)
 .data          0x02014b00        0x0 libmc300.a(serial_api.o)
 .data          0x02014b00        0x0 libmc300.a(drv_wdog.o)
 .data          0x02014b00        0x0 libmc300.a(fence.o)
 .data          0x02014b00        0x0 libmc300.a(flash_api.o)
 .data          0x02014b00        0x0 libmc300.a(smartComm.o)
 .data          0x02014b00        0x0 libmc300.a(smartConf.o)
 .data          0x02014b00        0x0 libmc300.a(ssv_lib_slow.o)
 .data          0x02014b00        0x0 libmc300.a(userSmart.o)
 .data          0x02014b00        0x0 libmc300.a(drv_mbox.o)
 .data          0x02014b00        0x0 libmc300.a(hash_alg.o)
 .data          0x02014b00        0x0 libmc300.a(hmac_md5.o)
 .data          0x02014b00        0x0 libmc300.a(hmac_sha1.o)
 .data          0x02014b00        0x0 libmc300.a(ieee80211_mac.o)
 .data          0x02014b00        0x0 libmc300.a(ieee80211_net.o)
 .data          0x02014b00        0x0 libmc300.a(sha1.o)
 .data          0x02014b00        0x0 libmc300.a(ssv6200_tx.o)
 .data          0x02014b00        0x0 libmc300.a(sys_status_api.)
 .data          0x02014b00        0x0 libmc300.a(shell-ping.o)
 .data          0x02014b00        0x0 libmc300.a(drv_fence.o)
 .data          0x02014b00        0x0 libmc300.a(drv_pwm.o)
 .data          0x02014b00        0x0 libmc300.a(EAPOL.o)
 .data          0x02014b00        0x0 libcjsona.a(cJSON.o)
 .data          0x02014b00        0x0 ./thirdpartylib/libairkiss.a(airkiss.o)
 .data          0x02014b00        0x0 ./thirdpartylib/libairkiss.a(airlink.o)
 .data          0x02014b00        0x0 /usr/bin/../lib/gcc/arm-none-eabi/4.8.4/../../../../arm-none-eabi/lib/libm.a(lib_a-s_fabs.o)
 .data          0x02014b00        0x0 /usr/bin/../lib/gcc/arm-none-eabi/4.8.4/../../../../arm-none-eabi/lib/libm.a(lib_a-s_floor.o)
 .data          0x02014b00        0x0 /usr/bin/../lib/gcc/arm-none-eabi/4.8.4/../../../../arm-none-eabi/lib/libm.a(lib_a-w_pow.o)
 .data          0x02014b00        0x0 /usr/bin/../lib/gcc/arm-none-eabi/4.8.4/../../../../arm-none-eabi/lib/libm.a(lib_a-e_pow.o)
 .data          0x02014b00        0x0 /usr/bin/../lib/gcc/arm-none-eabi/4.8.4/../../../../arm-none-eabi/lib/libm.a(lib_a-e_sqrt.o)
 .data          0x02014b00        0x0 /usr/bin/../lib/gcc/arm-none-eabi/4.8.4/../../../../arm-none-eabi/lib/libm.a(lib_a-s_finite.o)
 .data          0x02014b00        0x0 /usr/bin/../lib/gcc/arm-none-eabi/4.8.4/../../../../arm-none-eabi/lib/libm.a(lib_a-s_fpclassify.o)
 .data          0x02014b00        0x0 /usr/bin/../lib/gcc/arm-none-eabi/4.8.4/../../../../arm-none-eabi/lib/libm.a(lib_a-s_lib_ver.o)
 .data          0x02014b00        0x0 /usr/bin/../lib/gcc/arm-none-eabi/4.8.4/../../../../arm-none-eabi/lib/libm.a(lib_a-s_matherr.o)
 .data          0x02014b00        0x0 /usr/bin/../lib/gcc/arm-none-eabi/4.8.4/../../../../arm-none-eabi/lib/libm.a(lib_a-s_nan.o)
 .data          0x02014b00        0x0 /usr/bin/../lib/gcc/arm-none-eabi/4.8.4/../../../../arm-none-eabi/lib/libm.a(lib_a-s_rint.o)
 .data          0x02014b00        0x0 /usr/bin/../lib/gcc/arm-none-eabi/4.8.4/../../../../arm-none-eabi/lib/libm.a(lib_a-s_scalbn.o)
 .data          0x02014b00        0x0 /usr/bin/../lib/gcc/arm-none-eabi/4.8.4/../../../../arm-none-eabi/lib/libm.a(lib_a-s_copysign.o)
 .data          0x02014b00        0x0 /usr/bin/../lib/gcc/arm-none-eabi/4.8.4/libgcc.a(_udivsi3.o)
 .data          0x02014b00        0x0 /usr/bin/../lib/gcc/arm-none-eabi/4.8.4/libgcc.a(_divsi3.o)
 .data          0x02014b00        0x0 /usr/bin/../lib/gcc/arm-none-eabi/4.8.4/libgcc.a(_dvmd_tls.o)
 .data          0x02014b00        0x0 /usr/bin/../lib/gcc/arm-none-eabi/4.8.4/libgcc.a(_arm_addsubdf3.o)
 .data          0x02014b00        0x0 /usr/bin/../lib/gcc/arm-none-eabi/4.8.4/libgcc.a(_arm_muldivdf3.o)
 .data          0x02014b00        0x0 /usr/bin/../lib/gcc/arm-none-eabi/4.8.4/libgcc.a(_arm_cmpdf2.o)
 .data          0x02014b00        0x0 /usr/bin/../lib/gcc/arm-none-eabi/4.8.4/libgcc.a(_arm_fixdfsi.o)
 .data          0x02014b00        0x0 /usr/bin/../lib/gcc/arm-none-eabi/4.8.4/libgcc.a(_arm_truncdfsf2.o)
 .data          0x02014b00        0x0 /usr/bin/../lib/gcc/arm-none-eabi/4.8.4/libgcc.a(_arm_addsubsf3.o)
 .data          0x02014b00        0x0 /usr/bin/../lib/gcc/arm-none-eabi/4.8.4/libgcc.a(_arm_muldivsf3.o)
 .data          0x02014b00        0x0 /usr/bin/../lib/gcc/arm-none-eabi/4.8.4/libgcc.a(_aeabi_uldivmod.o)
 .data          0x02014b00        0x0 /usr/bin/../lib/gcc/arm-none-eabi/4.8.4/libgcc.a(bpabi.o)
 .data          0x02014b00        0x0 /usr/bin/../lib/gcc/arm-none-eabi/4.8.4/libgcc.a(_divdi3.o)
 .data          0x02014b00        0x0 /usr/bin/../lib/gcc/arm-none-eabi/4.8.4/libgcc.a(_udivdi3.o)
 .data          0x02014b00        0x0 /usr/bin/../lib/gcc/arm-none-eabi/4.8.4/libgcc.a(_clzsi2.o)
 .data          0x02014b00        0x0 /usr/bin/../lib/gcc/arm-none-eabi/4.8.4/../../../../arm-none-eabi/lib/libg_s.a(lib_a-atoi.o)
 .data          0x02014b00        0x0 /usr/bin/../lib/gcc/arm-none-eabi/4.8.4/../../../../arm-none-eabi/lib/libg_s.a(lib_a-bzero.o)
 .data          0x02014b00        0x0 /usr/bin/../lib/gcc/arm-none-eabi/4.8.4/../../../../arm-none-eabi/lib/libg_s.a(lib_a-ctype_.o)
 .data          0x02014b00        0x0 /usr/bin/../lib/gcc/arm-none-eabi/4.8.4/../../../../arm-none-eabi/lib/libg_s.a(lib_a-errno.o)
 .data          0x02014b00        0x0 /usr/bin/../lib/gcc/arm-none-eabi/4.8.4/../../../../arm-none-eabi/lib/libg_s.a(lib_a-impure.o)
 .data          0x02014b00        0x0 /usr/bin/../lib/gcc/arm-none-eabi/4.8.4/../../../../arm-none-eabi/lib/libg_s.a(lib_a-malloc.o)
 .data          0x02014b00        0x0 /usr/bin/../lib/gcc/arm-none-eabi/4.8.4/../../../../arm-none-eabi/lib/libg_s.a(lib_a-memchr-stub.o)
 .data          0x02014b00        0x0 /usr/bin/../lib/gcc/arm-none-eabi/4.8.4/../../../../arm-none-eabi/lib/libg_s.a(lib_a-mstats.o)
 .data          0x02014b00        0x0 /usr/bin/../lib/gcc/arm-none-eabi/4.8.4/../../../../arm-none-eabi/lib/libg_s.a(lib_a-nano-freer.o)
 .data          0x02014b00        0x0 /usr/bin/../lib/gcc/arm-none-eabi/4.8.4/../../../../arm-none-eabi/lib/libg_s.a(lib_a-nano-mallinfor.o)
 .data          0x02014b00        0x0 /usr/bin/../lib/gcc/arm-none-eabi/4.8.4/../../../../arm-none-eabi/lib/libg_s.a(lib_a-nano-mallocr.o)
 .data          0x02014b00        0x0 /usr/bin/../lib/gcc/arm-none-eabi/4.8.4/../../../../arm-none-eabi/lib/libg_s.a(lib_a-nano-malloptr.o)
 .data          0x02014b00        0x0 /usr/bin/../lib/gcc/arm-none-eabi/4.8.4/../../../../arm-none-eabi/lib/libg_s.a(lib_a-nano-mallstatsr.o)
 .data          0x02014b00        0x0 /usr/bin/../lib/gcc/arm-none-eabi/4.8.4/../../../../arm-none-eabi/lib/libg_s.a(lib_a-rand.o)
 .data          0x02014b00        0x0 /usr/bin/../lib/gcc/arm-none-eabi/4.8.4/../../../../arm-none-eabi/lib/libg_s.a(lib_a-realloc.o)
 .data          0x02014b00        0x0 /usr/bin/../lib/gcc/arm-none-eabi/4.8.4/../../../../arm-none-eabi/lib/libg_s.a(lib_a-sbrkr.o)
 .data          0x02014b00        0x0 /usr/bin/../lib/gcc/arm-none-eabi/4.8.4/../../../../arm-none-eabi/lib/libg_s.a(lib_a-sscanf.o)
 .data          0x02014b00        0x0 /usr/bin/../lib/gcc/arm-none-eabi/4.8.4/../../../../arm-none-eabi/lib/libg_s.a(lib_a-stdio.o)
 .data          0x02014b00        0x0 /usr/bin/../lib/gcc/arm-none-eabi/4.8.4/../../../../arm-none-eabi/lib/libg_s.a(lib_a-strcasecmp.o)
 .data          0x02014b00        0x0 /usr/bin/../lib/gcc/arm-none-eabi/4.8.4/../../../../arm-none-eabi/lib/libg_s.a(lib_a-strncasecmp.o)
 .data          0x02014b00        0x0 /usr/bin/../lib/gcc/arm-none-eabi/4.8.4/../../../../arm-none-eabi/lib/libg_s.a(lib_a-strtol.o)
 .data          0x02014b00        0x0 /usr/bin/../lib/gcc/arm-none-eabi/4.8.4/../../../../arm-none-eabi/lib/libg_s.a(lib_a-strtoul.o)
 .data          0x02014b00        0x0 /usr/bin/../lib/gcc/arm-none-eabi/4.8.4/../../../../arm-none-eabi/lib/libg_s.a(lib_a-svfscanf.o)
 .data          0x02014b00        0x0 /usr/bin/../lib/gcc/arm-none-eabi/4.8.4/../../../../arm-none-eabi/lib/libg_s.a(lib_a-ungetc.o)
 .data          0x02014b00        0x0 /usr/bin/../lib/gcc/arm-none-eabi/4.8.4/../../../../arm-none-eabi/lib/libg_s.a(lib_a-vfscanf_i.o)
 .data          0x02014b00        0x0 /usr/bin/../lib/gcc/arm-none-eabi/4.8.4/../../../../arm-none-eabi/lib/libg_s.a(lib_a-writer.o)
 .data          0x02014b00        0x0 /usr/bin/../lib/gcc/arm-none-eabi/4.8.4/../../../../arm-none-eabi/lib/libg_s.a(lib_a-closer.o)
 .data          0x02014b00        0x0 /usr/bin/../lib/gcc/arm-none-eabi/4.8.4/../../../../arm-none-eabi/lib/libg_s.a(lib_a-fflush.o)
 .data          0x02014b00        0x0 /usr/bin/../lib/gcc/arm-none-eabi/4.8.4/../../../../arm-none-eabi/lib/libg_s.a(lib_a-findfp.o)
 .data          0x02014b00        0x0 /usr/bin/../lib/gcc/arm-none-eabi/4.8.4/../../../../arm-none-eabi/lib/libg_s.a(lib_a-fprintf.o)
 .data          0x02014b00        0x0 /usr/bin/../lib/gcc/arm-none-eabi/4.8.4/../../../../arm-none-eabi/lib/libg_s.a(lib_a-fwalk.o)
 .data          0x02014b00        0x0 /usr/bin/../lib/gcc/arm-none-eabi/4.8.4/../../../../arm-none-eabi/lib/libg_s.a(lib_a-lseekr.o)
 .data          0x02014b00        0x0 /usr/bin/../lib/gcc/arm-none-eabi/4.8.4/../../../../arm-none-eabi/lib/libg_s.a(lib_a-nano-reallocr.o)
 .data          0x02014b00        0x0 /usr/bin/../lib/gcc/arm-none-eabi/4.8.4/../../../../arm-none-eabi/lib/libg_s.a(lib_a-readr.o)
 .data          0x02014b00        0x0 /usr/bin/../lib/gcc/arm-none-eabi/4.8.4/../../../../arm-none-eabi/lib/libg_s.a(lib_a-reent.o)
 .data          0x02014b00        0x0 /usr/bin/../lib/gcc/arm-none-eabi/4.8.4/../../../../arm-none-eabi/lib/libg_s.a(lib_a-sccl.o)
 .data          0x02014b00        0x0 /usr/bin/../lib/gcc/arm-none-eabi/4.8.4/../../../../arm-none-eabi/lib/libg_s.a(lib_a-vfprintf.o)
 .data          0x02014b00        0x0 /usr/bin/../lib/gcc/arm-none-eabi/4.8.4/../../../../arm-none-eabi/lib/libg_s.a(lib_a-vfprintf_i.o)
 .data          0x02014b00        0x0 /usr/bin/../lib/gcc/arm-none-eabi/4.8.4/../../../../arm-none-eabi/lib/libg_s.a(lib_a-wbuf.o)
 .data          0x02014b00        0x0 /usr/bin/../lib/gcc/arm-none-eabi/4.8.4/../../../../arm-none-eabi/lib/libg_s.a(lib_a-wsetup.o)
 .data          0x02014b00        0x0 /usr/bin/../lib/gcc/arm-none-eabi/4.8.4/../../../../arm-none-eabi/lib/libg_s.a(lib_a-fvwrite.o)
 .data          0x02014b00        0x0 /usr/bin/../lib/gcc/arm-none-eabi/4.8.4/../../../../arm-none-eabi/lib/libg_s.a(lib_a-makebuf.o)
 .data          0x02014b00        0x0 /usr/bin/../lib/gcc/arm-none-eabi/4.8.4/../../../../arm-none-eabi/lib/libg_s.a(lib_a-nano-msizer.o)
 .data          0x02014b00        0x0 /usr/bin/../lib/gcc/arm-none-eabi/4.8.4/../../../../arm-none-eabi/lib/libg_s.a(lib_a-fstatr.o)
 .data          0x02014b00        0x0 /usr/bin/../lib/gcc/arm-none-eabi/4.8.4/../../../../arm-none-eabi/lib/libg_s.a(lib_a-isattyr.o)
 .data          0x02014b00        0x0 /usr/bin/../lib/gcc/arm-none-eabi/4.8.4/../../../../arm-none-eabi/lib/libnosys.a(close.o)
 .data          0x02014b00        0x0 /usr/bin/../lib/gcc/arm-none-eabi/4.8.4/../../../../arm-none-eabi/lib/libnosys.a(fstat.o)
 .data          0x02014b00        0x0 /usr/bin/../lib/gcc/arm-none-eabi/4.8.4/../../../../arm-none-eabi/lib/libnosys.a(isatty.o)
 .data          0x02014b00        0x0 /usr/bin/../lib/gcc/arm-none-eabi/4.8.4/../../../../arm-none-eabi/lib/libnosys.a(lseek.o)
 .data          0x02014b00        0x0 /usr/bin/../lib/gcc/arm-none-eabi/4.8.4/../../../../arm-none-eabi/lib/libnosys.a(read.o)
 .data          0x02014b00        0x0 /usr/bin/../lib/gcc/arm-none-eabi/4.8.4/../../../../arm-none-eabi/lib/libnosys.a(write.o)
 *(EXCLUDE_FILE(libmc300.a:boot-hiflying.o) .data*)
 .data.main_process
                0x02014b00       0x10 main.o
                0x02014b00                main_process
 .data.g_module_id
                0x02014b10        0x4 userapps.a(app_main.o)
                0x02014b10                g_module_id
 .data.hm_app_main_process
                0x02014b14       0x10 userapps.a(hm_app_main.o)
                0x02014b14                hm_app_main_process
 .data.hm_uart_handle_process
                0x02014b24       0x10 userapps.a(hm_uart_handle.)
                0x02014b24                hm_uart_handle_process
 .data.Hm_ServerPort
                0x02014b34        0x4 userapps.a(hm_connect_clou)
 .data.app_tcp_socket
                0x02014b38        0x4 userapps.a(hm_connect_clou)
 .data.hm_connect_cloud_process
                0x02014b3c       0x10 userapps.a(hm_connect_clou)
                0x02014b3c                hm_connect_cloud_process
 .data.wt_attr_array_info
                0x02014b4c       0x18 userapps.a(hm_dev_model.o)
                0x02014b4c                wt_attr_array_info
 .data.wt_rep_status_cmd_attr_list
                0x02014b64        0x2 userapps.a(hm_dev_model.o)
                0x02014b64                wt_rep_status_cmd_attr_list
 *fill*         0x02014b66        0x2 
 .data.wt_dev_model_info
                0x02014b68       0x1c userapps.a(hm_dev_model.o)
                0x02014b68                wt_dev_model_info
 .data.wt_cmd_array
                0x02014b84       0x20 userapps.a(hm_dev_model.o)
                0x02014b84                wt_cmd_array
 .data.hm_start_link_process
                0x02014ba4       0x10 userapps.a(hm_link.o)
                0x02014ba4                hm_start_link_process
 .data.ch.8811  0x02014bb4        0x1 userapps.a(hm_link.o)
 *fill*         0x02014bb5        0x3 
 .data.hm_AP_mode_process
                0x02014bb8       0x10 userapps.a(hm_link.o)
                0x02014bb8                hm_AP_mode_process
 .data.PADDING  0x02014bc8       0x40 userapps.a(md5sum.o)
 .data.etimer_process
                0x02014c08       0x10 libmc300.a(etimer.o)
                0x02014c08                etimer_process
 .data.ctxt     0x02014c18        0x8 libmc300.a(printf.o)
 .data.g_aLogEnable
                0x02014c20       0x20 libmc300.a(printf.o)
                0x02014c20                g_aLogEnable
 .data.current_ntp_seconds
                0x02014c40        0x4 libmc300.a(clock.o)
 .data.phy_ll_length_tbl
                0x02014c44       0x20 libmc300.a(hw_init.o)
                0x02014c44                phy_ll_length_tbl
 .data.phy_info_tbl
                0x02014c64       0x9c libmc300.a(hw_init.o)
                0x02014c64                phy_info_tbl
 .data.phy_index_tbl
                0x02014d00       0x9c libmc300.a(hw_init.o)
                0x02014d00                phy_index_tbl
 .data.heap_end.4786
                0x02014d9c        0x4 libmc300.a(ssv_lib.o)
 .data.g_enable_softwdog
                0x02014da0        0x4 libmc300.a(wdog_api.o)
                0x02014da0                g_enable_softwdog
 .data.watchdog_process
                0x02014da4       0x10 libmc300.a(wdog_api.o)
                0x02014da4                watchdog_process
 .data.bTuneFilterBeacon
                0x02014db4        0x1 libmc300.a(bsp.o)
                0x02014db4                bTuneFilterBeacon
 .data.bTuneFilterProbeReq
                0x02014db5        0x1 libmc300.a(bsp.o)
                0x02014db5                bTuneFilterProbeReq
 .data.defaultP
                0x02014db6        0x1 libmc300.a(dbg-atcmd-api.o)
 .data.test_data
                0x02014db7       0x25 libmc300.a(dbg-atcmd-api.o)
                0x02014db7                test_data
 .data.nTotalCount
                0x02014ddc        0x4 libmc300.a(dbg-atcmd-api.o)
 .data.gRun     0x02014de0        0x1 libmc300.a(dbg-atcmd-api.o)
 .data.gCompensatorRun
                0x02014de1        0x1 libmc300.a(dbg-atcmd-api.o)
 .data.defaultN
                0x02014de2        0x1 libmc300.a(dbg-atcmd-api.o)
 *fill*         0x02014de3        0x1 
 .data.rf_test_config
                0x02014de4       0x28 libmc300.a(dbg-atcmd-api.o)
                0x02014de4                rf_test_config
 .data.rf_start_process
                0x02014e0c       0x10 libmc300.a(dbg-atcmd-api.o)
                0x02014e0c                rf_start_process
 .data.temperature_compensator_process
                0x02014e1c       0x10 libmc300.a(dbg-atcmd-api.o)
                0x02014e1c                temperature_compensator_process
 .data.gCount   0x02014e2c        0x4 libmc300.a(dbg-atcmd-api.o)
 .data.gTime    0x02014e30        0x1 libmc300.a(dbg-atcmd-api.o)
 *fill*         0x02014e31        0x3 
 .data.start_tx_process
                0x02014e34       0x10 libmc300.a(dbg-atcmd-api.o)
                0x02014e34                start_tx_process
 .data.nDelayMSec
                0x02014e44        0x4 libmc300.a(dbg-atcmd-api.o)
 .data.rtbl_cali_rxdc
                0x02014e48      0x104 libmc300.a(drv_phy.o)
                0x02014e48                rtbl_cali_rxdc
 .data.rtbl_cali_txlo
                0x02014f4c       0x14 libmc300.a(drv_phy.o)
                0x02014f4c                rtbl_cali_txlo
 .data.phy_cali_config_papd
                0x02014f60       0x14 libmc300.a(drv_phy.o)
                0x02014f60                phy_cali_config_papd
 .data.rg_rxdc_set_i
                0x02014f74       0x40 libmc300.a(drv_phy.o)
                0x02014f74                rg_rxdc_set_i
 .data.g_rf_config
                0x02014fb4        0xc libmc300.a(drv_phy.o)
                0x02014fb4                g_rf_config
 .data.rg_rxdc_set_q
                0x02014fc0       0x40 libmc300.a(drv_phy.o)
                0x02014fc0                rg_rxdc_set_q
 .data.rtbl_cali_rxrc
                0x02015000        0xc libmc300.a(drv_phy.o)
                0x02015000                rtbl_cali_rxrc
 .data.rtbl_cali_papd
                0x0201500c      0x1d4 libmc300.a(drv_phy.o)
                0x0201500c                rtbl_cali_papd
 .data.cali_info_tbl
                0x020151e0       0xc8 libmc300.a(drv_phy.o)
                0x020151e0                cali_info_tbl
 .data.rtbl_cali_tssi
                0x020152a8        0xc libmc300.a(drv_phy.o)
                0x020152a8                rtbl_cali_tssi
 .data.rtbl_cali_rxiq
                0x020152b4       0x14 libmc300.a(drv_phy.o)
                0x020152b4                rtbl_cali_rxiq
 .data.phyreg_tbl_recovery
                0x020152c8       0x10 libmc300.a(drv_phy.o)
 .data.rtbl_cali_txiq
                0x020152d8       0x14 libmc300.a(drv_phy.o)
                0x020152d8                rtbl_cali_txiq
 .data.current_level
                0x020152ec        0x4 libmc300.a(ieee80211_mgmt.)
 .data.smoothValue
                0x020152f0        0x4 libmc300.a(ieee80211_mgmt.)
                0x020152f0                smoothValue
 .data.beacon_process
                0x020152f4       0x10 libmc300.a(ieee80211_mgmt.)
                0x020152f4                beacon_process
 .data.scan_channel_process
                0x02015304       0x10 libmc300.a(ieee80211_mgmt.)
                0x02015304                scan_channel_process
 .data.activescan_process
                0x02015314       0x10 libmc300.a(ieee80211_mgmt.)
                0x02015314                activescan_process
 .data.adjust_cci
                0x02015324       0x70 libmc300.a(ieee80211_mgmt.)
                0x02015324                adjust_cci
 .data.bEnableRSSISensivity
                0x02015394        0x1 libmc300.a(ieee80211_mgmt.)
                0x02015394                bEnableRSSISensivity
 *fill*         0x02015395        0x3 
 .data.bss_reconnect_process
                0x02015398       0x10 libmc300.a(ieee80211_mgmt.)
                0x02015398                bss_reconnect_process
 .data.current_gate
                0x020153a8        0x4 libmc300.a(ieee80211_mgmt.)
 .data.power_wake_process
                0x020153ac       0x10 libmc300.a(powersave.o)
                0x020153ac                power_wake_process
 .data.nav_table
                0x020153bc      0x138 libmc300.a(rate_control.o)
                0x020153bc                nav_table
 .data.softap_mgm_process
                0x020154f4       0x10 libmc300.a(soft_ap.o)
                0x020154f4                softap_mgm_process
 .data.softap_tx_nulldata_process
                0x02015504       0x10 libmc300.a(soft_ap.o)
                0x02015504                softap_tx_nulldata_process
 .data.broadcast_mac.6662
                0x02015514        0x6 libmc300.a(ssvradio.o)
 *fill*         0x0201551a        0x2 
 .data.next_txqueue
                0x0201551c        0x4 libmc300.a(ssvradio.o)
                0x0201551c                next_txqueue
 .data.ssv6200_radio_receive_process
                0x02015520       0x10 libmc300.a(ssvradio.o)
                0x02015520                ssv6200_radio_receive_process
 .data.testpin  0x02015530        0xc libmc300.a(hfat.o)
 .data.testpin_num
                0x0201553c        0x1 libmc300.a(hfat.o)
 *fill*         0x0201553d        0x3 
 .data.uart_at_session
                0x02015540       0x18 libmc300.a(hfat.o)
 .data.assis_scan_process
                0x02015558       0x10 libmc300.a(at_wifi_cmd.o)
                0x02015558                assis_scan_process
 .data.scan_chl.9546
                0x02015568        0x4 libmc300.a(at_wifi_cmd.o)
 .data.syste_button_process
                0x0201556c       0x10 libmc300.a(hfgpio.o)
                0x0201556c                syste_button_process
 .data.g_hfm_name
                0x0201557c       0x18 libmc300.a(hfconfig.o)
                0x0201557c                g_hfm_name
 .data.g_hf_config_enable_save
                0x02015594        0x1 libmc300.a(hfconfig.o)
                0x02015594                g_hf_config_enable_save
 *fill*         0x02015595        0x3 
 .data.user_socket_6_process
                0x02015598       0x10 libmc300.a(hfnet.o)
                0x02015598                user_socket_6_process
 .data.user_socket_4_process
                0x020155a8       0x10 libmc300.a(hfnet.o)
                0x020155a8                user_socket_4_process
 .data.user_socket_2_process
                0x020155b8       0x10 libmc300.a(hfnet.o)
                0x020155b8                user_socket_2_process
 .data.user_netconn
                0x020155c8      0x188 libmc300.a(hfnet.o)
                0x020155c8                user_netconn
 .data.user_socket_7_process
                0x02015750       0x10 libmc300.a(hfnet.o)
                0x02015750                user_socket_7_process
 .data.user_socket_5_process
                0x02015760       0x10 libmc300.a(hfnet.o)
                0x02015760                user_socket_5_process
 .data.user_socket_3_process
                0x02015770       0x10 libmc300.a(hfnet.o)
                0x02015770                user_socket_3_process
 .data.user_socket_1_process
                0x02015780       0x10 libmc300.a(hfnet.o)
                0x02015780                user_socket_1_process
 .data.cmd_mode_echo
                0x02015790        0x4 libmc300.a(uart_thread.o)
                0x02015790                cmd_mode_echo
 .data.uart_at_session_enable
                0x02015794        0x1 libmc300.a(uart_thread.o)
 *fill*         0x02015795        0x3 
 .data.uart_thread
                0x02015798       0x10 libmc300.a(uart_thread.o)
                0x02015798                uart_thread
 .data.wifi_enc_str
                0x020157a8       0x18 libmc300.a(hfwifi.o)
                0x020157a8                wifi_enc_str
 .data.wifi_auth_str
                0x020157c0       0x14 libmc300.a(hfwifi.o)
                0x020157c0                wifi_auth_str
 .data.wifi_scan_process
                0x020157d4       0x10 libmc300.a(hfwifi.o)
                0x020157d4                wifi_scan_process
 .data.wifi_ps_process
                0x020157e4       0x10 libmc300.a(hfwifi.o)
                0x020157e4                wifi_ps_process
 .data.wait_timeout.8835
                0x020157f4        0x4 libmc300.a(hfupdate.o)
 .data.auto_upgrade_process
                0x020157f8       0x10 libmc300.a(hfupdate.o)
                0x020157f8                auto_upgrade_process
 .data.http_request_process
                0x02015808       0x10 libmc300.a(httpclient.o)
                0x02015808                http_request_process
 .data.httpclient_connect_process
                0x02015818       0x10 libmc300.a(httpclient.o)
                0x02015818                httpclient_connect_process
 .data.smtlk_protocol
                0x02015828        0x1 libmc300.a(hfsmtlk.o)
                0x02015828                smtlk_protocol
 *fill*         0x02015829        0x3 
 .data.hfsmtlk_decode_process
                0x0201582c       0x10 libmc300.a(hfsmtlk.o)
                0x0201582c                hfsmtlk_decode_process
 .data.hfsmtlk_process
                0x0201583c       0x10 libmc300.a(hfsmtlk.o)
                0x0201583c                hfsmtlk_process
 .data.smtlk_mode
                0x0201584c        0x1 libmc300.a(hfsmtlk.o)
                0x0201584c                smtlk_mode
 *fill*         0x0201584d        0x3 
 .data.airlink_discover_process
                0x02015850       0x10 libmc300.a(airkissv2.o)
                0x02015850                airlink_discover_process
 .data.airlink_socket
                0x02015860        0x4 libmc300.a(airkissv2.o)
 .data.wait_ms.8387
                0x02015864        0x4 libmc300.a(hftimer.o)
 .data.hf_softtimer_process
                0x02015868       0x10 libmc300.a(hftimer.o)
                0x02015868                hf_softtimer_process
 .data.auto_connect_process
                0x02015878       0x10 libmc300.a(mc300_main.o)
                0x02015878                auto_connect_process
 .data.scan_interval.10373
                0x02015888        0x4 libmc300.a(mc300_main.o)
 .data.Cabrio_ate_process
                0x0201588c       0x10 libmc300.a(mc300_main.o)
                0x0201588c                Cabrio_ate_process
 .data.wifi_check_process
                0x0201589c       0x10 libmc300.a(mc300_main.o)
                0x0201589c                wifi_check_process
 .data.socketb_thread
                0x020158ac       0x10 libmc300.a(socket_b.o)
                0x020158ac                socketb_thread
 .data.socketb_udp_thread
                0x020158bc       0x10 libmc300.a(socket_b.o)
                0x020158bc                socketb_udp_thread
 .data.g_socketb_fd
                0x020158cc        0x4 libmc300.a(socket_b.o)
 .data.socketb_tcp_thread
                0x020158d0       0x10 libmc300.a(socket_b.o)
                0x020158d0                socketb_tcp_thread
 .data.socketa_tcpserver_process
                0x020158e0       0x10 libmc300.a(socket_a.o)
                0x020158e0                socketa_tcpserver_process
 .data.socketa_tcp_client_thread
                0x020158f0       0x10 libmc300.a(socket_a_client)
                0x020158f0                socketa_tcp_client_thread
 .data.socketa_udp_thread
                0x02015900       0x10 libmc300.a(socket_a_client)
                0x02015900                socketa_udp_thread
 .data.socketa_client_thread
                0x02015910       0x10 libmc300.a(socket_a_client)
                0x02015910                socketa_client_thread
 .data.gserversock
                0x02015920        0x4 libmc300.a(atcmd.o)
                0x02015920                gserversock
 .data.poll_tx_process
                0x02015924       0x10 libmc300.a(atcmd.o)
                0x02015924                poll_tx_process
 .data.rf_event_process
                0x02015934       0x10 libmc300.a(atcmd.o)
                0x02015934                rf_event_process
 .data.gclientsock
                0x02015944        0x4 libmc300.a(atcmd.o)
                0x02015944                gclientsock
 .data.gudpsock
                0x02015948        0x4 libmc300.a(atcmd.o)
                0x02015948                gudpsock
 .data.dhcp_process
                0x0201594c       0x10 libmc300.a(dhcp_process.o)
                0x0201594c                dhcp_process
 .data.dhcp_server_process
                0x0201595c       0x10 libmc300.a(dhcps.o)
                0x0201595c                dhcp_server_process
 .data.resolv_default_dns_server2
                0x0201596c        0x4 libmc300.a(resolv.o)
 .data.resolv_process
                0x02015970       0x10 libmc300.a(resolv.o)
                0x02015970                resolv_process
 .data.resolv_default_dns_server
                0x02015980        0x4 libmc300.a(resolv.o)
 .data.simple_udp_process
                0x02015984       0x10 libmc300.a(simple-udp.o)
                0x02015984                simple_udp_process
 .data.tcp_driver_process
                0x02015994       0x10 libmc300.a(socket_driver.o)
                0x02015994                tcp_driver_process
 .data.udp_driver_process
                0x020159a4       0x10 libmc300.a(socket_driver.o)
                0x020159a4                udp_driver_process
 .data.TCP_arpcheck_process
                0x020159b4       0x10 libmc300.a(tcpip.o)
                0x020159b4                TCP_arpcheck_process
 .data.tcpip_process
                0x020159c4       0x10 libmc300.a(tcpip.o)
                0x020159c4                tcpip_process
 .data.UIP_TCP_BUF
                0x020159d4        0x4 libmc300.a(uip.o)
                0x020159d4                UIP_TCP_BUF
 .data.UDPBUF   0x020159d8        0x4 libmc300.a(uip.o)
                0x020159d8                UDPBUF
 .data.UIP_IP_BUF
                0x020159dc        0x4 libmc300.a(uip.o)
                0x020159dc                UIP_IP_BUF
 .data.BUF      0x020159e0        0x4 libmc300.a(uip.o)
                0x020159e0                BUF
 .data.ICMPBUF  0x020159e4        0x4 libmc300.a(uip.o)
                0x020159e4                ICMPBUF
 .data.uip_broadcast_addr1
                0x020159e8        0x4 libmc300.a(uip.o)
                0x020159e8                uip_broadcast_addr1
 .data.ARPBUF   0x020159ec        0x4 libmc300.a(uip_arp.o)
                0x020159ec                ARPBUF
 .data.IPARPBUF
                0x020159f0        0x4 libmc300.a(uip_arp.o)
                0x020159f0                IPARPBUF
 .data.arptable_polling_process
                0x020159f4       0x10 libmc300.a(uip_arp.o)
                0x020159f4                arptable_polling_process
 .data.get_gatewaymac_process
                0x02015a04       0x10 libmc300.a(uip_arp.o)
                0x02015a04                get_gatewaymac_process
 .data.IGMPBUF  0x02015a14        0x4 libmc300.a(uip_igmp.o)
                0x02015a14                IGMPBUF
 .data.cabrio_fs_marker
                0x02015a18       0x20 libmc300.a(cfs-coffee.o)
                0x02015a18                cabrio_fs_marker
 .data.uart_fw_size
                0x02015a38        0x4 libmc300.a(console.o)
                0x02015a38                uart_fw_size
 .data.GPIOINTRSEL
                0x02015a3c       0x34 libmc300.a(drv_gpio.o)
                0x02015a3c                GPIOINTRSEL
 .data.GPIOREGADDR
                0x02015a70       0x34 libmc300.a(drv_gpio.o)
                0x02015a70                GPIOREGADDR
 .data.smart_conf_ack
                0x02015aa4       0x10 libmc300.a(smartComm.o)
                0x02015aa4                smart_conf_ack
 .data.g_uip_icmp_buf
                0x02015ab4        0x4 libmc300.a(shell-ping.o)
                0x02015ab4                g_uip_icmp_buf
 .data.shell_ping_process
                0x02015ab8       0x10 libmc300.a(shell-ping.o)
                0x02015ab8                shell_ping_process
 .data.g_uip_ip_buf
                0x02015ac8        0x4 libmc300.a(shell-ping.o)
                0x02015ac8                g_uip_ip_buf
 .data.cJSON_free
                0x02015acc        0x4 libcjsona.a(cJSON.o)
 .data.cJSON_malloc
                0x02015ad0        0x4 libcjsona.a(cJSON.o)
 .data.__fdlib_version
                0x02015ad4        0x1 /usr/bin/../lib/gcc/arm-none-eabi/4.8.4/../../../../arm-none-eabi/lib/libm.a(lib_a-s_lib_ver.o)
                0x02015ad4                __fdlib_version
 *fill*         0x02015ad5        0x3 
 .data.__ctype_ptr__
                0x02015ad8        0x4 /usr/bin/../lib/gcc/arm-none-eabi/4.8.4/../../../../arm-none-eabi/lib/libg_s.a(lib_a-ctype_.o)
                0x02015ad8                __ctype_ptr__
 .data.impure_data
                0x02015adc       0x60 /usr/bin/../lib/gcc/arm-none-eabi/4.8.4/../../../../arm-none-eabi/lib/libg_s.a(lib_a-impure.o)
 .data._impure_ptr
                0x02015b3c        0x4 /usr/bin/../lib/gcc/arm-none-eabi/4.8.4/../../../../arm-none-eabi/lib/libg_s.a(lib_a-impure.o)
                0x02015b3c                _impure_ptr
                0x02015b40                _dend_dst = .
                0x030630c0                _dbeg_src = LOADADDR (.data)

.igot.plt       0x02015b40        0x0 load address 0x03064100
 .igot.plt      0x00000000        0x0 /tmp/ccsDtpxU.o

.bss            0x02015b40     0x8c90 load address 0x03064100
                0x02015b40                . = ALIGN (0x10)
                0x02015b40                __bss_beg__ = .
 *(EXCLUDE_FILE(libmc300.a:boot-hiflying.o) .bss)
 .bss           0x02015b40        0x0 /tmp/ccsDtpxU.o
 .bss           0x02015b40        0x0 /tmp/ccrvIGXc.o
 .bss           0x02015b40        0x0 main.o
 .bss           0x02015b40        0x0 userapps.a(app_main.o)
 .bss           0x02015b40        0x0 userapps.a(hm_system.o)
 .bss           0x02015b40        0x0 userapps.a(RCLutils.o)
 .bss           0x02015b40        0x0 userapps.a(hm_app_main.o)
 .bss           0x02015b40        0x0 userapps.a(hm_uart.o)
 .bss           0x02015b40        0x0 userapps.a(hm_uart_handle.)
 .bss           0x02015b40        0x0 userapps.a(hm_connect_clou)
 .bss           0x02015b40        0x0 userapps.a(hm_sub_devsend_)
 .bss           0x02015b40        0x0 userapps.a(hm_bind_json_pr)
 .bss           0x02015b40        0x0 userapps.a(hm_dev_model.o)
 .bss           0x02015b40        0x0 userapps.a(hm_parameter.o)
 .bss           0x02015b40        0x0 userapps.a(hm_link.o)
 .bss           0x02015b40        0x0 userapps.a(hm_wifi_frame.o)
 .bss           0x02015b40        0x0 userapps.a(hm_MD5_sum.o)
 .bss           0x02015b40        0x0 userapps.a(md5sum.o)
 .bss           0x02015b40        0x0 libmc300.a(etimer.o)
 .bss           0x02015b40        0x0 libmc300.a(printf.o)
 .bss           0x02015b40        0x0 libmc300.a(process.o)
 .bss           0x02015b40        0x0 libmc300.a(strformat.o)
 .bss           0x02015b40        0x0 libmc300.a(timer.o)
 .bss           0x02015b40        0x0 libmc300.a(clock.o)
 .bss           0x02015b40        0x0 libmc300.a(contiki-main.o)
 .bss           0x02015b40        0x0 libmc300.a(debug-uart.o)
 .bss           0x02015b40        0x0 libmc300.a(drv_timer.o)
 .bss           0x02015b40        0x0 libmc300.a(drv_uart.o)
 .bss           0x02015b40        0x0 libmc300.a(hw_init.o)
 .bss           0x02015b40        0x0 libmc300.a(hw_regs_api.o)
 .bss           0x02015b40        0x0 libmc300.a(ssv_lib.o)
 .bss           0x02015b40        0x0 libmc300.a(swpwm.o)
 .bss           0x02015b40        0x0 libmc300.a(systemconf.o)
 .bss           0x02015b40        0x0 libmc300.a(wdog_api.o)
 .bss           0x02015b40        0x0 libmc300.a(xmem.o)
 .bss           0x02015b40        0x0 libmc300.a(bsp.o)
 .bss           0x02015b40        0x0 libmc300.a(crypthw.o)
 .bss           0x02015b40        0x0 libmc300.a(dbg-atcmd-api.o)
 .bss           0x02015b40        0x0 libmc300.a(drv_mac.o)
 .bss           0x02015b40        0x0 libmc300.a(drv_phy.o)
 .bss           0x02015b40        0x0 libmc300.a(drv_pktbuf.o)
 .bss           0x02015b40        0x0 libmc300.a(drv_pktbuf_slow)
 .bss           0x02015b40        0x0 libmc300.a(ieee80211_mgmt.)
 .bss           0x02015b40        0x0 libmc300.a(ieee80211_rdc.o)
 .bss           0x02015b40        0x0 libmc300.a(irq.o)
 .bss           0x02015b40        0x0 libmc300.a(netstack.o)
 .bss           0x02015b40        0x0 libmc300.a(powersave.o)
 .bss           0x02015b40        0x0 libmc300.a(rate_control.o)
 .bss           0x02015b40        0x0 libmc300.a(soft_ap.o)
 .bss           0x02015b40        0x0 libmc300.a(ssv6200_rx.o)
 .bss           0x02015b40        0x0 libmc300.a(ssvradio.o)
 .bss           0x02015b40        0x0 libmc300.a(wpa.o)
 .bss           0x02015b40        0x0 libmc300.a(aes.o)
 .bss           0x02015b40        0x0 libmc300.a(hfat.o)
 .bss           0x02015b40        0x0 libmc300.a(at_wifi_cmd.o)
 .bss           0x02015b40        0x0 libmc300.a(at_network_cmd.)
 .bss           0x02015b40        0x0 libmc300.a(hfgpio.o)
 .bss           0x02015b40        0x0 libmc300.a(hfdebug.o)
 .bss           0x02015b40        0x0 libmc300.a(hfuart.o)
 .bss           0x02015b40        0x0 libmc300.a(hfsys.o)
 .bss           0x02015b40        0x0 libmc300.a(hfconfig.o)
 .bss           0x02015b40        0x0 libmc300.a(hfflash.o)
 .bss           0x02015b40        0x0 libmc300.a(hfnet.o)
 .bss           0x02015b40        0x0 libmc300.a(uart_thread.o)
 .bss           0x02015b40        0x0 libmc300.a(hfwifi.o)
 .bss           0x02015b40        0x0 libmc300.a(hfupdate.o)
 .bss           0x02015b40        0x0 libmc300.a(httpclient.o)
 .bss           0x02015b40        0x0 libmc300.a(hfsmtlk.o)
 .bss           0x02015b40        0x0 libmc300.a(smartlinkV3.o)
 .bss           0x02015b40        0x0 libmc300.a(smartlinkV7.o)
 .bss           0x02015b40        0x0 libmc300.a(airkissv2.o)
 .bss           0x02015b40        0x0 libmc300.a(assis_thread.o)
 .bss           0x02015b40        0x0 libmc300.a(hftimer.o)
 .bss           0x02015b40        0x0 libmc300.a(at_fota.o)
 .bss           0x02015b40        0x0 libmc300.a(mc300_main.o)
 .bss           0x02015b40        0x0 libmc300.a(hfsniffer.o)
 .bss           0x02015b40        0x0 libmc300.a(socket_b.o)
 .bss           0x02015b40        0x0 libmc300.a(socket_a.o)
 .bss           0x02015b40        0x0 libmc300.a(at_socket_cmd.o)
 .bss           0x02015b40        0x0 libmc300.a(socket_a_client)
 .bss           0x02015b40        0x0 libmc300.a(atcmd.o)
 .bss           0x02015b40        0x0 libmc300.a(dhcp_process.o)
 .bss           0x02015b40        0x0 libmc300.a(dhcpc.o)
 .bss           0x02015b40        0x0 libmc300.a(dhcps.o)
 .bss           0x02015b40        0x0 libmc300.a(resolv.o)
 .bss           0x02015b40        0x0 libmc300.a(ringbuf.o)
 .bss           0x02015b40        0x0 libmc300.a(simple-udp.o)
 .bss           0x02015b40        0x0 libmc300.a(socket_driver.o)
 .bss           0x02015b40        0x0 libmc300.a(soft_ap_init.o)
 .bss           0x02015b40        0x0 libmc300.a(tcpip.o)
 .bss           0x02015b40        0x0 libmc300.a(uip-split.o)
 .bss           0x02015b40        0x0 libmc300.a(uip-udp-packet.)
 .bss           0x02015b40        0x0 libmc300.a(uip.o)
 .bss           0x02015b40        0x0 libmc300.a(uip_arp.o)
 .bss           0x02015b40        0x0 libmc300.a(uip_igmp.o)
 .bss           0x02015b40        0x0 libmc300.a(uiplib.o)
 .bss           0x02015b40        0x0 libmc300.a(arc4.o)
 .bss           0x02015b40        0x0 libmc300.a(wep.o)
 .bss           0x02015b40        0x0 libmc300.a(autostart.o)
 .bss           0x02015b40        0x0 libmc300.a(random.o)
 .bss           0x02015b40        0x0 libmc300.a(airkiss.o)
 .bss           0x02015b40        0x0 libmc300.a(atcmd_icomm.o)
 .bss           0x02015b40        0x0 libmc300.a(bsp_info.o)
 .bss           0x02015b40        0x0 libmc300.a(cfs-coffee.o)
 .bss           0x02015b40        0x0 libmc300.a(console.o)
 .bss           0x02015b40        0x0 libmc300.a(drv_flash.o)
 .bss           0x02015b40        0x0 libmc300.a(drv_gpio.o)
 .bss           0x02015b40        0x0 libmc300.a(gpio_api.o)
 .bss           0x02015b40        0x0 libmc300.a(drv_pmu.o)
 .bss           0x02015b40        0x0 libmc300.a(pwm_api.o)
 .bss           0x02015b40        0x0 libmc300.a(serial_api.o)
 .bss           0x02015b40        0x0 libmc300.a(drv_wdog.o)
 .bss           0x02015b40        0x0 libmc300.a(fence.o)
 .bss           0x02015b40        0x0 libmc300.a(flash_api.o)
 .bss           0x02015b40        0x0 libmc300.a(smartComm.o)
 .bss           0x02015b40        0x0 libmc300.a(smartConf.o)
 .bss           0x02015b40        0x0 libmc300.a(ssv_lib_slow.o)
 .bss           0x02015b40        0x0 libmc300.a(userSmart.o)
 .bss           0x02015b40        0x0 libmc300.a(drv_mbox.o)
 .bss           0x02015b40        0x0 libmc300.a(hash_alg.o)
 .bss           0x02015b40        0x0 libmc300.a(hmac_md5.o)
 .bss           0x02015b40        0x0 libmc300.a(hmac_sha1.o)
 .bss           0x02015b40        0x0 libmc300.a(ieee80211_mac.o)
 .bss           0x02015b40        0x0 libmc300.a(ieee80211_net.o)
 .bss           0x02015b40        0x0 libmc300.a(sha1.o)
 .bss           0x02015b40        0x0 libmc300.a(ssv6200_tx.o)
 .bss           0x02015b40        0x0 libmc300.a(sys_status_api.)
 .bss           0x02015b40        0x0 libmc300.a(shell-ping.o)
 .bss           0x02015b40        0x0 libmc300.a(drv_fence.o)
 .bss           0x02015b40        0x0 libmc300.a(drv_pwm.o)
 .bss           0x02015b40        0x0 libmc300.a(EAPOL.o)
 .bss           0x02015b40        0x0 libcjsona.a(cJSON.o)
 .bss           0x02015b40        0x0 ./thirdpartylib/libairkiss.a(airkiss.o)
 .bss           0x02015b40        0x0 ./thirdpartylib/libairkiss.a(airlink.o)
 .bss           0x02015b40        0x0 /usr/bin/../lib/gcc/arm-none-eabi/4.8.4/../../../../arm-none-eabi/lib/libm.a(lib_a-s_fabs.o)
 .bss           0x02015b40        0x0 /usr/bin/../lib/gcc/arm-none-eabi/4.8.4/../../../../arm-none-eabi/lib/libm.a(lib_a-s_floor.o)
 .bss           0x02015b40        0x0 /usr/bin/../lib/gcc/arm-none-eabi/4.8.4/../../../../arm-none-eabi/lib/libm.a(lib_a-w_pow.o)
 .bss           0x02015b40        0x0 /usr/bin/../lib/gcc/arm-none-eabi/4.8.4/../../../../arm-none-eabi/lib/libm.a(lib_a-e_pow.o)
 .bss           0x02015b40        0x0 /usr/bin/../lib/gcc/arm-none-eabi/4.8.4/../../../../arm-none-eabi/lib/libm.a(lib_a-e_sqrt.o)
 .bss           0x02015b40        0x0 /usr/bin/../lib/gcc/arm-none-eabi/4.8.4/../../../../arm-none-eabi/lib/libm.a(lib_a-s_finite.o)
 .bss           0x02015b40        0x0 /usr/bin/../lib/gcc/arm-none-eabi/4.8.4/../../../../arm-none-eabi/lib/libm.a(lib_a-s_fpclassify.o)
 .bss           0x02015b40        0x0 /usr/bin/../lib/gcc/arm-none-eabi/4.8.4/../../../../arm-none-eabi/lib/libm.a(lib_a-s_lib_ver.o)
 .bss           0x02015b40        0x0 /usr/bin/../lib/gcc/arm-none-eabi/4.8.4/../../../../arm-none-eabi/lib/libm.a(lib_a-s_matherr.o)
 .bss           0x02015b40        0x0 /usr/bin/../lib/gcc/arm-none-eabi/4.8.4/../../../../arm-none-eabi/lib/libm.a(lib_a-s_nan.o)
 .bss           0x02015b40        0x0 /usr/bin/../lib/gcc/arm-none-eabi/4.8.4/../../../../arm-none-eabi/lib/libm.a(lib_a-s_rint.o)
 .bss           0x02015b40        0x0 /usr/bin/../lib/gcc/arm-none-eabi/4.8.4/../../../../arm-none-eabi/lib/libm.a(lib_a-s_scalbn.o)
 .bss           0x02015b40        0x0 /usr/bin/../lib/gcc/arm-none-eabi/4.8.4/../../../../arm-none-eabi/lib/libm.a(lib_a-s_copysign.o)
 .bss           0x02015b40        0x0 /usr/bin/../lib/gcc/arm-none-eabi/4.8.4/libgcc.a(_udivsi3.o)
 .bss           0x02015b40        0x0 /usr/bin/../lib/gcc/arm-none-eabi/4.8.4/libgcc.a(_divsi3.o)
 .bss           0x02015b40        0x0 /usr/bin/../lib/gcc/arm-none-eabi/4.8.4/libgcc.a(_dvmd_tls.o)
 .bss           0x02015b40        0x0 /usr/bin/../lib/gcc/arm-none-eabi/4.8.4/libgcc.a(_arm_addsubdf3.o)
 .bss           0x02015b40        0x0 /usr/bin/../lib/gcc/arm-none-eabi/4.8.4/libgcc.a(_arm_muldivdf3.o)
 .bss           0x02015b40        0x0 /usr/bin/../lib/gcc/arm-none-eabi/4.8.4/libgcc.a(_arm_cmpdf2.o)
 .bss           0x02015b40        0x0 /usr/bin/../lib/gcc/arm-none-eabi/4.8.4/libgcc.a(_arm_fixdfsi.o)
 .bss           0x02015b40        0x0 /usr/bin/../lib/gcc/arm-none-eabi/4.8.4/libgcc.a(_arm_truncdfsf2.o)
 .bss           0x02015b40        0x0 /usr/bin/../lib/gcc/arm-none-eabi/4.8.4/libgcc.a(_arm_addsubsf3.o)
 .bss           0x02015b40        0x0 /usr/bin/../lib/gcc/arm-none-eabi/4.8.4/libgcc.a(_arm_muldivsf3.o)
 .bss           0x02015b40        0x0 /usr/bin/../lib/gcc/arm-none-eabi/4.8.4/libgcc.a(_aeabi_uldivmod.o)
 .bss           0x02015b40        0x0 /usr/bin/../lib/gcc/arm-none-eabi/4.8.4/libgcc.a(bpabi.o)
 .bss           0x02015b40        0x0 /usr/bin/../lib/gcc/arm-none-eabi/4.8.4/libgcc.a(_divdi3.o)
 .bss           0x02015b40        0x0 /usr/bin/../lib/gcc/arm-none-eabi/4.8.4/libgcc.a(_udivdi3.o)
 .bss           0x02015b40        0x0 /usr/bin/../lib/gcc/arm-none-eabi/4.8.4/libgcc.a(_clzsi2.o)
 .bss           0x02015b40        0x0 /usr/bin/../lib/gcc/arm-none-eabi/4.8.4/../../../../arm-none-eabi/lib/libg_s.a(lib_a-atoi.o)
 .bss           0x02015b40        0x0 /usr/bin/../lib/gcc/arm-none-eabi/4.8.4/../../../../arm-none-eabi/lib/libg_s.a(lib_a-bzero.o)
 .bss           0x02015b40        0x0 /usr/bin/../lib/gcc/arm-none-eabi/4.8.4/../../../../arm-none-eabi/lib/libg_s.a(lib_a-ctype_.o)
 .bss           0x02015b40        0x0 /usr/bin/../lib/gcc/arm-none-eabi/4.8.4/../../../../arm-none-eabi/lib/libg_s.a(lib_a-errno.o)
 .bss           0x02015b40        0x0 /usr/bin/../lib/gcc/arm-none-eabi/4.8.4/../../../../arm-none-eabi/lib/libg_s.a(lib_a-impure.o)
 .bss           0x02015b40        0x0 /usr/bin/../lib/gcc/arm-none-eabi/4.8.4/../../../../arm-none-eabi/lib/libg_s.a(lib_a-malloc.o)
 .bss           0x02015b40        0x0 /usr/bin/../lib/gcc/arm-none-eabi/4.8.4/../../../../arm-none-eabi/lib/libg_s.a(lib_a-memchr-stub.o)
 .bss           0x02015b40        0x0 /usr/bin/../lib/gcc/arm-none-eabi/4.8.4/../../../../arm-none-eabi/lib/libg_s.a(lib_a-mstats.o)
 .bss           0x02015b40        0x0 /usr/bin/../lib/gcc/arm-none-eabi/4.8.4/../../../../arm-none-eabi/lib/libg_s.a(lib_a-nano-freer.o)
 .bss           0x02015b40        0x0 /usr/bin/../lib/gcc/arm-none-eabi/4.8.4/../../../../arm-none-eabi/lib/libg_s.a(lib_a-nano-mallinfor.o)
 .bss           0x02015b40        0x0 /usr/bin/../lib/gcc/arm-none-eabi/4.8.4/../../../../arm-none-eabi/lib/libg_s.a(lib_a-nano-mallocr.o)
 .bss           0x02015b40        0x0 /usr/bin/../lib/gcc/arm-none-eabi/4.8.4/../../../../arm-none-eabi/lib/libg_s.a(lib_a-nano-malloptr.o)
 .bss           0x02015b40        0x0 /usr/bin/../lib/gcc/arm-none-eabi/4.8.4/../../../../arm-none-eabi/lib/libg_s.a(lib_a-nano-mallstatsr.o)
 .bss           0x02015b40        0x0 /usr/bin/../lib/gcc/arm-none-eabi/4.8.4/../../../../arm-none-eabi/lib/libg_s.a(lib_a-rand.o)
 .bss           0x02015b40        0x0 /usr/bin/../lib/gcc/arm-none-eabi/4.8.4/../../../../arm-none-eabi/lib/libg_s.a(lib_a-realloc.o)
 .bss           0x02015b40        0x0 /usr/bin/../lib/gcc/arm-none-eabi/4.8.4/../../../../arm-none-eabi/lib/libg_s.a(lib_a-sbrkr.o)
 .bss           0x02015b40        0x0 /usr/bin/../lib/gcc/arm-none-eabi/4.8.4/../../../../arm-none-eabi/lib/libg_s.a(lib_a-sscanf.o)
 .bss           0x02015b40        0x0 /usr/bin/../lib/gcc/arm-none-eabi/4.8.4/../../../../arm-none-eabi/lib/libg_s.a(lib_a-stdio.o)
 .bss           0x02015b40        0x0 /usr/bin/../lib/gcc/arm-none-eabi/4.8.4/../../../../arm-none-eabi/lib/libg_s.a(lib_a-strcasecmp.o)
 .bss           0x02015b40        0x0 /usr/bin/../lib/gcc/arm-none-eabi/4.8.4/../../../../arm-none-eabi/lib/libg_s.a(lib_a-strncasecmp.o)
 .bss           0x02015b40        0x0 /usr/bin/../lib/gcc/arm-none-eabi/4.8.4/../../../../arm-none-eabi/lib/libg_s.a(lib_a-strtol.o)
 .bss           0x02015b40        0x0 /usr/bin/../lib/gcc/arm-none-eabi/4.8.4/../../../../arm-none-eabi/lib/libg_s.a(lib_a-strtoul.o)
 .bss           0x02015b40        0x0 /usr/bin/../lib/gcc/arm-none-eabi/4.8.4/../../../../arm-none-eabi/lib/libg_s.a(lib_a-svfscanf.o)
 .bss           0x02015b40        0x0 /usr/bin/../lib/gcc/arm-none-eabi/4.8.4/../../../../arm-none-eabi/lib/libg_s.a(lib_a-ungetc.o)
 .bss           0x02015b40        0x0 /usr/bin/../lib/gcc/arm-none-eabi/4.8.4/../../../../arm-none-eabi/lib/libg_s.a(lib_a-vfscanf_i.o)
 .bss           0x02015b40        0x0 /usr/bin/../lib/gcc/arm-none-eabi/4.8.4/../../../../arm-none-eabi/lib/libg_s.a(lib_a-writer.o)
 .bss           0x02015b40        0x0 /usr/bin/../lib/gcc/arm-none-eabi/4.8.4/../../../../arm-none-eabi/lib/libg_s.a(lib_a-closer.o)
 .bss           0x02015b40        0x0 /usr/bin/../lib/gcc/arm-none-eabi/4.8.4/../../../../arm-none-eabi/lib/libg_s.a(lib_a-fflush.o)
 .bss           0x02015b40        0x0 /usr/bin/../lib/gcc/arm-none-eabi/4.8.4/../../../../arm-none-eabi/lib/libg_s.a(lib_a-findfp.o)
 .bss           0x02015b40        0x0 /usr/bin/../lib/gcc/arm-none-eabi/4.8.4/../../../../arm-none-eabi/lib/libg_s.a(lib_a-fprintf.o)
 .bss           0x02015b40        0x0 /usr/bin/../lib/gcc/arm-none-eabi/4.8.4/../../../../arm-none-eabi/lib/libg_s.a(lib_a-fwalk.o)
 .bss           0x02015b40        0x0 /usr/bin/../lib/gcc/arm-none-eabi/4.8.4/../../../../arm-none-eabi/lib/libg_s.a(lib_a-lseekr.o)
 .bss           0x02015b40        0x0 /usr/bin/../lib/gcc/arm-none-eabi/4.8.4/../../../../arm-none-eabi/lib/libg_s.a(lib_a-nano-reallocr.o)
 .bss           0x02015b40        0x0 /usr/bin/../lib/gcc/arm-none-eabi/4.8.4/../../../../arm-none-eabi/lib/libg_s.a(lib_a-readr.o)
 .bss           0x02015b40        0x0 /usr/bin/../lib/gcc/arm-none-eabi/4.8.4/../../../../arm-none-eabi/lib/libg_s.a(lib_a-reent.o)
 .bss           0x02015b40        0x0 /usr/bin/../lib/gcc/arm-none-eabi/4.8.4/../../../../arm-none-eabi/lib/libg_s.a(lib_a-sccl.o)
 .bss           0x02015b40        0x0 /usr/bin/../lib/gcc/arm-none-eabi/4.8.4/../../../../arm-none-eabi/lib/libg_s.a(lib_a-vfprintf.o)
 .bss           0x02015b40        0x0 /usr/bin/../lib/gcc/arm-none-eabi/4.8.4/../../../../arm-none-eabi/lib/libg_s.a(lib_a-vfprintf_i.o)
 .bss           0x02015b40        0x0 /usr/bin/../lib/gcc/arm-none-eabi/4.8.4/../../../../arm-none-eabi/lib/libg_s.a(lib_a-wbuf.o)
 .bss           0x02015b40        0x0 /usr/bin/../lib/gcc/arm-none-eabi/4.8.4/../../../../arm-none-eabi/lib/libg_s.a(lib_a-wsetup.o)
 .bss           0x02015b40        0x0 /usr/bin/../lib/gcc/arm-none-eabi/4.8.4/../../../../arm-none-eabi/lib/libg_s.a(lib_a-fvwrite.o)
 .bss           0x02015b40        0x0 /usr/bin/../lib/gcc/arm-none-eabi/4.8.4/../../../../arm-none-eabi/lib/libg_s.a(lib_a-makebuf.o)
 .bss           0x02015b40        0x0 /usr/bin/../lib/gcc/arm-none-eabi/4.8.4/../../../../arm-none-eabi/lib/libg_s.a(lib_a-nano-msizer.o)
 .bss           0x02015b40        0x0 /usr/bin/../lib/gcc/arm-none-eabi/4.8.4/../../../../arm-none-eabi/lib/libg_s.a(lib_a-fstatr.o)
 .bss           0x02015b40        0x0 /usr/bin/../lib/gcc/arm-none-eabi/4.8.4/../../../../arm-none-eabi/lib/libg_s.a(lib_a-isattyr.o)
 .bss           0x02015b40        0x0 /usr/bin/../lib/gcc/arm-none-eabi/4.8.4/../../../../arm-none-eabi/lib/libnosys.a(close.o)
 .bss           0x02015b40        0x0 /usr/bin/../lib/gcc/arm-none-eabi/4.8.4/../../../../arm-none-eabi/lib/libnosys.a(fstat.o)
 .bss           0x02015b40        0x0 /usr/bin/../lib/gcc/arm-none-eabi/4.8.4/../../../../arm-none-eabi/lib/libnosys.a(isatty.o)
 .bss           0x02015b40        0x0 /usr/bin/../lib/gcc/arm-none-eabi/4.8.4/../../../../arm-none-eabi/lib/libnosys.a(lseek.o)
 .bss           0x02015b40        0x0 /usr/bin/../lib/gcc/arm-none-eabi/4.8.4/../../../../arm-none-eabi/lib/libnosys.a(read.o)
 .bss           0x02015b40        0x0 /usr/bin/../lib/gcc/arm-none-eabi/4.8.4/../../../../arm-none-eabi/lib/libnosys.a(write.o)
 *(EXCLUDE_FILE(libmc300.a:boot-hiflying.o) .bss*)
 .bss.wait_timer.8176
                0x02015b40       0x18 main.o
 .bss.detail    0x02015b58      0x200 userapps.a(hm_system.o)
 .bss.hm_sys_run_info
                0x02015d58        0x5 userapps.a(hm_system.o)
                0x02015d58                hm_sys_run_info
 *fill*         0x02015d5d        0x3 
 .bss.product_info
                0x02015d60       0x70 userapps.a(hm_system.o)
                0x02015d60                product_info
 .bss.p_last.8389
                0x02015dd0        0x4 userapps.a(RCLutils.o)
 *fill*         0x02015dd4        0x4 
 .bss.x_last.8386
                0x02015dd8        0x8 userapps.a(RCLutils.o)
 .bss.periodic_timer.8723
                0x02015de0       0x18 userapps.a(hm_app_main.o)
 .bss.send_seq_num
                0x02015df8        0x1 userapps.a(hm_uart_handle.)
                0x02015df8                send_seq_num
 *fill*         0x02015df9        0x3 
 .bss.socketNum
                0x02015dfc        0x4 userapps.a(hm_connect_clou)
                0x02015dfc                socketNum
 .bss.shm_tcp_connect_flag
                0x02015e00        0x1 userapps.a(hm_connect_clou)
                0x02015e00                shm_tcp_connect_flag
 .bss.Hm_ServerAddr
                0x02015e01       0x40 userapps.a(hm_connect_clou)
 *fill*         0x02015e41        0x7 
 .bss.timer_sleep.8954
                0x02015e48       0x18 userapps.a(hm_connect_clou)
 .bss.heartbeat_miss_times
                0x02015e60        0x1 userapps.a(hm_connect_clou)
 .bss.tcp_send_buf
                0x02015e61      0x200 userapps.a(hm_connect_clou)
 .bss.print_buf
                0x02016061       0xff userapps.a(hm_connect_clou)
 .bss.msgid.8823
                0x02016160        0x4 userapps.a(hm_connect_clou)
 .bss.wt_sw_cmd_attr_list
                0x02016164        0x1 userapps.a(hm_dev_model.o)
                0x02016164                wt_sw_cmd_attr_list
 .bss.passwd    0x02016165       0x40 userapps.a(hm_link.o)
                0x02016165                passwd
 *fill*         0x020161a5        0x3 
 .bss.client_conn
                0x020161a8       0x50 userapps.a(hm_link.o)
 .bss.pincode   0x020161f8        0x7 userapps.a(hm_link.o)
                0x020161f8                pincode
 *fill*         0x020161ff        0x1 
 .bss.shm_sta_sniffer_timer.8810
                0x02016200       0x18 userapps.a(hm_link.o)
 .bss.periodic_timer.8809
                0x02016218       0x18 userapps.a(hm_link.o)
 .bss.goout.8734
                0x02016230        0x1 userapps.a(hm_link.o)
 *fill*         0x02016231        0x7 
 .bss.timer_sleep.8759
                0x02016238       0x18 userapps.a(hm_link.o)
 .bss.ssid      0x02016250       0x40 userapps.a(hm_link.o)
                0x02016250                ssid
 .bss.tcp_frame_buf
                0x02016290       0x54 userapps.a(hm_wifi_frame.o)
                0x02016290                tcp_frame_buf
 .bss.current_tcp_frame_num
                0x020162e4        0x4 userapps.a(hm_wifi_frame.o)
                0x020162e4                current_tcp_frame_num
 .bss.timerlist
                0x020162e8        0x4 libmc300.a(etimer.o)
 *fill*         0x020162ec        0x4 
 .bss.next_expiration
                0x020162f0        0x8 libmc300.a(etimer.o)
 .bss.g_aLogLevel
                0x020162f8       0x20 libmc300.a(printf.o)
                0x020162f8                g_aLogLevel
 .bss.fevent    0x02016318        0x1 libmc300.a(process.o)
 *fill*         0x02016319        0x3 
 .bss.receiver.5196
                0x0201631c        0x4 libmc300.a(process.o)
 .bss.data.5195
                0x02016320        0x4 libmc300.a(process.o)
 .bss.nevents   0x02016324        0x1 libmc300.a(process.o)
 *fill*         0x02016325        0x3 
 .bss.p.5197    0x02016328        0x4 libmc300.a(process.o)
 .bss.poll_requested
                0x0201632c        0x1 libmc300.a(process.o)
 *fill*         0x0201632d        0x3 
 .bss.process_current
                0x02016330        0x4 libmc300.a(process.o)
                0x02016330                process_current
 .bss.snum.5212
                0x02016334        0x1 libmc300.a(process.o)
 *fill*         0x02016335        0x3 
 .bss.process_list
                0x02016338        0x4 libmc300.a(process.o)
                0x02016338                process_list
 .bss.ev.5194   0x0201633c        0x1 libmc300.a(process.o)
 *fill*         0x0201633d        0x3 
 .bss.events    0x02016340      0xa50 libmc300.a(process.o)
 .bss.lastevent
                0x02016d90        0x1 libmc300.a(process.o)
 *fill*         0x02016d91        0x7 
 .bss.current_clock
                0x02016d98        0x8 libmc300.a(clock.o)
 .bss.current_ntp_clock
                0x02016da0        0x8 libmc300.a(clock.o)
 .bss.current_seconds
                0x02016da8        0x4 libmc300.a(clock.o)
 .bss.current_ticks
                0x02016dac        0x4 libmc300.a(clock.o)
                0x02016dac                current_ticks
 .bss.current_ms
                0x02016db0        0x4 libmc300.a(clock.o)
                0x02016db0                current_ms
 .bss.gDisableRTS
                0x02016db4        0x1 libmc300.a(contiki-main.o)
                0x02016db4                gDisableRTS
 *fill*         0x02016db5        0x3 
 .bss.idle_count
                0x02016db8        0x4 libmc300.a(contiki-main.o)
                0x02016db8                idle_count
 .bss.dbg_write_overrun
                0x02016dbc        0x4 libmc300.a(debug-uart.o)
 .bss.uarts_active_flag
                0x02016dc0        0x2 libmc300.a(drv_uart.o)
 *fill*         0x02016dc2        0x2 
 .bss.g_modulator_pll_reset
                0x02016dc4        0x4 libmc300.a(hw_init.o)
                0x02016dc4                g_modulator_pll_reset
 .bss.last.4925
                0x02016dc8        0x4 libmc300.a(ssv_lib.o)
 .bss.pwmlist   0x02016dcc       0x24 libmc300.a(swpwm.o)
 .bss.currtick  0x02016df0        0x8 libmc300.a(swpwm.o)
 .bss.wdog_timer.4974
                0x02016df8       0x18 libmc300.a(wdog_api.o)
 .bss.g_wdog_cnt
                0x02016e10        0x4 libmc300.a(wdog_api.o)
 .bss.wdogen.4975
                0x02016e14        0x1 libmc300.a(wdog_api.o)
 *fill*         0x02016e15        0x3 
 .bss.gChipId   0x02016e18        0x4 libmc300.a(bsp.o)
                0x02016e18                gChipId
 .bss.stTemperature
                0x02016e1c        0x4 libmc300.a(dbg-atcmd-api.o)
                0x02016e1c                stTemperature
 .bss.tx_timer.8234
                0x02016e20       0x18 libmc300.a(dbg-atcmd-api.o)
 .bss.curr_temperature_state
                0x02016e38        0x1 libmc300.a(dbg-atcmd-api.o)
 *fill*         0x02016e39        0x3 
 .bss.nowCount.8221
                0x02016e3c        0x4 libmc300.a(dbg-atcmd-api.o)
 .bss.tx_timer.8220
                0x02016e40       0x18 libmc300.a(dbg-atcmd-api.o)
 .bss.eventcallback
                0x02016e58        0x4 libmc300.a(dbg-atcmd-api.o)
                0x02016e58                eventcallback
 .bss.channel_log
                0x02016e5c      0x1f4 libmc300.a(dbg-atcmd-api.o)
                0x02016e5c                channel_log
 .bss.flash_buf
                0x02017050        0x4 libmc300.a(dbg-atcmd-api.o)
                0x02017050                flash_buf
 .bss.nRFResult
                0x02017054       0x50 libmc300.a(dbg-atcmd-api.o)
                0x02017054                nRFResult
 *fill*         0x020170a4        0x4 
 .bss.temp_timer.8247
                0x020170a8       0x18 libmc300.a(dbg-atcmd-api.o)
 .bss.rtbl_temperature
                0x020170c0        0x4 libmc300.a(drv_phy.o)
                0x020170c0                rtbl_temperature
 .bss.pbuf_id_num
                0x020170c4        0x2 libmc300.a(drv_pktbuf.o)
 .bss.pbuf_id_out_ptr
                0x020170c6        0x2 libmc300.a(drv_pktbuf.o)
 .bss.pbuf_id_queue
                0x020170c8      0x100 libmc300.a(drv_pktbuf.o)
 .bss.pbuf_id_in_ptr
                0x020171c8        0x2 libmc300.a(drv_pktbuf.o)
 .bss.loop.7677
                0x020171ca        0x1 libmc300.a(ieee80211_mgmt.)
 .bss.level.7678
                0x020171cb        0x1 libmc300.a(ieee80211_mgmt.)
 .bss.cur_channel.7699
                0x020171cc        0x1 libmc300.a(ieee80211_mgmt.)
 *fill*         0x020171cd        0x1 
 .bss.addr.7729
                0x020171ce        0x4 libmc300.a(ieee80211_mgmt.)
 .bss.available_index
                0x020171d2        0x1 libmc300.a(ieee80211_mgmt.)
 *fill*         0x020171d3        0x5 
 .bss.timer.7663
                0x020171d8       0x18 libmc300.a(ieee80211_mgmt.)
 .bss.change_time
                0x020171f0        0x4 libmc300.a(ieee80211_mgmt.)
 .bss.max_channel.7700
                0x020171f4        0x1 libmc300.a(ieee80211_mgmt.)
 *fill*         0x020171f5        0x1 
 .bss.scantime_in_ms.7701
                0x020171f6        0x2 libmc300.a(ieee80211_mgmt.)
 .bss.p_scan_custom_args.7698
                0x020171f8        0x4 libmc300.a(ieee80211_mgmt.)
 .bss.txcnt.7676
                0x020171fc        0x1 libmc300.a(ieee80211_mgmt.)
 .bss.req_count
                0x020171fd        0x1 libmc300.a(ieee80211_mgmt.)
 *fill*         0x020171fe        0x2 
 .bss.probtimer.7674
                0x02017200       0x18 libmc300.a(ieee80211_mgmt.)
 .bss.channel   0x02017218        0x4 libmc300.a(ieee80211_mgmt.)
 .bss.checkAPCnt
                0x0201721c        0x1 libmc300.a(ieee80211_mgmt.)
                0x0201721c                checkAPCnt
 *fill*         0x0201721d        0x3 
 .bss.seqctrl   0x02017220        0x4 libmc300.a(ieee80211_mgmt.)
 *fill*         0x02017224        0x4 
 .bss.timer.7696
                0x02017228       0x18 libmc300.a(ieee80211_mgmt.)
 .bss.addrptr.7730
                0x02017240        0x4 libmc300.a(ieee80211_mgmt.)
 .bss.level.7702
                0x02017244        0x1 libmc300.a(ieee80211_mgmt.)
 .bss.cur_channel.7675
                0x02017245        0x1 libmc300.a(ieee80211_mgmt.)
 *fill*         0x02017246        0x2 
 .bss.formP.7697
                0x02017248        0x4 libmc300.a(ieee80211_mgmt.)
 *fill*         0x0201724c        0x4 
 .bss.timer.7719
                0x02017250       0x18 libmc300.a(ieee80211_mgmt.)
 .bss.gOsFromISR
                0x02017268        0x1 libmc300.a(irq.o)
                0x02017268                gOsFromISR
 *fill*         0x02017269        0x3 
 .bss.xCurrentTick
                0x0201726c        0x4 libmc300.a(irq.o)
                0x0201726c                xCurrentTick
 .bss.main_irq_tbl
                0x02017270      0x180 libmc300.a(irq.o)
 .bss.last_rxen_cnt.4736
                0x020173f0        0x4 libmc300.a(irq.o)
 .bss.bShowPHYReset
                0x020173f4        0x1 libmc300.a(irq.o)
                0x020173f4                bShowPHYReset
 .bss.losscnt   0x020173f5        0x1 libmc300.a(powersave.o)
                0x020173f5                losscnt
 *fill*         0x020173f6        0x2 
 .bss.g_idle_counter
                0x020173f8        0x4 libmc300.a(soft_ap.o)
                0x020173f8                g_idle_counter
 .bss.beacon_loop_cnt.8705
                0x020173fc        0x2 libmc300.a(soft_ap.o)
 .bss.g_softap_state_tmp
                0x020173fe        0x1 libmc300.a(soft_ap.o)
                0x020173fe                g_softap_state_tmp
 *fill*         0x020173ff        0x1 
 .bss.p_sta_info.8694
                0x02017400        0x4 libmc300.a(soft_ap.o)
 .bss.g_beacon_len
                0x02017404        0x2 libmc300.a(soft_ap.o)
                0x02017404                g_beacon_len
 *fill*         0x02017406        0x2 
 .bss.mgm_timer.8678
                0x02017408       0x18 libmc300.a(soft_ap.o)
 .bss.rlt.8704  0x02017420        0x4 libmc300.a(soft_ap.o)
 *fill*         0x02017424        0x4 
 .bss.null_data_timer.8690
                0x02017428       0x18 libmc300.a(soft_ap.o)
 .bss.index_sta.8693
                0x02017440        0x1 libmc300.a(soft_ap.o)
 *fill*         0x02017441        0x3 
 .bss.filterdebug
                0x02017444        0x4 libmc300.a(ssv6200_rx.o)
                0x02017444                filterdebug
 .bss.spwsavecnt.6995
                0x02017448        0x1 libmc300.a(ssv6200_rx.o)
 .bss.filter_ethaddr
                0x02017449        0x6 libmc300.a(ssv6200_rx.o)
                0x02017449                filter_ethaddr
 *fill*         0x0201744f        0x1 
 .bss.filtercount
                0x02017450        0x4 libmc300.a(ssv6200_rx.o)
                0x02017450                filtercount
 .bss.g_tx_config
                0x02017454        0xc libmc300.a(ssvradio.o)
                0x02017454                g_tx_config
 .bss.fc_subtype_type_ver.6660
                0x02017460        0x2 libmc300.a(ssvradio.o)
 .bss.at_rsp    0x02017462      0x100 libmc300.a(hfat.o)
 .bss.at_cmd_line_buffer
                0x02017562      0x100 libmc300.a(hfat.o)
 *fill*         0x02017662        0x2 
 .bss.index.9531
                0x02017664        0x4 libmc300.a(at_wifi_cmd.o)
 .bss.wait_timer.9530
                0x02017668       0x18 libmc300.a(at_wifi_cmd.o)
 .bss.nReload_start_time
                0x02017680        0x4 libmc300.a(hfgpio.o)
                0x02017680                nReload_start_time
 .bss.reload_bt_press_times.8607
                0x02017684        0x4 libmc300.a(hfgpio.o)
 .bss.gpio_test_running
                0x02017688        0x4 libmc300.a(hfgpio.o)
 *fill*         0x0201768c        0x4 
 .bss.check_timer.8605
                0x02017690       0x18 libmc300.a(hfgpio.o)
 .bss.gpio_interrupt_vectors_table
                0x020176a8       0x60 libmc300.a(hfgpio.o)
 .bss.gpio_interrupt_num
                0x02017708        0x4 libmc300.a(hfgpio.o)
 .bss.dbg_buf   0x0201770c      0x100 libmc300.a(hfdebug.o)
 .bss.g_system_time
                0x0201780c        0x4 libmc300.a(hfsys.o)
                0x0201780c                g_system_time
 .bss.p_sys_event_callback
                0x02017810        0x4 libmc300.a(hfsys.o)
 .bss.g_module_reset_reason
                0x02017814        0x4 libmc300.a(hfsys.o)
                0x02017814                g_module_reset_reason
 .bss.g_ex_default_rf_table
                0x02017818        0x4 libmc300.a(hfconfig.o)
                0x02017818                g_ex_default_rf_table
 .bss.p_socketb_recv_callback
                0x0201781c        0x4 libmc300.a(hfnet.o)
 .bss.p_socketa_recv_callback
                0x02017820        0x4 libmc300.a(hfnet.o)
 .bss.conn.8585
                0x02017824        0x4 libmc300.a(hfnet.o)
 .bss.p_uart_recv_callback
                0x02017828        0x4 libmc300.a(hfnet.o)
 .bss.conn.8596
                0x0201782c        0x4 libmc300.a(hfnet.o)
 .bss.conn.8541
                0x02017830        0x4 libmc300.a(hfnet.o)
 .bss.p_assis_recv_callback
                0x02017834        0x4 libmc300.a(hfnet.o)
 .bss.conn.8607
                0x02017838        0x4 libmc300.a(hfnet.o)
 .bss.conn.8563
                0x0201783c        0x4 libmc300.a(hfnet.o)
 .bss.conn.8552
                0x02017840        0x4 libmc300.a(hfnet.o)
 .bss.conn.8574
                0x02017844        0x4 libmc300.a(hfnet.o)
 .bss.uart_thread_wait
                0x02017848        0x1 libmc300.a(uart_thread.o)
 *fill*         0x02017849        0x3 
 .bss.uart_rx_buf
                0x0201784c        0xc libmc300.a(uart_thread.o)
 .bss.cmd_len.9384
                0x02017858        0x4 libmc300.a(uart_thread.o)
 .bss.cmd_line.9387
                0x0201785c      0x400 libmc300.a(uart_thread.o)
 .bss.uart_recv_bytes
                0x02017c5c        0x4 libmc300.a(uart_thread.o)
 .bss.m2m_app_state
                0x02017c60        0x4 libmc300.a(uart_thread.o)
                0x02017c60                m2m_app_state
 .bss.cmd_mode_tag.9431
                0x02017c64        0x4 libmc300.a(uart_thread.o)
 .bss.bpara.9386
                0x02017c68        0x1 libmc300.a(uart_thread.o)
 *fill*         0x02017c69        0x3 
 .bss.uart_rx_buf_data
                0x02017c6c        0x4 libmc300.a(uart_thread.o)
                0x02017c6c                uart_rx_buf_data
 .bss.tmp_state.9425
                0x02017c70        0x1 libmc300.a(uart_thread.o)
 *fill*         0x02017c71        0x7 
 .bss.wait_timer.9427
                0x02017c78       0x18 libmc300.a(uart_thread.o)
 .bss.check_timer.9532
                0x02017c90       0x18 libmc300.a(hfwifi.o)
 .bss.p_wifi_scan_process
                0x02017ca8        0x4 libmc300.a(hfwifi.o)
 .bss.g_tcpip_active_time
                0x02017cac        0x4 libmc300.a(hfwifi.o)
 .bss.g_pre_scan_time
                0x02017cb0        0x8 libmc300.a(hfwifi.o)
 .bss.ps_interval.9533
                0x02017cb8        0x4 libmc300.a(hfwifi.o)
 .bss.p_wifi_scan_callback
                0x02017cbc        0x4 libmc300.a(hfwifi.o)
 .bss.mode.9493
                0x02017cc0        0x1 libmc300.a(hfwifi.o)
 *fill*         0x02017cc1        0x3 
 .bss.upgrade_sw_url
                0x02017cc4        0x4 libmc300.a(hfupdate.o)
 .bss.upgrade_sw_file_length
                0x02017cc8        0x4 libmc300.a(hfupdate.o)
 .bss.upgrade_config_url
                0x02017ccc        0x4 libmc300.a(hfupdate.o)
 .bss.upgrade_socket
                0x02017cd0       0x18 libmc300.a(hfupdate.o)
 .bss.upgrade_default_config_success
                0x02017ce8        0x4 libmc300.a(hfupdate.o)
 .bss.upgrades_addr.8679
                0x02017cec        0x4 libmc300.a(hfupdate.o)
 .bss.auto_upgrade_running
                0x02017cf0        0x4 libmc300.a(hfupdate.o)
 .bss.upgrade_step
                0x02017cf4        0x4 libmc300.a(hfupdate.o)
                0x02017cf4                upgrade_step
 .bss.wait_timer.8834
                0x02017cf8       0x18 libmc300.a(hfupdate.o)
 .bss.wait_start_time
                0x02017d10        0x4 libmc300.a(hfupdate.o)
 .bss.boot_ver.8703
                0x02017d14       0x10 libmc300.a(hfupdate.o)
 .bss.auto_upgrades_addr
                0x02017d24        0x4 libmc300.a(hfupdate.o)
 .bss.success_pin
                0x02017d28        0x4 libmc300.a(hfupdate.o)
 .bss.auto_upgrade_success
                0x02017d2c        0x4 libmc300.a(hfupdate.o)
 .bss.upgrade_sysconfig_file
                0x02017d30        0x4 libmc300.a(hfupdate.o)
 .bss.upgrade_sysconfig_file_length
                0x02017d34        0x4 libmc300.a(hfupdate.o)
 .bss.is_created.8685
                0x02017d38        0x1 libmc300.a(hfupdate.o)
 *fill*         0x02017d39        0x3 
 .bss.upgrade_time
                0x02017d3c        0x4 libmc300.a(hfupdate.o)
 .bss.upgrade_config_file_length
                0x02017d40        0x4 libmc300.a(hfupdate.o)
 .bss.upgrade_start_time
                0x02017d44        0x4 libmc300.a(hfupdate.o)
 .bss.upgrade_config_file
                0x02017d48        0x4 libmc300.a(hfupdate.o)
 .bss.g_cur_httpclient_conn
                0x02017d4c        0x4 libmc300.a(httpclient.o)
                0x02017d4c                g_cur_httpclient_conn
 .bss.wait_timeout.9148
                0x02017d50        0x4 libmc300.a(httpclient.o)
 *fill*         0x02017d54        0x4 
 .bss.wait_timer.9147
                0x02017d58       0x18 libmc300.a(httpclient.o)
 .bss.u8ScanApCnt
                0x02017d70        0x1 libmc300.a(hfsmtlk.o)
 .bss.chnl_prio.10097
                0x02017d71       0x11 libmc300.a(hfsmtlk.o)
 .bss.pre_channel.10096
                0x02017d82        0x1 libmc300.a(hfsmtlk.o)
 *fill*         0x02017d83        0x1 
 .bss.loopcnt.10101
                0x02017d84        0x4 libmc300.a(hfsmtlk.o)
 .bss.smtlk_flags.10098
                0x02017d88        0x4 libmc300.a(hfsmtlk.o)
 .bss.g_uinfo_separators_size
                0x02017d8c        0x1 libmc300.a(hfsmtlk.o)
 .bss.channel.10095
                0x02017d8d        0x1 libmc300.a(hfsmtlk.o)
 *fill*         0x02017d8e        0x2 
 .bss.ledon.10100
                0x02017d90        0x4 libmc300.a(hfsmtlk.o)
 .bss.smtlk_recv_callback
                0x02017d94        0x4 libmc300.a(hfsmtlk.o)
 .bss.p_item.10102
                0x02017d98        0x4 libmc300.a(hfsmtlk.o)
 .bss.pScanApList
                0x02017d9c        0x4 libmc300.a(hfsmtlk.o)
 .bss.g_smtlk_pkt_fifo
                0x02017da0        0x4 libmc300.a(hfsmtlk.o)
 .bss.send_times.10099
                0x02017da4        0x4 libmc300.a(hfsmtlk.o)
 .bss.g_smartlink_flags
                0x02017da8        0x4 libmc300.a(hfsmtlk.o)
 .bss.g_smartlink_config
                0x02017dac        0x4 libmc300.a(hfsmtlk.o)
                0x02017dac                g_smartlink_config
 .bss.scan_channelNo
                0x02017db0        0x1 libmc300.a(hfsmtlk.o)
                0x02017db0                scan_channelNo
 *fill*         0x02017db1        0x1 
 .bss.g_smtlk_pkts_wp
                0x02017db2        0x2 libmc300.a(hfsmtlk.o)
 .bss.fixed_tmp.10094
                0x02017db4        0x1 libmc300.a(hfsmtlk.o)
 *fill*         0x02017db5        0x3 
 .bss.smtlk_timer.10103
                0x02017db8       0x18 libmc300.a(hfsmtlk.o)
 .bss.smtlk_passLock
                0x02017dd0        0x1 libmc300.a(hfsmtlk.o)
                0x02017dd0                smtlk_passLock
 *fill*         0x02017dd1        0x7 
 .bss.smtlk_timer.10070
                0x02017dd8       0x18 libmc300.a(hfsmtlk.o)
 .bss.g_uinfo_separators
                0x02017df0        0x4 libmc300.a(hfsmtlk.o)
 .bss.g_smtlk_wait
                0x02017df4        0x2 libmc300.a(hfsmtlk.o)
 .bss.ip.10106  0x02017df6        0x4 libmc300.a(hfsmtlk.o)
 *fill*         0x02017dfa        0x2 
 .bss.i.10093   0x02017dfc        0x4 libmc300.a(hfsmtlk.o)
 .bss.g_smtlk_pkts_rp
                0x02017e00        0x2 libmc300.a(hfsmtlk.o)
 *fill*         0x02017e02        0x2 
 .bss.first_smtlk_ok_time
                0x02017e04        0x4 libmc300.a(smartlinkV3.o)
 .bss.g_smartlinkv3_config
                0x02017e08        0x4 libmc300.a(smartlinkV3.o)
                0x02017e08                g_smartlinkv3_config
 .bss.first_smtlk_ok_psw
                0x02017e0c       0x41 libmc300.a(smartlinkV3.o)
 *fill*         0x02017e4d        0x1 
 .bss.smartlinkv7_frame_received
                0x02017e4e        0x2 libmc300.a(smartlinkV7.o)
 .bss.smartlinkv7_base_len_ap
                0x02017e50        0x2 libmc300.a(smartlinkV7.o)
 .bss.smartlinkv7_base_ap
                0x02017e52        0x6 libmc300.a(smartlinkV7.o)
 .bss.smartlinkv7_adjust_ap_base
                0x02017e58        0x1 libmc300.a(smartlinkV7.o)
 *fill*         0x02017e59        0x1 
 .bss.smartlinkv7_base_len
                0x02017e5a        0x2 libmc300.a(smartlinkV7.o)
 .bss.smartlinkv7_start_time
                0x02017e5c        0x4 libmc300.a(smartlinkV7.o)
 .bss.v7_data   0x02017e60        0x4 libmc300.a(smartlinkV7.o)
 .bss.v7_data_state
                0x02017e64        0x4 libmc300.a(smartlinkV7.o)
 .bss.airlink_device_type
                0x02017e68        0x4 libmc300.a(airkissv2.o)
 *fill*         0x02017e6c        0x4 
 .bss.airlink_timer.8555
                0x02017e70       0x18 libmc300.a(airkissv2.o)
 .bss.airlink_key
                0x02017e88        0x4 libmc300.a(airkissv2.o)
 .bss.airlink_device_id
                0x02017e8c        0x4 libmc300.a(airkissv2.o)
 .bss.assis_time_count
                0x02017e90        0x4 libmc300.a(assis_thread.o)
 .bss.assis_ping_flag
                0x02017e94        0x1 libmc300.a(assis_thread.o)
                0x02017e94                assis_ping_flag
 .bss.assis_read
                0x02017e95        0x1 libmc300.a(assis_thread.o)
 .bss.assis_working
                0x02017e96        0x1 libmc300.a(assis_thread.o)
                0x02017e96                assis_working
 .bss.assis_get_cmd
                0x02017e97        0x1 libmc300.a(assis_thread.o)
 .bss.assis_port
                0x02017e98        0x2 libmc300.a(assis_thread.o)
                0x02017e98                assis_port
 .bss.assis_pcb_ok
                0x02017e9a        0x1 libmc300.a(assis_thread.o)
                0x02017e9a                assis_pcb_ok
 *fill*         0x02017e9b        0x1 
 .bss.assis_thread_socket
                0x02017e9c       0x18 libmc300.a(assis_thread.o)
 .bss.g_soft_timer_list
                0x02017eb4       0xa0 libmc300.a(hftimer.o)
 *fill*         0x02017f54        0x4 
 .bss.check_timer.8386
                0x02017f58       0x18 libmc300.a(hftimer.o)
 .bss.fota_sw_file_length
                0x02017f70        0x4 libmc300.a(at_fota.o)
 .bss.fota_run  0x02017f74        0x4 libmc300.a(at_fota.o)
 .bss.ssid_hide.10378
                0x02017f78        0x4 libmc300.a(mc300_main.o)
 .bss.do_sleep_index.10399
                0x02017f7c        0x4 libmc300.a(mc300_main.o)
 .bss.sta_connect_times.10376
                0x02017f80        0x4 libmc300.a(mc300_main.o)
 .bss.g_wifi_sleep
                0x02017f84        0x4 libmc300.a(mc300_main.o)
                0x02017f84                g_wifi_sleep
 .bss.pre_mac_rx_cnt.10333
                0x02017f88        0x4 libmc300.a(mc300_main.o)
 *fill*         0x02017f8c        0x4 
 .bss.sleep_timer.10372
                0x02017f90       0x18 libmc300.a(mc300_main.o)
 .bss.pre_wifi_connect.10334
                0x02017fa8        0x1 libmc300.a(mc300_main.o)
 *fill*         0x02017fa9        0x3 
 .bss.g_wait_sta_connect
                0x02017fac        0x4 libmc300.a(mc300_main.o)
 .bss.g_cur_wmode
                0x02017fb0        0x1 libmc300.a(mc300_main.o)
                0x02017fb0                g_cur_wmode
 *fill*         0x02017fb1        0x7 
 .bss.check_timer.10336
                0x02017fb8       0x18 libmc300.a(mc300_main.o)
 .bss.sniffer_recv_callback
                0x02017fd0        0x4 libmc300.a(hfsniffer.o)
 *fill*         0x02017fd4        0x4 
 .bss.wait_timer.9208
                0x02017fd8       0x18 libmc300.a(socket_b.o)
 .bss.periodic_timer.9246
                0x02017ff0       0x18 libmc300.a(socket_b.o)
 .bss.sockb_start_ok
                0x02018008        0x1 libmc300.a(socket_b.o)
                0x02018008                sockb_start_ok
 *fill*         0x02018009        0x3 
 .bss.timeto.9209
                0x0201800c        0x4 libmc300.a(socket_b.o)
 .bss.timeto.9186
                0x02018010        0x4 libmc300.a(socket_a.o)
 .bss.socketa_appstate
                0x02018014        0x4 libmc300.a(socket_a.o)
 .bss.wait_timer.9185
                0x02018018       0x18 libmc300.a(socket_a.o)
 .bss.g_socketa_state
                0x02018030        0x4 libmc300.a(socket_a.o)
                0x02018030                g_socketa_state
 .bss.timeto.9209
                0x02018034        0x4 libmc300.a(socket_a_client)
 .bss.wait_timer.9208
                0x02018038       0x18 libmc300.a(socket_a_client)
 .bss.periodic_timer.9254
                0x02018050       0x18 libmc300.a(socket_a_client)
 .bss.socketa_client_appstate
                0x02018068        0x4 libmc300.a(socket_a_client)
 .bss.buffer_out_dynamic
                0x0201806c        0x4 libmc300.a(atcmd.o)
 .bss.buffer_in_dynamic
                0x02018070        0x4 libmc300.a(atcmd.o)
 .bss.bShowUdp  0x02018074        0x4 libmc300.a(atcmd.o)
                0x02018074                bShowUdp
 .bss.testcnt   0x02018078        0x4 libmc300.a(atcmd.o)
                0x02018078                testcnt
 .bss.successcnt
                0x0201807c        0x4 libmc300.a(atcmd.o)
                0x0201807c                successcnt
 .bss.packetcnt
                0x02018080        0x4 libmc300.a(atcmd.o)
                0x02018080                packetcnt
 .bss.gInitSendRequest
                0x02018084        0x4 libmc300.a(dhcpc.o)
 .bss.dhcptrycnt.8805
                0x02018088        0x1 libmc300.a(dhcpc.o)
 *fill*         0x02018089        0x3 
 .bss.request_fail.8808
                0x0201808c        0x4 libmc300.a(dhcpc.o)
 .bss.s         0x02018090       0x48 libmc300.a(dhcpc.o)
 .bss.xid       0x020180d8        0x4 libmc300.a(dhcpc.o)
 .bss.bcast_addr
                0x020180dc        0x4 libmc300.a(dhcps.o)
 .bss.lease.8134
                0x020180e0        0x4 libmc300.a(dhcps.o)
 .bss.any_addr  0x020180e4        0x4 libmc300.a(dhcps.o)
 .bss.config    0x020180e8        0x4 libmc300.a(dhcps.o)
 .bss.send_conn.8133
                0x020180ec        0x4 libmc300.a(dhcps.o)
 .bss.conn.8132
                0x020180f0        0x4 libmc300.a(dhcps.o)
 .bss.resolv_conn
                0x020180f4        0x4 libmc300.a(resolv.o)
 .bss.nanswers.5969
                0x020180f8        0x1 libmc300.a(resolv.o)
 .bss.debug_name.5980
                0x020180f9       0x28 libmc300.a(resolv.o)
 .bss.seqno     0x02018121        0x1 libmc300.a(resolv.o)
 *fill*         0x02018122        0x6 
 .bss.retry     0x02018128       0x18 libmc300.a(resolv.o)
 .bss.nquestions.5968
                0x02018140        0x1 libmc300.a(resolv.o)
 .bss.i.5997    0x02018141        0x1 libmc300.a(resolv.o)
 *fill*         0x02018142        0x2 
 .bss.names     0x02018144      0x440 libmc300.a(resolv.o)
 .bss.aligned.5979
                0x02018584        0xe libmc300.a(resolv.o)
 .bss.lseq.5998
                0x02018592        0x1 libmc300.a(resolv.o)
 .bss.lseqi.5999
                0x02018593        0x1 libmc300.a(resolv.o)
 .bss.i.6009    0x02018594        0x1 libmc300.a(resolv.o)
 .bss.i.5970    0x02018595        0x1 libmc300.a(resolv.o)
 .bss.started   0x02018596        0x1 libmc300.a(simple-udp.o)
 .bss.databuffer
                0x02018597      0x5ea libmc300.a(simple-udp.o)
 *fill*         0x02018b81        0x3 
 .bss.msg.5375  0x02018b84        0x8 libmc300.a(socket_driver.o)
 .bss.currconn.5363
                0x02018b8c        0x4 libmc300.a(socket_driver.o)
 .bss.currconn.5374
                0x02018b90        0x4 libmc300.a(socket_driver.o)
 .bss.recvoffset
                0x02018b94        0x2 libmc300.a(socket_driver.o)
                0x02018b94                recvoffset
 *fill*         0x02018b96        0x2 
 .bss.msg.5301  0x02018b98        0x8 libmc300.a(socket_driver.o)
 .bss.i.8016    0x02018ba0        0x1 libmc300.a(tcpip.o)
 .bss.enable_change_time
                0x02018ba1        0x1 libmc300.a(tcpip.o)
 .bss.i.8024    0x02018ba2        0x1 libmc300.a(tcpip.o)
 *fill*         0x02018ba3        0x5 
 .bss.arptimer.7983
                0x02018ba8       0x18 libmc300.a(tcpip.o)
 .bss.s         0x02018bc0       0x7c libmc300.a(tcpip.o)
 .bss.i.8102    0x02018c3c        0x1 libmc300.a(tcpip.o)
 .bss.i.8114    0x02018c3d        0x1 libmc300.a(tcpip.o)
 *fill*         0x02018c3e        0x2 
 .bss.periodic  0x02018c40       0x18 libmc300.a(tcpip.o)
 .bss.i.8066    0x02018c58        0x1 libmc300.a(tcpip.o)
 *fill*         0x02018c59        0x3 
 .bss.outputfunc
                0x02018c5c        0x4 libmc300.a(tcpip.o)
 .bss.i.8007    0x02018c60        0x1 libmc300.a(tcpip.o)
 *fill*         0x02018c61        0x1 
 .bss.change_time
                0x02018c62        0x2 libmc300.a(tcpip.o)
 .bss.starFlag  0x02018c64        0x1 libmc300.a(uip.o)
 *fill*         0x02018c65        0x1 
 .bss.ipid      0x02018c66        0x2 libmc300.a(uip.o)
 .bss.iss       0x02018c68        0x4 libmc300.a(uip.o)
 .bss.uip_lladdr
                0x02018c6c        0x6 libmc300.a(uip.o)
                0x02018c6c                uip_lladdr
 .bss.tmp16     0x02018c72        0x2 libmc300.a(uip.o)
 .bss.lastport  0x02018c74        0x2 libmc300.a(uip.o)
 .bss.c         0x02018c76        0x1 libmc300.a(uip.o)
 .bss.opt       0x02018c77        0x1 libmc300.a(uip.o)
 .bss.tmpage    0x02018c78        0x1 libmc300.a(uip_arp.o)
 *fill*         0x02018c79        0x7 
 .bss.timer.5332
                0x02018c80       0x18 libmc300.a(uip_arp.o)
 .bss.arp_table
                0x02018c98       0x60 libmc300.a(uip_arp.o)
 .bss.polltimer.5343
                0x02018cf8       0x18 libmc300.a(uip_arp.o)
 .bss.arptime   0x02018d10        0x4 libmc300.a(uip_arp.o)
 .bss.ipaddr    0x02018d14        0x4 libmc300.a(uip_arp.o)
 .bss.g_ps_enable
                0x02018d18        0x4 libmc300.a(atcmd_icomm.o)
                0x02018d18                g_ps_enable
 .bss.nPHYCheckInterval
                0x02018d1c        0x4 libmc300.a(atcmd_icomm.o)
                0x02018d1c                nPHYCheckInterval
 .bss.last_pages_are_active.4907
                0x02018d20        0x1 libmc300.a(cfs-coffee.o)
 .bss.skip_pages.4906
                0x02018d21        0x1 libmc300.a(cfs-coffee.o)
 *fill*         0x02018d22        0x2 
 .bss.protected_mem
                0x02018d24       0x94 libmc300.a(cfs-coffee.o)
 .bss.uart_bin_mode
                0x02018db8        0x4 libmc300.a(console.o)
                0x02018db8                uart_bin_mode
 *fill*         0x02018dbc        0x4 
 .bss.au8spi_data
                0x02018dc0      0x110 libmc300.a(drv_flash.o)
 .bss.u32flash_base_addr
                0x02018ed0        0x4 libmc300.a(drv_flash.o)
 *fill*         0x02018ed4        0xc 
 .bss.flash_cache_buffer
                0x02018ee0     0x1000 libmc300.a(drv_flash.o)
 .bss.au8spi_cmd
                0x02019ee0      0x110 libmc300.a(drv_flash.o)
 .bss.SerialEnable
                0x02019ff0        0x4 libmc300.a(serial_api.o)
 .bss.smart     0x02019ff4       0x54 libmc300.a(smartComm.o)
 .bss.user      0x0201a048        0xc libmc300.a(userSmart.o)
 .bss.seqno     0x0201a054        0x4 libmc300.a(ieee80211_mac.o)
 .bss.nPingCount
                0x0201a058        0x4 libmc300.a(ieee80211_mac.o)
                0x0201a058                nPingCount
 *fill*         0x0201a05c        0x4 
 .bss.timer.6382
                0x0201a060       0x18 libmc300.a(shell-ping.o)
 .bss.remoteaddr
                0x0201a078        0x4 libmc300.a(shell-ping.o)
 .bss.ping_loop_i
                0x0201a07c        0x2 libmc300.a(shell-ping.o)
 .bss.ipid.6375
                0x0201a07e        0x2 libmc300.a(shell-ping.o)
 .bss.seqno.6376
                0x0201a080        0x2 libmc300.a(shell-ping.o)
 *fill*         0x0201a082        0x2 
 .bss.ep        0x0201a084        0x4 libcjsona.a(cJSON.o)
 .bss.__malloc_current_mallinfo
                0x0201a088       0x28 /usr/bin/../lib/gcc/arm-none-eabi/4.8.4/../../../../arm-none-eabi/lib/libg_s.a(lib_a-nano-mallinfor.o)
                0x0201a088                __malloc_current_mallinfo
 .bss.__malloc_sbrk_start
                0x0201a0b0        0x4 /usr/bin/../lib/gcc/arm-none-eabi/4.8.4/../../../../arm-none-eabi/lib/libg_s.a(lib_a-nano-mallocr.o)
                0x0201a0b0                __malloc_sbrk_start
 .bss.__malloc_free_list
                0x0201a0b4        0x4 /usr/bin/../lib/gcc/arm-none-eabi/4.8.4/../../../../arm-none-eabi/lib/libg_s.a(lib_a-nano-mallocr.o)
                0x0201a0b4                __malloc_free_list
 *(EXCLUDE_FILE(libmc300.a:boot-hiflying.o) COMMON)
 COMMON         0x0201a0b8       0x54 main.o
                0x0201a0b8                arp_packet_len
                0x0201a0ba                arp_packet_buff
                0x0201a10a                process_para
 COMMON         0x0201a10c        0x0 userapps.a(hm_app_main.o)
 COMMON         0x0201a10c      0x114 userapps.a(hm_uart.o)
                0x0201a10c                uart_buffer
                0x0201a210                ghm_uart_event_msg
                0x0201a21c                uart_timer
 COMMON         0x0201a220      0x109 userapps.a(hm_uart_handle.)
                0x0201a220                hm_48_frame_inf
                0x0201a221                shm_uart_send_buffer
                0x0201a2e9                scan_ssid
 *fill*         0x0201a329        0x3 
 COMMON         0x0201a32c        0x4 userapps.a(hm_connect_clou)
                0x0201a32c                cloud_heartbeat_timer
 COMMON         0x0201a330     0x1196 libmc300.a(clock.o)
                0x0201a330                ap_list
                0x0201b4c4                CMD_NUM
                0x0201b4c5                DATA_STATUS
 *fill*         0x0201b4c6        0x2 
 COMMON         0x0201b4c8       0x80 libmc300.a(contiki-main.o)
                0x0201b4c8                i_config
 COMMON         0x0201b548       0x20 libmc300.a(hw_init.o)
                0x0201b548                tx_pktbuf
                0x0201b550                sk_pbuff
 COMMON         0x0201b568      0x324 libmc300.a(systemconf.o)
                0x0201b568                gwifistatus
                0x0201b748                gCabrioConf
                0x0201b7ea                gOldCabrioConf
 COMMON         0x0201b88c        0x8 libmc300.a(crypthw.o)
                0x0201b88c                g_soc_table
                0x0201b890                pGSRAM_KEY
 COMMON         0x0201b894       0xd0 libmc300.a(drv_phy.o)
                0x0201b894                papd_ltbl_pm
                0x0201b8fc                papd_ltbl_am
 *fill*         0x0201b964        0x4 
 COMMON         0x0201b968      0x268 libmc300.a(ieee80211_mgmt.)
                0x0201b968                rate_table
                0x0201b988                mgmtdata
                0x0201ba94                rssiLevelChangCnt
                0x0201ba95                extended_rate_table
                0x0201bab8                gwpa_ctx
 COMMON         0x0201bbd0       0x38 libmc300.a(powersave.o)
                0x0201bbd0                gNextsleeptime
                0x0201bbe0                gussleeptime
                0x0201bbe8                gNextwaketime
                0x0201bbf8                exmode
                0x0201bc00                gusbeaconinterval
 COMMON         0x0201bc08      0x1a8 libmc300.a(soft_ap.o)
                0x0201bc08                reg_ADR_TXQ4_MTX_Q_MISC_EN
                0x0201bc0c                beacon_buffer
                0x0201bc8c                reg_ADR_TXQ4_MTX_Q_BKF_CNT
                0x0201bc90                reg_ADR_TXQ4_MTX_Q_AIFSN
                0x0201bc94                reg_ADR_TXQ3_MTX_Q_AIFSN
                0x0201bc98                gwpa_ap
 COMMON         0x0201bdb0      0x188 libmc300.a(ssv6200_rx.o)
                0x0201bdb0                rx_que
 COMMON         0x0201bf38      0x42b libmc300.a(hfconfig.o)
                0x0201bf38                g_hf_boot_config
                0x0201bf4a                g_hf_config_file
 *fill*         0x0201c363        0x1 
 COMMON         0x0201c364       0x28 libmc300.a(hfnet.o)
                0x0201c364                g_hfnet_stat
 COMMON         0x0201c38c      0x404 libmc300.a(uart_thread.o)
                0x0201c38c                m2m_uart_recv
                0x0201c78c                m2m_uart_recv_num
 COMMON         0x0201c790       0x80 libmc300.a(airkissv2.o)
                0x0201c790                hfakcontex
 COMMON         0x0201c810       0xdc libmc300.a(assis_thread.o)
                0x0201c810                assis_net
                0x0201c8e8                destAddr
 COMMON         0x0201c8ec       0x18 libmc300.a(hftimer.o)
                0x0201c8ec                g_hardware_timer0
 COMMON         0x0201c904        0xc libmc300.a(mc300_main.o)
                0x0201c904                gNetStatus
 COMMON         0x0201c910       0x10 libmc300.a(socket_b.o)
                0x0201c910                g_socketb_status
 COMMON         0x0201c920        0x4 libmc300.a(atcmd.o)
                0x0201c920                gSocketNetStatus
 COMMON         0x0201c924      0x10c libmc300.a(dhcpc.o)
                0x0201c924                eventdata
 COMMON         0x0201ca30        0x1 libmc300.a(resolv.o)
                0x0201ca30                resolv_event_found
 *fill*         0x0201ca31        0x3 
 COMMON         0x0201ca34       0x68 libmc300.a(soft_ap_init.o)
                0x0201ca34                g_softap_lease
                0x0201ca84                g_softap_config
 COMMON         0x0201ca9c        0x1 libmc300.a(tcpip.o)
                0x0201ca9c                tcpip_event
 *fill*         0x0201ca9d        0x3 
 COMMON         0x0201caa0      0xecc libmc300.a(uip.o)
                0x0201caa0                uip_len
                0x0201caa4                uip_sappdata
                0x0201caa8                uip_acc32
                0x0201caac                uip_aligned_buf
                0x0201d098                uip_flags
                0x0201d09c                uip_udp_conn
                0x0201d0a0                uip_appdata
                0x0201d0a4                uip_conn
                0x0201d0a8                uip_conns
                0x0201d558                uip_listenports
                0x0201d56c                uip_draddr
                0x0201d570                uip_surglen
                0x0201d574                uip_urgdata
                0x0201d578                uip_netmask
                0x0201d57c                uip_hostaddr
                0x0201d580                uip_urglen
                0x0201d582                uip_slen
                0x0201d584                uip_udp_conns
 COMMON         0x0201d96c      0xcfa libmc300.a(wep.o)
                0x0201d96c                wep_rc4
                0x0201da74                wep
 *fill*         0x0201e666        0x2 
 COMMON         0x0201e668      0x118 libmc300.a(console.o)
                0x0201e668                flash_write_ptr
                0x0201e66c                flash_address
                0x0201e670                specialchar
                0x0201e674                msgdata
 COMMON         0x0201e780       0x24 libmc300.a(drv_flash.o)
                0x0201e780                u32cmd_lenx
                0x0201e784                i_cabrio_flash_cmd
                0x0201e79c                u32spi_addr
                0x0201e7a0                u32cmd_len
 COMMON         0x0201e7a4        0x4 libmc300.a(fence.o)
                0x0201e7a4                addr_stack_fence_local
 COMMON         0x0201e7a8       0x20 libmc300.a(ieee80211_mac.o)
                0x0201e7a8                rx_skb
                0x0201e7c0                eapoltxcnt
                0x0201e7c4                eapoladdr
 COMMON         0x0201e7c8        0x4 libmc300.a(ieee80211_net.o)
                0x0201e7c8                nPingEcho
 COMMON         0x0201e7cc        0x4 /usr/bin/../lib/gcc/arm-none-eabi/4.8.4/../../../../arm-none-eabi/lib/libg_s.a(lib_a-reent.o)
                0x0201e7cc                errno
                0x0201e7d0                __bss_end__ = .
                0x0201e7d0                . = ALIGN (0x10)
                0x03000190                _btext_beg_src = LOADADDR (boot_in_sram)
                0x02029000                _btext_beg_dst = _vma_boot_text_beg
                0x0202a820                _btext_end_dst = (_btext_beg_dst + SIZEOF (boot_in_sram))

boot_in_sram    0x02029000     0x1820 load address 0x03000190
                0x02029000                . = ALIGN (0x4)
 libmc300.a:boot-hiflying.o(.text)
 .text          0x02029000        0x0 libmc300.a(boot-hiflying.o)
 libmc300.a:boot-hiflying.o(.text.*)
 .text.boot_memcpy
                0x02029000       0x1c libmc300.a(boot-hiflying.o)
                0x02029000                boot_memcpy
 .text.boot_memcmp
                0x0202901c       0x38 libmc300.a(boot-hiflying.o)
                0x0202901c                boot_memcmp
 .text.drv_boot_uart_rx
                0x02029054       0x20 libmc300.a(boot-hiflying.o)
                0x02029054                drv_boot_uart_rx
 .text.uart_recv.constprop.3
                0x02029074       0x50 libmc300.a(boot-hiflying.o)
 .text.drv_boot_uart_tx
                0x020290c4       0x40 libmc300.a(boot-hiflying.o)
                0x020290c4                drv_boot_uart_tx
 .text.uart_send
                0x02029104       0x38 libmc300.a(boot-hiflying.o)
 .text.boot_put_hex
                0x0202913c       0x28 libmc300.a(boot-hiflying.o)
                0x0202913c                boot_put_hex
 .text.boot_print
                0x02029164       0x64 libmc300.a(boot-hiflying.o)
                0x02029164                boot_print
 .text.boot_get_args
                0x020291c8      0x178 libmc300.a(boot-hiflying.o)
                0x020291c8                boot_get_args
 .text.boot_uart_chk_sum
                0x02029340       0x30 libmc300.a(boot-hiflying.o)
                0x02029340                boot_uart_chk_sum
 .text.boot_fw_upgrade_response0
                0x02029370       0x28 libmc300.a(boot-hiflying.o)
                0x02029370                boot_fw_upgrade_response0
 .text.boot_fw_upgrade_response1
                0x02029398       0x10 libmc300.a(boot-hiflying.o)
                0x02029398                boot_fw_upgrade_response1
 .text.boot_flash_get_cache_buffer_address
                0x020293a8        0xc libmc300.a(boot-hiflying.o)
                0x020293a8                boot_flash_get_cache_buffer_address
 .text.drv_boot_flash_command_init
                0x020293b4       0x7c libmc300.a(boot-hiflying.o)
                0x020293b4                drv_boot_flash_command_init
 .text.drv_boot_flash_wait_spi_busy
                0x02029430       0x34 libmc300.a(boot-hiflying.o)
                0x02029430                drv_boot_flash_wait_spi_busy
 .text.drv_boot_flash_write_cmd
                0x02029464       0x14 libmc300.a(boot-hiflying.o)
                0x02029464                drv_boot_flash_write_cmd
 .text.drv_boot_flash_read_spi_status_regsiter
                0x02029478       0x64 libmc300.a(boot-hiflying.o)
                0x02029478                drv_boot_flash_read_spi_status_regsiter
 .text.drv_boot_flash_wait_spi_status_regsiter
                0x020294dc       0x3c libmc300.a(boot-hiflying.o)
                0x020294dc                drv_boot_flash_wait_spi_status_regsiter
 .text.drv_boot_flash_write_enable
                0x02029518       0x48 libmc300.a(boot-hiflying.o)
                0x02029518                drv_boot_flash_write_enable
 .text.drv_boot_flash_sector_erase
                0x02029560       0x54 libmc300.a(boot-hiflying.o)
                0x02029560                drv_boot_flash_sector_erase
 .text.drv_boot_flash_page_program
                0x020295b4       0x5c libmc300.a(boot-hiflying.o)
                0x020295b4                drv_boot_flash_page_program
 .text.boot_flash_flush_cache_buffer
                0x02029610       0x7c libmc300.a(boot-hiflying.o)
                0x02029610                boot_flash_flush_cache_buffer
 .text.boot_fw_upgrade_busy_polling
                0x0202968c      0x214 libmc300.a(boot-hiflying.o)
                0x0202968c                boot_fw_upgrade_busy_polling
 .text.boot_strcmp
                0x020298a0       0x30 libmc300.a(boot-hiflying.o)
                0x020298a0                boot_strcmp
 .text.boot_strlen
                0x020298d0       0x20 libmc300.a(boot-hiflying.o)
                0x020298d0                boot_strlen
 .text.commandlineLoop
                0x020298f0      0x4c8 libmc300.a(boot-hiflying.o)
 .text.boot_start_fw_upgrade
                0x02029db8       0xf4 libmc300.a(boot-hiflying.o)
                0x02029db8                boot_start_fw_upgrade
 .text.boot_copy_nor_to_sram
                0x02029eac       0x20 libmc300.a(boot-hiflying.o)
                0x02029eac                boot_copy_nor_to_sram
 .text.boot_clear_bss
                0x02029ecc       0x18 libmc300.a(boot-hiflying.o)
                0x02029ecc                boot_clear_bss
 .text.boot_check_sum32
                0x02029ee4       0x24 libmc300.a(boot-hiflying.o)
                0x02029ee4                boot_check_sum32
 .text.boot_check_upgrade_image_ok
                0x02029f08       0xa4 libmc300.a(boot-hiflying.o)
                0x02029f08                boot_check_upgrade_image_ok
 .text.boot_serial_config
                0x02029fac       0x7c libmc300.a(boot-hiflying.o)
                0x02029fac                boot_serial_config
 .text.boot_delay
                0x0202a028       0x18 libmc300.a(boot-hiflying.o)
                0x0202a028                boot_delay
 .text.boot_data_uart_Init
                0x0202a040       0xe8 libmc300.a(boot-hiflying.o)
                0x0202a040                boot_data_uart_Init
 .text.boot_main
                0x0202a128      0x438 libmc300.a(boot-hiflying.o)
                0x0202a128                boot_main
 libmc300.a:boot-hiflying.o(.rodata)
 .rodata        0x0202a560       0x20 libmc300.a(boot-hiflying.o)
 libmc300.a:boot-hiflying.o(.rodata*)
 .rodata.boot_uarts
                0x0202a580        0x8 libmc300.a(boot-hiflying.o)
 .rodata.declare_7
                0x0202a588       0x1d libmc300.a(boot-hiflying.o)
                0x0202a588                declare_7
 .rodata.declare_8
                0x0202a5a5       0x1a libmc300.a(boot-hiflying.o)
                0x0202a5a5                declare_8
 .rodata.declare_12
                0x0202a5bf       0x1d libmc300.a(boot-hiflying.o)
                0x0202a5bf                declare_12
 .rodata.declare_11
                0x0202a5dc        0xf libmc300.a(boot-hiflying.o)
                0x0202a5dc                declare_11
 .rodata.str1.1
                0x0202a5eb      0x1b6 libmc300.a(boot-hiflying.o)
 .rodata.declare_13
                0x0202a7a1       0x25 libmc300.a(boot-hiflying.o)
                0x0202a7a1                declare_13
 .rodata.declare_4
                0x0202a7c6       0x1a libmc300.a(boot-hiflying.o)
                0x0202a7c6                declare_4
 .rodata.declare_1
                0x0202a7e0       0x3f libmc300.a(boot-hiflying.o)
                0x0202a7e0                declare_1
                0x0202a820                . = ALIGN (0x4)
 *fill*         0x0202a81f        0x1 
                0x030019b0                _sitxt1 = (_sitxt0a + SIZEOF (boot_in_sram))
                0x0202c000                _vma_boot_data_beg = ((ORIGIN (ram) + 0x30000) - 0x4000)

.boot_data      0x0202c000       0x10 load address 0x030019b0
                0x0202c000                _boot_dbeg_dst = .
 libmc300.a:boot-hiflying.o(.data .data*)
 .data          0x0202c000        0x0 libmc300.a(boot-hiflying.o)
 .data.os_dummy
                0x0202c000        0x4 libmc300.a(boot-hiflying.o)
                0x0202c000                os_dummy
                0x0202c010                . = ALIGN (0x10)
 *fill*         0x0202c004        0xc 
                0x0202c010                _boot_dend_dst = .
                0x030019b0                _boot_dbeg_src = LOADADDR (.boot_data)
                0x02028000                _vma_boot_bss_beg = (_vma_boot_data_beg - 0x4000)

.boot_bss       0x0202c010     0x1540 load address 0x030019c0
                0x0202c010                __boot_bss_beg__ = .
 libmc300.a:boot-hiflying.o(.bss .bss* COMMON)
 .bss           0x0202c010        0x0 libmc300.a(boot-hiflying.o)
 .bss.size_firmware
                0x0202c010        0x4 libmc300.a(boot-hiflying.o)
                0x0202c010                size_firmware
 .bss.g_boot_config
                0x0202c014       0x32 libmc300.a(boot-hiflying.o)
 *fill*         0x0202c046        0x2 
 .bss.g_enable_uart_upfw
                0x0202c048        0x4 libmc300.a(boot-hiflying.o)
 .bss.rawPacket
                0x0202c04c      0x110 libmc300.a(boot-hiflying.o)
 COMMON         0x0202c15c     0x13f4 libmc300.a(boot-hiflying.o)
                0x0202c15c                os_tbeg_dst
                0x0202c160                msg_fw_up_end
                0x0202c180                os_bss_end
                0x0202c184                os_bss_beg
                0x0202c188                os_tend_dst
                0x0202c18c                msg_fw_up_start
                0x0202c1cc                boot_au32spi_data
                0x0202c2d0                os_dbeg_dst
                0x0202c2d4                boot_au32spi_cmd
                0x0202c3d8                os_dbeg_src
                0x0202c3dc                msg_restart
                0x0202c3fc                msg_fw_upgrade
                0x0202c41c                os_tbeg_src
                0x0202c420                msg_main
                0x0202c440                amsg
                0x0202c540                boot_flash_cache_buffer
                0x0202d540                i_boot_cabrio_flash_cmd
                0x0202d54c                os_dend_dst
                0x0202d550                __boot_bss_end__ = .
                0x0202d550                . = ALIGN (0x4)

.eh_frame
 *(.eh_frame)
                0x0202d550                . = ALIGN (0x4)
                0x0202d550                . = ALIGN (0x4)
                0x0202d550                _end = .
                0x0202d550                __end__ = .
                0x0201e7d0                __heap_start__ = __bss_end__
                0x0202e180                __heap_end__ = (((ORIGIN (ram) + 0x30000) - TOTAL_STACK_SIZE) - 0x200)
                0x0202e180                __nvram_start__ = __heap_end__

.ARM.attributes
                0x00000000       0x2c
 *(.ARM.attributes)
 .ARM.attributes
                0x00000000       0x18 /tmp/ccsDtpxU.o
 .ARM.attributes
                0x00000018       0x18 /tmp/ccrvIGXc.o
 .ARM.attributes
                0x00000030       0x28 main.o
 .ARM.attributes
                0x00000058       0x28 userapps.a(app_main.o)
 .ARM.attributes
                0x00000080       0x28 userapps.a(hm_system.o)
 .ARM.attributes
                0x000000a8       0x28 userapps.a(RCLutils.o)
 .ARM.attributes
                0x000000d0       0x28 userapps.a(hm_app_main.o)
 .ARM.attributes
                0x000000f8       0x28 userapps.a(hm_uart.o)
 .ARM.attributes
                0x00000120       0x28 userapps.a(hm_uart_handle.)
 .ARM.attributes
                0x00000148       0x28 userapps.a(hm_connect_clou)
 .ARM.attributes
                0x00000170       0x28 userapps.a(hm_sub_devsend_)
 .ARM.attributes
                0x00000198       0x28 userapps.a(hm_bind_json_pr)
 .ARM.attributes
                0x000001c0       0x28 userapps.a(hm_dev_model.o)
 .ARM.attributes
                0x000001e8       0x28 userapps.a(hm_parameter.o)
 .ARM.attributes
                0x00000210       0x28 userapps.a(hm_link.o)
 .ARM.attributes
                0x00000238       0x28 userapps.a(hm_wifi_frame.o)
 .ARM.attributes
                0x00000260       0x28 userapps.a(hm_MD5_sum.o)
 .ARM.attributes
                0x00000288       0x28 userapps.a(md5sum.o)
 .ARM.attributes
                0x000002b0       0x28 libmc300.a(etimer.o)
 .ARM.attributes
                0x000002d8       0x28 libmc300.a(printf.o)
 .ARM.attributes
                0x00000300       0x28 libmc300.a(process.o)
 .ARM.attributes
                0x00000328       0x28 libmc300.a(strformat.o)
 .ARM.attributes
                0x00000350       0x28 libmc300.a(timer.o)
 .ARM.attributes
                0x00000378       0x28 libmc300.a(boot-hiflying.o)
 .ARM.attributes
                0x000003a0       0x28 libmc300.a(clock.o)
 .ARM.attributes
                0x000003c8       0x28 libmc300.a(contiki-main.o)
 .ARM.attributes
                0x000003f0       0x28 libmc300.a(debug-uart.o)
 .ARM.attributes
                0x00000418       0x28 libmc300.a(drv_timer.o)
 .ARM.attributes
                0x00000440       0x28 libmc300.a(drv_uart.o)
 .ARM.attributes
                0x00000468       0x28 libmc300.a(hw_init.o)
 .ARM.attributes
                0x00000490       0x28 libmc300.a(hw_regs_api.o)
 .ARM.attributes
                0x000004b8       0x28 libmc300.a(ssv_lib.o)
 .ARM.attributes
                0x000004e0       0x28 libmc300.a(swpwm.o)
 .ARM.attributes
                0x00000508       0x28 libmc300.a(systemconf.o)
 .ARM.attributes
                0x00000530       0x28 libmc300.a(wdog_api.o)
 .ARM.attributes
                0x00000558       0x28 libmc300.a(xmem.o)
 .ARM.attributes
                0x00000580       0x28 libmc300.a(bsp.o)
 .ARM.attributes
                0x000005a8       0x28 libmc300.a(crypthw.o)
 .ARM.attributes
                0x000005d0       0x28 libmc300.a(dbg-atcmd-api.o)
 .ARM.attributes
                0x000005f8       0x28 libmc300.a(drv_mac.o)
 .ARM.attributes
                0x00000620       0x28 libmc300.a(drv_phy.o)
 .ARM.attributes
                0x00000648       0x28 libmc300.a(drv_pktbuf.o)
 .ARM.attributes
                0x00000670       0x28 libmc300.a(drv_pktbuf_slow)
 .ARM.attributes
                0x00000698       0x28 libmc300.a(ieee80211_mgmt.)
 .ARM.attributes
                0x000006c0       0x28 libmc300.a(ieee80211_rdc.o)
 .ARM.attributes
                0x000006e8       0x28 libmc300.a(irq.o)
 .ARM.attributes
                0x00000710       0x28 libmc300.a(netstack.o)
 .ARM.attributes
                0x00000738       0x28 libmc300.a(powersave.o)
 .ARM.attributes
                0x00000760       0x28 libmc300.a(rate_control.o)
 .ARM.attributes
                0x00000788       0x28 libmc300.a(soft_ap.o)
 .ARM.attributes
                0x000007b0       0x28 libmc300.a(ssv6200_rx.o)
 .ARM.attributes
                0x000007d8       0x28 libmc300.a(ssvradio.o)
 .ARM.attributes
                0x00000800       0x28 libmc300.a(wpa.o)
 .ARM.attributes
                0x00000828       0x28 libmc300.a(aes.o)
 .ARM.attributes
                0x00000850       0x28 libmc300.a(hfat.o)
 .ARM.attributes
                0x00000878       0x28 libmc300.a(at_wifi_cmd.o)
 .ARM.attributes
                0x000008a0       0x28 libmc300.a(at_network_cmd.)
 .ARM.attributes
                0x000008c8       0x28 libmc300.a(hfgpio.o)
 .ARM.attributes
                0x000008f0       0x28 libmc300.a(hfdebug.o)
 .ARM.attributes
                0x00000918       0x28 libmc300.a(hfuart.o)
 .ARM.attributes
                0x00000940       0x28 libmc300.a(hfsys.o)
 .ARM.attributes
                0x00000968       0x28 libmc300.a(hfconfig.o)
 .ARM.attributes
                0x00000990       0x28 libmc300.a(hfflash.o)
 .ARM.attributes
                0x000009b8       0x28 libmc300.a(hfnet.o)
 .ARM.attributes
                0x000009e0       0x28 libmc300.a(uart_thread.o)
 .ARM.attributes
                0x00000a08       0x28 libmc300.a(hfwifi.o)
 .ARM.attributes
                0x00000a30       0x28 libmc300.a(hfupdate.o)
 .ARM.attributes
                0x00000a58       0x28 libmc300.a(httpclient.o)
 .ARM.attributes
                0x00000a80       0x28 libmc300.a(hfsmtlk.o)
 .ARM.attributes
                0x00000aa8       0x28 libmc300.a(smartlinkV3.o)
 .ARM.attributes
                0x00000ad0       0x28 libmc300.a(smartlinkV7.o)
 .ARM.attributes
                0x00000af8       0x28 libmc300.a(airkissv2.o)
 .ARM.attributes
                0x00000b20       0x28 libmc300.a(assis_thread.o)
 .ARM.attributes
                0x00000b48       0x28 libmc300.a(hftimer.o)
 .ARM.attributes
                0x00000b70       0x28 libmc300.a(at_fota.o)
 .ARM.attributes
                0x00000b98       0x28 libmc300.a(mc300_main.o)
 .ARM.attributes
                0x00000bc0       0x28 libmc300.a(hfsniffer.o)
 .ARM.attributes
                0x00000be8       0x28 libmc300.a(socket_b.o)
 .ARM.attributes
                0x00000c10       0x28 libmc300.a(socket_a.o)
 .ARM.attributes
                0x00000c38       0x28 libmc300.a(at_socket_cmd.o)
 .ARM.attributes
                0x00000c60       0x28 libmc300.a(socket_a_client)
 .ARM.attributes
                0x00000c88       0x28 libmc300.a(atcmd.o)
 .ARM.attributes
                0x00000cb0       0x28 libmc300.a(dhcp_process.o)
 .ARM.attributes
                0x00000cd8       0x28 libmc300.a(dhcpc.o)
 .ARM.attributes
                0x00000d00       0x28 libmc300.a(dhcps.o)
 .ARM.attributes
                0x00000d28       0x28 libmc300.a(resolv.o)
 .ARM.attributes
                0x00000d50       0x28 libmc300.a(ringbuf.o)
 .ARM.attributes
                0x00000d78       0x28 libmc300.a(simple-udp.o)
 .ARM.attributes
                0x00000da0       0x28 libmc300.a(socket_driver.o)
 .ARM.attributes
                0x00000dc8       0x28 libmc300.a(soft_ap_init.o)
 .ARM.attributes
                0x00000df0       0x28 libmc300.a(tcpip.o)
 .ARM.attributes
                0x00000e18       0x28 libmc300.a(uip-split.o)
 .ARM.attributes
                0x00000e40       0x28 libmc300.a(uip-udp-packet.)
 .ARM.attributes
                0x00000e68       0x28 libmc300.a(uip.o)
 .ARM.attributes
                0x00000e90       0x28 libmc300.a(uip_arp.o)
 .ARM.attributes
                0x00000eb8       0x28 libmc300.a(uip_igmp.o)
 .ARM.attributes
                0x00000ee0       0x28 libmc300.a(uiplib.o)
 .ARM.attributes
                0x00000f08       0x28 libmc300.a(arc4.o)
 .ARM.attributes
                0x00000f30       0x28 libmc300.a(wep.o)
 .ARM.attributes
                0x00000f58       0x28 libmc300.a(autostart.o)
 .ARM.attributes
                0x00000f80       0x28 libmc300.a(random.o)
 .ARM.attributes
                0x00000fa8       0x28 libmc300.a(airkiss.o)
 .ARM.attributes
                0x00000fd0       0x28 libmc300.a(atcmd_icomm.o)
 .ARM.attributes
                0x00000ff8       0x28 libmc300.a(bsp_info.o)
 .ARM.attributes
                0x00001020       0x28 libmc300.a(cfs-coffee.o)
 .ARM.attributes
                0x00001048       0x28 libmc300.a(console.o)
 .ARM.attributes
                0x00001070       0x28 libmc300.a(drv_flash.o)
 .ARM.attributes
                0x00001098       0x28 libmc300.a(drv_gpio.o)
 .ARM.attributes
                0x000010c0       0x28 libmc300.a(gpio_api.o)
 .ARM.attributes
                0x000010e8       0x28 libmc300.a(drv_pmu.o)
 .ARM.attributes
                0x00001110       0x28 libmc300.a(pwm_api.o)
 .ARM.attributes
                0x00001138       0x28 libmc300.a(serial_api.o)
 .ARM.attributes
                0x00001160       0x28 libmc300.a(drv_wdog.o)
 .ARM.attributes
                0x00001188       0x28 libmc300.a(fence.o)
 .ARM.attributes
                0x000011b0       0x28 libmc300.a(flash_api.o)
 .ARM.attributes
                0x000011d8       0x28 libmc300.a(smartComm.o)
 .ARM.attributes
                0x00001200       0x28 libmc300.a(smartConf.o)
 .ARM.attributes
                0x00001228       0x28 libmc300.a(ssv_lib_slow.o)
 .ARM.attributes
                0x00001250       0x28 libmc300.a(userSmart.o)
 .ARM.attributes
                0x00001278       0x28 libmc300.a(drv_mbox.o)
 .ARM.attributes
                0x000012a0       0x28 libmc300.a(hash_alg.o)
 .ARM.attributes
                0x000012c8       0x28 libmc300.a(hmac_md5.o)
 .ARM.attributes
                0x000012f0       0x28 libmc300.a(hmac_sha1.o)
 .ARM.attributes
                0x00001318       0x28 libmc300.a(ieee80211_mac.o)
 .ARM.attributes
                0x00001340       0x28 libmc300.a(ieee80211_net.o)
 .ARM.attributes
                0x00001368       0x28 libmc300.a(sha1.o)
 .ARM.attributes
                0x00001390       0x28 libmc300.a(ssv6200_tx.o)
 .ARM.attributes
                0x000013b8       0x28 libmc300.a(sys_status_api.)
 .ARM.attributes
                0x000013e0       0x28 libmc300.a(shell-ping.o)
 .ARM.attributes
                0x00001408       0x28 libmc300.a(drv_fence.o)
 .ARM.attributes
                0x00001430       0x28 libmc300.a(drv_pwm.o)
 .ARM.attributes
                0x00001458       0x28 libmc300.a(EAPOL.o)
 .ARM.attributes
                0x00001480       0x28 libcjsona.a(cJSON.o)
 .ARM.attributes
                0x000014a8       0x30 ./thirdpartylib/libairkiss.a(airkiss.o)
 .ARM.attributes
                0x000014d8       0x30 ./thirdpartylib/libairkiss.a(airlink.o)
 .ARM.attributes
                0x00001508       0x30 /usr/bin/../lib/gcc/arm-none-eabi/4.8.4/../../../../arm-none-eabi/lib/libm.a(lib_a-s_fabs.o)
 .ARM.attributes
                0x00001538       0x30 /usr/bin/../lib/gcc/arm-none-eabi/4.8.4/../../../../arm-none-eabi/lib/libm.a(lib_a-s_floor.o)
 .ARM.attributes
                0x00001568       0x30 /usr/bin/../lib/gcc/arm-none-eabi/4.8.4/../../../../arm-none-eabi/lib/libm.a(lib_a-w_pow.o)
 .ARM.attributes
                0x00001598       0x30 /usr/bin/../lib/gcc/arm-none-eabi/4.8.4/../../../../arm-none-eabi/lib/libm.a(lib_a-e_pow.o)
 .ARM.attributes
                0x000015c8       0x30 /usr/bin/../lib/gcc/arm-none-eabi/4.8.4/../../../../arm-none-eabi/lib/libm.a(lib_a-e_sqrt.o)
 .ARM.attributes
                0x000015f8       0x30 /usr/bin/../lib/gcc/arm-none-eabi/4.8.4/../../../../arm-none-eabi/lib/libm.a(lib_a-s_finite.o)
 .ARM.attributes
                0x00001628       0x30 /usr/bin/../lib/gcc/arm-none-eabi/4.8.4/../../../../arm-none-eabi/lib/libm.a(lib_a-s_fpclassify.o)
 .ARM.attributes
                0x00001658       0x30 /usr/bin/../lib/gcc/arm-none-eabi/4.8.4/../../../../arm-none-eabi/lib/libm.a(lib_a-s_lib_ver.o)
 .ARM.attributes
                0x00001688       0x30 /usr/bin/../lib/gcc/arm-none-eabi/4.8.4/../../../../arm-none-eabi/lib/libm.a(lib_a-s_matherr.o)
 .ARM.attributes
                0x000016b8       0x30 /usr/bin/../lib/gcc/arm-none-eabi/4.8.4/../../../../arm-none-eabi/lib/libm.a(lib_a-s_nan.o)
 .ARM.attributes
                0x000016e8       0x30 /usr/bin/../lib/gcc/arm-none-eabi/4.8.4/../../../../arm-none-eabi/lib/libm.a(lib_a-s_rint.o)
 .ARM.attributes
                0x00001718       0x30 /usr/bin/../lib/gcc/arm-none-eabi/4.8.4/../../../../arm-none-eabi/lib/libm.a(lib_a-s_scalbn.o)
 .ARM.attributes
                0x00001748       0x30 /usr/bin/../lib/gcc/arm-none-eabi/4.8.4/../../../../arm-none-eabi/lib/libm.a(lib_a-s_copysign.o)
 .ARM.attributes
                0x00001778       0x18 /usr/bin/../lib/gcc/arm-none-eabi/4.8.4/libgcc.a(_udivsi3.o)
 .ARM.attributes
                0x00001790       0x18 /usr/bin/../lib/gcc/arm-none-eabi/4.8.4/libgcc.a(_divsi3.o)
 .ARM.attributes
                0x000017a8       0x18 /usr/bin/../lib/gcc/arm-none-eabi/4.8.4/libgcc.a(_dvmd_tls.o)
 .ARM.attributes
                0x000017c0       0x18 /usr/bin/../lib/gcc/arm-none-eabi/4.8.4/libgcc.a(_arm_addsubdf3.o)
 .ARM.attributes
                0x000017d8       0x18 /usr/bin/../lib/gcc/arm-none-eabi/4.8.4/libgcc.a(_arm_muldivdf3.o)
 .ARM.attributes
                0x000017f0       0x18 /usr/bin/../lib/gcc/arm-none-eabi/4.8.4/libgcc.a(_arm_cmpdf2.o)
 .ARM.attributes
                0x00001808       0x18 /usr/bin/../lib/gcc/arm-none-eabi/4.8.4/libgcc.a(_arm_fixdfsi.o)
 .ARM.attributes
                0x00001820       0x18 /usr/bin/../lib/gcc/arm-none-eabi/4.8.4/libgcc.a(_arm_truncdfsf2.o)
 .ARM.attributes
                0x00001838       0x18 /usr/bin/../lib/gcc/arm-none-eabi/4.8.4/libgcc.a(_arm_addsubsf3.o)
 .ARM.attributes
                0x00001850       0x18 /usr/bin/../lib/gcc/arm-none-eabi/4.8.4/libgcc.a(_arm_muldivsf3.o)
 .ARM.attributes
                0x00001868       0x18 /usr/bin/../lib/gcc/arm-none-eabi/4.8.4/libgcc.a(_aeabi_uldivmod.o)
 .ARM.attributes
                0x00001880       0x30 /usr/bin/../lib/gcc/arm-none-eabi/4.8.4/libgcc.a(bpabi.o)
 .ARM.attributes
                0x000018b0       0x30 /usr/bin/../lib/gcc/arm-none-eabi/4.8.4/libgcc.a(_divdi3.o)
 .ARM.attributes
                0x000018e0       0x30 /usr/bin/../lib/gcc/arm-none-eabi/4.8.4/libgcc.a(_udivdi3.o)
 .ARM.attributes
                0x00001910       0x18 /usr/bin/../lib/gcc/arm-none-eabi/4.8.4/libgcc.a(_clzsi2.o)
 .ARM.attributes
                0x00001928       0x30 /usr/bin/../lib/gcc/arm-none-eabi/4.8.4/../../../../arm-none-eabi/lib/libg_s.a(lib_a-atoi.o)
 .ARM.attributes
                0x00001958       0x30 /usr/bin/../lib/gcc/arm-none-eabi/4.8.4/../../../../arm-none-eabi/lib/libg_s.a(lib_a-bzero.o)
 .ARM.attributes
                0x00001988       0x30 /usr/bin/../lib/gcc/arm-none-eabi/4.8.4/../../../../arm-none-eabi/lib/libg_s.a(lib_a-ctype_.o)
 .ARM.attributes
                0x000019b8       0x30 /usr/bin/../lib/gcc/arm-none-eabi/4.8.4/../../../../arm-none-eabi/lib/libg_s.a(lib_a-errno.o)
 .ARM.attributes
                0x000019e8       0x30 /usr/bin/../lib/gcc/arm-none-eabi/4.8.4/../../../../arm-none-eabi/lib/libg_s.a(lib_a-impure.o)
 .ARM.attributes
                0x00001a18       0x30 /usr/bin/../lib/gcc/arm-none-eabi/4.8.4/../../../../arm-none-eabi/lib/libg_s.a(lib_a-malloc.o)
 .ARM.attributes
                0x00001a48       0x30 /usr/bin/../lib/gcc/arm-none-eabi/4.8.4/../../../../arm-none-eabi/lib/libg_s.a(lib_a-memchr-stub.o)
 .ARM.attributes
                0x00001a78       0x30 /usr/bin/../lib/gcc/arm-none-eabi/4.8.4/../../../../arm-none-eabi/lib/libg_s.a(lib_a-mstats.o)
 .ARM.attributes
                0x00001aa8       0x30 /usr/bin/../lib/gcc/arm-none-eabi/4.8.4/../../../../arm-none-eabi/lib/libg_s.a(lib_a-nano-freer.o)
 .ARM.attributes
                0x00001ad8       0x30 /usr/bin/../lib/gcc/arm-none-eabi/4.8.4/../../../../arm-none-eabi/lib/libg_s.a(lib_a-nano-mallinfor.o)
 .ARM.attributes
                0x00001b08       0x30 /usr/bin/../lib/gcc/arm-none-eabi/4.8.4/../../../../arm-none-eabi/lib/libg_s.a(lib_a-nano-mallocr.o)
 .ARM.attributes
                0x00001b38       0x30 /usr/bin/../lib/gcc/arm-none-eabi/4.8.4/../../../../arm-none-eabi/lib/libg_s.a(lib_a-nano-malloptr.o)
 .ARM.attributes
                0x00001b68       0x30 /usr/bin/../lib/gcc/arm-none-eabi/4.8.4/../../../../arm-none-eabi/lib/libg_s.a(lib_a-nano-mallstatsr.o)
 .ARM.attributes
                0x00001b98       0x30 /usr/bin/../lib/gcc/arm-none-eabi/4.8.4/../../../../arm-none-eabi/lib/libg_s.a(lib_a-rand.o)
 .ARM.attributes
                0x00001bc8       0x30 /usr/bin/../lib/gcc/arm-none-eabi/4.8.4/../../../../arm-none-eabi/lib/libg_s.a(lib_a-realloc.o)
 .ARM.attributes
                0x00001bf8       0x30 /usr/bin/../lib/gcc/arm-none-eabi/4.8.4/../../../../arm-none-eabi/lib/libg_s.a(lib_a-sbrkr.o)
 .ARM.attributes
                0x00001c28       0x30 /usr/bin/../lib/gcc/arm-none-eabi/4.8.4/../../../../arm-none-eabi/lib/libg_s.a(lib_a-sscanf.o)
 .ARM.attributes
                0x00001c58       0x30 /usr/bin/../lib/gcc/arm-none-eabi/4.8.4/../../../../arm-none-eabi/lib/libg_s.a(lib_a-stdio.o)
 .ARM.attributes
                0x00001c88       0x30 /usr/bin/../lib/gcc/arm-none-eabi/4.8.4/../../../../arm-none-eabi/lib/libg_s.a(lib_a-strcasecmp.o)
 .ARM.attributes
                0x00001cb8       0x30 /usr/bin/../lib/gcc/arm-none-eabi/4.8.4/../../../../arm-none-eabi/lib/libg_s.a(lib_a-strncasecmp.o)
 .ARM.attributes
                0x00001ce8       0x30 /usr/bin/../lib/gcc/arm-none-eabi/4.8.4/../../../../arm-none-eabi/lib/libg_s.a(lib_a-strtol.o)
 .ARM.attributes
                0x00001d18       0x30 /usr/bin/../lib/gcc/arm-none-eabi/4.8.4/../../../../arm-none-eabi/lib/libg_s.a(lib_a-strtoul.o)
 .ARM.attributes
                0x00001d48       0x30 /usr/bin/../lib/gcc/arm-none-eabi/4.8.4/../../../../arm-none-eabi/lib/libg_s.a(lib_a-svfscanf.o)
 .ARM.attributes
                0x00001d78       0x30 /usr/bin/../lib/gcc/arm-none-eabi/4.8.4/../../../../arm-none-eabi/lib/libg_s.a(lib_a-ungetc.o)
 .ARM.attributes
                0x00001da8       0x30 /usr/bin/../lib/gcc/arm-none-eabi/4.8.4/../../../../arm-none-eabi/lib/libg_s.a(lib_a-vfscanf_i.o)
 .ARM.attributes
                0x00001dd8       0x30 /usr/bin/../lib/gcc/arm-none-eabi/4.8.4/../../../../arm-none-eabi/lib/libg_s.a(lib_a-writer.o)
 .ARM.attributes
                0x00001e08       0x30 /usr/bin/../lib/gcc/arm-none-eabi/4.8.4/../../../../arm-none-eabi/lib/libg_s.a(lib_a-closer.o)
 .ARM.attributes
                0x00001e38       0x30 /usr/bin/../lib/gcc/arm-none-eabi/4.8.4/../../../../arm-none-eabi/lib/libg_s.a(lib_a-fflush.o)
 .ARM.attributes
                0x00001e68       0x30 /usr/bin/../lib/gcc/arm-none-eabi/4.8.4/../../../../arm-none-eabi/lib/libg_s.a(lib_a-findfp.o)
 .ARM.attributes
                0x00001e98       0x30 /usr/bin/../lib/gcc/arm-none-eabi/4.8.4/../../../../arm-none-eabi/lib/libg_s.a(lib_a-fprintf.o)
 .ARM.attributes
                0x00001ec8       0x30 /usr/bin/../lib/gcc/arm-none-eabi/4.8.4/../../../../arm-none-eabi/lib/libg_s.a(lib_a-fwalk.o)
 .ARM.attributes
                0x00001ef8       0x30 /usr/bin/../lib/gcc/arm-none-eabi/4.8.4/../../../../arm-none-eabi/lib/libg_s.a(lib_a-lseekr.o)
 .ARM.attributes
                0x00001f28       0x30 /usr/bin/../lib/gcc/arm-none-eabi/4.8.4/../../../../arm-none-eabi/lib/libg_s.a(lib_a-nano-reallocr.o)
 .ARM.attributes
                0x00001f58       0x30 /usr/bin/../lib/gcc/arm-none-eabi/4.8.4/../../../../arm-none-eabi/lib/libg_s.a(lib_a-readr.o)
 .ARM.attributes
                0x00001f88       0x30 /usr/bin/../lib/gcc/arm-none-eabi/4.8.4/../../../../arm-none-eabi/lib/libg_s.a(lib_a-reent.o)
 .ARM.attributes
                0x00001fb8       0x30 /usr/bin/../lib/gcc/arm-none-eabi/4.8.4/../../../../arm-none-eabi/lib/libg_s.a(lib_a-sccl.o)
 .ARM.attributes
                0x00001fe8       0x30 /usr/bin/../lib/gcc/arm-none-eabi/4.8.4/../../../../arm-none-eabi/lib/libg_s.a(lib_a-vfprintf.o)
 .ARM.attributes
                0x00002018       0x30 /usr/bin/../lib/gcc/arm-none-eabi/4.8.4/../../../../arm-none-eabi/lib/libg_s.a(lib_a-vfprintf_i.o)
 .ARM.attributes
                0x00002048       0x30 /usr/bin/../lib/gcc/arm-none-eabi/4.8.4/../../../../arm-none-eabi/lib/libg_s.a(lib_a-wbuf.o)
 .ARM.attributes
                0x00002078       0x30 /usr/bin/../lib/gcc/arm-none-eabi/4.8.4/../../../../arm-none-eabi/lib/libg_s.a(lib_a-wsetup.o)
 .ARM.attributes
                0x000020a8       0x30 /usr/bin/../lib/gcc/arm-none-eabi/4.8.4/../../../../arm-none-eabi/lib/libg_s.a(lib_a-fvwrite.o)
 .ARM.attributes
                0x000020d8       0x30 /usr/bin/../lib/gcc/arm-none-eabi/4.8.4/../../../../arm-none-eabi/lib/libg_s.a(lib_a-makebuf.o)
 .ARM.attributes
                0x00002108       0x30 /usr/bin/../lib/gcc/arm-none-eabi/4.8.4/../../../../arm-none-eabi/lib/libg_s.a(lib_a-nano-msizer.o)
 .ARM.attributes
                0x00002138       0x30 /usr/bin/../lib/gcc/arm-none-eabi/4.8.4/../../../../arm-none-eabi/lib/libg_s.a(lib_a-fstatr.o)
 .ARM.attributes
                0x00002168       0x30 /usr/bin/../lib/gcc/arm-none-eabi/4.8.4/../../../../arm-none-eabi/lib/libg_s.a(lib_a-isattyr.o)
 .ARM.attributes
                0x00002198       0x30 /usr/bin/../lib/gcc/arm-none-eabi/4.8.4/../../../../arm-none-eabi/lib/libnosys.a(close.o)
 .ARM.attributes
                0x000021c8       0x30 /usr/bin/../lib/gcc/arm-none-eabi/4.8.4/../../../../arm-none-eabi/lib/libnosys.a(fstat.o)
 .ARM.attributes
                0x000021f8       0x30 /usr/bin/../lib/gcc/arm-none-eabi/4.8.4/../../../../arm-none-eabi/lib/libnosys.a(isatty.o)
 .ARM.attributes
                0x00002228       0x30 /usr/bin/../lib/gcc/arm-none-eabi/4.8.4/../../../../arm-none-eabi/lib/libnosys.a(lseek.o)
 .ARM.attributes
                0x00002258       0x30 /usr/bin/../lib/gcc/arm-none-eabi/4.8.4/../../../../arm-none-eabi/lib/libnosys.a(read.o)
 .ARM.attributes
                0x00002288       0x30 /usr/bin/../lib/gcc/arm-none-eabi/4.8.4/../../../../arm-none-eabi/lib/libnosys.a(write.o)
 *(ARM.attributes)
                0x000022b8                PROVIDE (end, .)
LOAD /tmp/ccsDtpxU.o
LOAD /tmp/ccrvIGXc.o
LOAD main.o
LOAD userapps.a
LOAD libmc300.a
LOAD libcjsona.a
LOAD ./thirdpartylib/libairkiss.a
LOAD /usr/bin/../lib/gcc/arm-none-eabi/4.8.4/../../../../arm-none-eabi/lib/libm.a
START GROUP
LOAD /usr/bin/../lib/gcc/arm-none-eabi/4.8.4/libgcc.a
LOAD /usr/bin/../lib/gcc/arm-none-eabi/4.8.4/../../../../arm-none-eabi/lib/libg_s.a
LOAD /usr/bin/../lib/gcc/arm-none-eabi/4.8.4/../../../../arm-none-eabi/lib/libc_s.a
END GROUP
START GROUP
LOAD /usr/bin/../lib/gcc/arm-none-eabi/4.8.4/libgcc.a
LOAD /usr/bin/../lib/gcc/arm-none-eabi/4.8.4/../../../../arm-none-eabi/lib/libc_s.a
LOAD /usr/bin/../lib/gcc/arm-none-eabi/4.8.4/../../../../arm-none-eabi/lib/libnosys.a
END GROUP
START GROUP
LOAD /usr/bin/../lib/gcc/arm-none-eabi/4.8.4/libgcc.a
LOAD /usr/bin/../lib/gcc/arm-none-eabi/4.8.4/../../../../arm-none-eabi/lib/libc_s.a
LOAD /usr/bin/../lib/gcc/arm-none-eabi/4.8.4/../../../../arm-none-eabi/lib/libnosys.a
END GROUP
OUTPUT(lpt120-main.elf elf32-littlearm)

.debug_line     0x00000000    0x203da
 .debug_line    0x00000000       0xce /tmp/ccsDtpxU.o
 .debug_line    0x000000ce       0x4d /tmp/ccrvIGXc.o
 .debug_line    0x0000011b      0x156 main.o
 .debug_line    0x00000271      0x299 userapps.a(app_main.o)
 .debug_line    0x0000050a      0xb84 userapps.a(hm_system.o)
 .debug_line    0x0000108e      0x584 userapps.a(RCLutils.o)
 .debug_line    0x00001612      0x2fd userapps.a(hm_app_main.o)
 .debug_line    0x0000190f      0x390 userapps.a(hm_uart.o)
 .debug_line    0x00001c9f      0x526 userapps.a(hm_uart_handle.)
 .debug_line    0x000021c5      0x703 userapps.a(hm_connect_clou)
 .debug_line    0x000028c8      0x362 userapps.a(hm_sub_devsend_)
 .debug_line    0x00002c2a      0x723 userapps.a(hm_bind_json_pr)
 .debug_line    0x0000334d      0x1ba userapps.a(hm_dev_model.o)
 .debug_line    0x00003507      0x63b userapps.a(hm_parameter.o)
 .debug_line    0x00003b42      0x48d userapps.a(hm_link.o)
 .debug_line    0x00003fcf      0x251 userapps.a(hm_wifi_frame.o)
 .debug_line    0x00004220      0x19c userapps.a(hm_MD5_sum.o)
 .debug_line    0x000043bc      0x2f9 userapps.a(md5sum.o)
 .debug_line    0x000046b5      0x332 libmc300.a(etimer.o)
 .debug_line    0x000049e7      0x3d6 libmc300.a(printf.o)
 .debug_line    0x00004dbd      0x265 libmc300.a(process.o)
 .debug_line    0x00005022      0x2b8 libmc300.a(strformat.o)
 .debug_line    0x000052da      0x121 libmc300.a(timer.o)
 .debug_line    0x000053fb      0x73c libmc300.a(boot-hiflying.o)
 .debug_line    0x00005b37      0x2a3 libmc300.a(clock.o)
 .debug_line    0x00005dda      0x3ef libmc300.a(contiki-main.o)
 .debug_line    0x000061c9      0x105 libmc300.a(debug-uart.o)
 .debug_line    0x000062ce       0xc4 libmc300.a(drv_timer.o)
 .debug_line    0x00006392      0x2da libmc300.a(drv_uart.o)
 .debug_line    0x0000666c      0x4da libmc300.a(hw_init.o)
 .debug_line    0x00006b46       0xae libmc300.a(hw_regs_api.o)
 .debug_line    0x00006bf4      0x2f3 libmc300.a(ssv_lib.o)
 .debug_line    0x00006ee7      0x27c libmc300.a(swpwm.o)
 .debug_line    0x00007163      0x4d9 libmc300.a(systemconf.o)
 .debug_line    0x0000763c      0x2cc libmc300.a(wdog_api.o)
 .debug_line    0x00007908      0x25d libmc300.a(xmem.o)
 .debug_line    0x00007b65      0x2e5 libmc300.a(bsp.o)
 .debug_line    0x00007e4a      0x19f libmc300.a(crypthw.o)
 .debug_line    0x00007fe9      0xd09 libmc300.a(dbg-atcmd-api.o)
 .debug_line    0x00008cf2      0x24b libmc300.a(drv_mac.o)
 .debug_line    0x00008f3d      0xb8c libmc300.a(drv_phy.o)
 .debug_line    0x00009ac9      0x284 libmc300.a(drv_pktbuf.o)
 .debug_line    0x00009d4d      0x10d libmc300.a(drv_pktbuf_slow)
 .debug_line    0x00009e5a      0xca0 libmc300.a(ieee80211_mgmt.)
 .debug_line    0x0000aafa      0x1f1 libmc300.a(ieee80211_rdc.o)
 .debug_line    0x0000aceb      0x228 libmc300.a(irq.o)
 .debug_line    0x0000af13       0x82 libmc300.a(netstack.o)
 .debug_line    0x0000af95      0x31b libmc300.a(powersave.o)
 .debug_line    0x0000b2b0      0x1fd libmc300.a(rate_control.o)
 .debug_line    0x0000b4ad      0xc41 libmc300.a(soft_ap.o)
 .debug_line    0x0000c0ee      0x4a1 libmc300.a(ssv6200_rx.o)
 .debug_line    0x0000c58f      0x37c libmc300.a(ssvradio.o)
 .debug_line    0x0000c90b      0x6ac libmc300.a(wpa.o)
 .debug_line    0x0000cfb7      0x4c9 libmc300.a(aes.o)
 .debug_line    0x0000d480      0x95b libmc300.a(hfat.o)
 .debug_line    0x0000dddb      0x716 libmc300.a(at_wifi_cmd.o)
 .debug_line    0x0000e4f1      0x46a libmc300.a(at_network_cmd.)
 .debug_line    0x0000e95b      0x55f libmc300.a(hfgpio.o)
 .debug_line    0x0000eeba      0x247 libmc300.a(hfdebug.o)
 .debug_line    0x0000f101      0x285 libmc300.a(hfuart.o)
 .debug_line    0x0000f386      0x4d7 libmc300.a(hfsys.o)
 .debug_line    0x0000f85d      0x7ce libmc300.a(hfconfig.o)
 .debug_line    0x0001002b      0x400 libmc300.a(hfflash.o)
 .debug_line    0x0001042b      0x73c libmc300.a(hfnet.o)
 .debug_line    0x00010b67      0x608 libmc300.a(uart_thread.o)
 .debug_line    0x0001116f      0x5d1 libmc300.a(hfwifi.o)
 .debug_line    0x00011740      0x735 libmc300.a(hfupdate.o)
 .debug_line    0x00011e75      0x51e libmc300.a(httpclient.o)
 .debug_line    0x00012393      0xb06 libmc300.a(hfsmtlk.o)
 .debug_line    0x00012e99      0x4f9 libmc300.a(smartlinkV3.o)
 .debug_line    0x00013392      0x56c libmc300.a(smartlinkV7.o)
 .debug_line    0x000138fe      0x426 libmc300.a(airkissv2.o)
 .debug_line    0x00013d24      0x37b libmc300.a(assis_thread.o)
 .debug_line    0x0001409f      0x39f libmc300.a(hftimer.o)
 .debug_line    0x0001443e      0x2f2 libmc300.a(at_fota.o)
 .debug_line    0x00014730      0x72d libmc300.a(mc300_main.o)
 .debug_line    0x00014e5d      0x353 libmc300.a(hfsniffer.o)
 .debug_line    0x000151b0      0x511 libmc300.a(socket_b.o)
 .debug_line    0x000156c1      0x3b4 libmc300.a(socket_a.o)
 .debug_line    0x00015a75      0x3a8 libmc300.a(at_socket_cmd.o)
 .debug_line    0x00015e1d      0x4b5 libmc300.a(socket_a_client)
 .debug_line    0x000162d2      0xa37 libmc300.a(atcmd.o)
 .debug_line    0x00016d09      0x2c9 libmc300.a(dhcp_process.o)
 .debug_line    0x00016fd2      0x5c0 libmc300.a(dhcpc.o)
 .debug_line    0x00017592      0x5f3 libmc300.a(dhcps.o)
 .debug_line    0x00017b85      0x432 libmc300.a(resolv.o)
 .debug_line    0x00017fb7      0x160 libmc300.a(ringbuf.o)
 .debug_line    0x00018117      0x262 libmc300.a(simple-udp.o)
 .debug_line    0x00018379      0x4a3 libmc300.a(socket_driver.o)
 .debug_line    0x0001881c      0x3a6 libmc300.a(soft_ap_init.o)
 .debug_line    0x00018bc2      0x4ed libmc300.a(tcpip.o)
 .debug_line    0x000190af      0x169 libmc300.a(uip-split.o)
 .debug_line    0x00019218      0x1a4 libmc300.a(uip-udp-packet.)
 .debug_line    0x000193bc      0x939 libmc300.a(uip.o)
 .debug_line    0x00019cf5      0x44f libmc300.a(uip_arp.o)
 .debug_line    0x0001a144      0x205 libmc300.a(uip_igmp.o)
 .debug_line    0x0001a349      0x142 libmc300.a(uiplib.o)
 .debug_line    0x0001a48b      0x142 libmc300.a(arc4.o)
 .debug_line    0x0001a5cd      0x50e libmc300.a(wep.o)
 .debug_line    0x0001aadb       0xc1 libmc300.a(autostart.o)
 .debug_line    0x0001ab9c       0x74 libmc300.a(random.o)
 .debug_line    0x0001ac10      0x247 libmc300.a(airkiss.o)
 .debug_line    0x0001ae57      0x914 libmc300.a(atcmd_icomm.o)
 .debug_line    0x0001b76b      0x377 libmc300.a(bsp_info.o)
 .debug_line    0x0001bae2      0x5f9 libmc300.a(cfs-coffee.o)
 .debug_line    0x0001c0db      0x1cf libmc300.a(console.o)
 .debug_line    0x0001c2aa      0x411 libmc300.a(drv_flash.o)
 .debug_line    0x0001c6bb      0x1a0 libmc300.a(drv_gpio.o)
 .debug_line    0x0001c85b      0x136 libmc300.a(gpio_api.o)
 .debug_line    0x0001c991      0x330 libmc300.a(drv_pmu.o)
 .debug_line    0x0001ccc1      0x103 libmc300.a(pwm_api.o)
 .debug_line    0x0001cdc4      0x11a libmc300.a(serial_api.o)
 .debug_line    0x0001cede       0xce libmc300.a(drv_wdog.o)
 .debug_line    0x0001cfac       0xeb libmc300.a(fence.o)
 .debug_line    0x0001d097      0x33f libmc300.a(flash_api.o)
 .debug_line    0x0001d3d6      0x532 libmc300.a(smartComm.o)
 .debug_line    0x0001d908      0x249 libmc300.a(smartConf.o)
 .debug_line    0x0001db51      0x132 libmc300.a(ssv_lib_slow.o)
 .debug_line    0x0001dc83      0x484 libmc300.a(userSmart.o)
 .debug_line    0x0001e107       0xbe libmc300.a(drv_mbox.o)
 .debug_line    0x0001e1c5      0x139 libmc300.a(hash_alg.o)
 .debug_line    0x0001e2fe      0x11d libmc300.a(hmac_md5.o)
 .debug_line    0x0001e41b      0x16d libmc300.a(hmac_sha1.o)
 .debug_line    0x0001e588      0x42e libmc300.a(ieee80211_mac.o)
 .debug_line    0x0001e9b6      0x266 libmc300.a(ieee80211_net.o)
 .debug_line    0x0001ec1c      0x139 libmc300.a(sha1.o)
 .debug_line    0x0001ed55      0x289 libmc300.a(ssv6200_tx.o)
 .debug_line    0x0001efde      0x2f4 libmc300.a(sys_status_api.)
 .debug_line    0x0001f2d2      0x2b6 libmc300.a(shell-ping.o)
 .debug_line    0x0001f588       0xd1 libmc300.a(drv_fence.o)
 .debug_line    0x0001f659      0x189 libmc300.a(drv_pwm.o)
 .debug_line    0x0001f7e2      0x1d6 libmc300.a(EAPOL.o)
 .debug_line    0x0001f9b8      0xa22 libcjsona.a(cJSON.o)

.debug_info     0x00000000    0x99fb4
 .debug_info    0x00000000       0x54 /tmp/ccsDtpxU.o
 .debug_info    0x00000054       0x5c /tmp/ccrvIGXc.o
 .debug_info    0x000000b0      0x344 main.o
 .debug_info    0x000003f4      0x812 userapps.a(app_main.o)
 .debug_info    0x00000c06     0x2e41 userapps.a(hm_system.o)
 .debug_info    0x00003a47     0x1219 userapps.a(RCLutils.o)
 .debug_info    0x00004c60      0xb4d userapps.a(hm_app_main.o)
 .debug_info    0x000057ad      0xafc userapps.a(hm_uart.o)
 .debug_info    0x000062a9     0x1c65 userapps.a(hm_uart_handle.)
 .debug_info    0x00007f0e     0x258b userapps.a(hm_connect_clou)
 .debug_info    0x0000a499     0x1231 userapps.a(hm_sub_devsend_)
 .debug_info    0x0000b6ca     0x25ff userapps.a(hm_bind_json_pr)
 .debug_info    0x0000dcc9      0x495 userapps.a(hm_dev_model.o)
 .debug_info    0x0000e15e     0x1f38 userapps.a(hm_parameter.o)
 .debug_info    0x00010096     0x1653 userapps.a(hm_link.o)
 .debug_info    0x000116e9      0x2b3 userapps.a(hm_wifi_frame.o)
 .debug_info    0x0001199c      0x4ae userapps.a(hm_MD5_sum.o)
 .debug_info    0x00011e4a      0x517 userapps.a(md5sum.o)
 .debug_info    0x00012361      0x88e libmc300.a(etimer.o)
 .debug_info    0x00012bef      0xdd7 libmc300.a(printf.o)
 .debug_info    0x000139c6      0x85f libmc300.a(process.o)
 .debug_info    0x00014225      0x9d4 libmc300.a(strformat.o)
 .debug_info    0x00014bf9      0x1b3 libmc300.a(timer.o)
 .debug_info    0x00014dac     0x248d libmc300.a(boot-hiflying.o)
 .debug_info    0x00017239      0xc8f libmc300.a(clock.o)
 .debug_info    0x00017ec8      0xcb2 libmc300.a(contiki-main.o)
 .debug_info    0x00018b7a      0x23d libmc300.a(debug-uart.o)
 .debug_info    0x00018db7      0x257 libmc300.a(drv_timer.o)
 .debug_info    0x0001900e      0x78b libmc300.a(drv_uart.o)
 .debug_info    0x00019799     0x1e66 libmc300.a(hw_init.o)
 .debug_info    0x0001b5ff      0x1bc libmc300.a(hw_regs_api.o)
 .debug_info    0x0001b7bb      0x6cf libmc300.a(ssv_lib.o)
 .debug_info    0x0001be8a      0x4b4 libmc300.a(swpwm.o)
 .debug_info    0x0001c33e     0x1906 libmc300.a(systemconf.o)
 .debug_info    0x0001dc44      0x7a9 libmc300.a(wdog_api.o)
 .debug_info    0x0001e3ed      0x6d0 libmc300.a(xmem.o)
 .debug_info    0x0001eabd      0x5c7 libmc300.a(bsp.o)
 .debug_info    0x0001f084      0x8c1 libmc300.a(crypthw.o)
 .debug_info    0x0001f945     0x51a4 libmc300.a(dbg-atcmd-api.o)
 .debug_info    0x00024ae9      0xe93 libmc300.a(drv_mac.o)
 .debug_info    0x0002597c     0x2325 libmc300.a(drv_phy.o)
 .debug_info    0x00027ca1      0xba4 libmc300.a(drv_pktbuf.o)
 .debug_info    0x00028845      0x842 libmc300.a(drv_pktbuf_slow)
 .debug_info    0x00029087     0x55da libmc300.a(ieee80211_mgmt.)
 .debug_info    0x0002e661      0x6f5 libmc300.a(ieee80211_rdc.o)
 .debug_info    0x0002ed56      0x54e libmc300.a(irq.o)
 .debug_info    0x0002f2a4      0x284 libmc300.a(netstack.o)
 .debug_info    0x0002f528     0x1260 libmc300.a(powersave.o)
 .debug_info    0x00030788      0xc70 libmc300.a(rate_control.o)
 .debug_info    0x000313f8     0x4d61 libmc300.a(soft_ap.o)
 .debug_info    0x00036159     0x1859 libmc300.a(ssv6200_rx.o)
 .debug_info    0x000379b2     0x13c0 libmc300.a(ssvradio.o)
 .debug_info    0x00038d72     0x2f85 libmc300.a(wpa.o)
 .debug_info    0x0003bcf7      0xefd libmc300.a(aes.o)
 .debug_info    0x0003cbf4     0x3df3 libmc300.a(hfat.o)
 .debug_info    0x000409e7     0x341b libmc300.a(at_wifi_cmd.o)
 .debug_info    0x00043e02     0x21c4 libmc300.a(at_network_cmd.)
 .debug_info    0x00045fc6     0x1701 libmc300.a(hfgpio.o)
 .debug_info    0x000476c7      0xa4f libmc300.a(hfdebug.o)
 .debug_info    0x00048116      0x5a4 libmc300.a(hfuart.o)
 .debug_info    0x000486ba      0xe63 libmc300.a(hfsys.o)
 .debug_info    0x0004951d     0x2d63 libmc300.a(hfconfig.o)
 .debug_info    0x0004c280      0xe2e libmc300.a(hfflash.o)
 .debug_info    0x0004d0ae     0x23a0 libmc300.a(hfnet.o)
 .debug_info    0x0004f44e     0x1b12 libmc300.a(uart_thread.o)
 .debug_info    0x00050f60     0x1eb1 libmc300.a(hfwifi.o)
 .debug_info    0x00052e11     0x35b9 libmc300.a(hfupdate.o)
 .debug_info    0x000563ca     0x1f25 libmc300.a(httpclient.o)
 .debug_info    0x000582ef     0x3d42 libmc300.a(hfsmtlk.o)
 .debug_info    0x0005c031     0x10ba libmc300.a(smartlinkV3.o)
 .debug_info    0x0005d0eb     0x17e3 libmc300.a(smartlinkV7.o)
 .debug_info    0x0005e8ce     0x10fc libmc300.a(airkissv2.o)
 .debug_info    0x0005f9ca     0x1681 libmc300.a(assis_thread.o)
 .debug_info    0x0006104b      0xa5f libmc300.a(hftimer.o)
 .debug_info    0x00061aaa     0x10f4 libmc300.a(at_fota.o)
 .debug_info    0x00062b9e     0x2c4f libmc300.a(mc300_main.o)
 .debug_info    0x000657ed      0xdca libmc300.a(hfsniffer.o)
 .debug_info    0x000665b7     0x1f6d libmc300.a(socket_b.o)
 .debug_info    0x00068524     0x133b libmc300.a(socket_a.o)
 .debug_info    0x0006985f     0x177d libmc300.a(at_socket_cmd.o)
 .debug_info    0x0006afdc     0x1f0f libmc300.a(socket_a_client)
 .debug_info    0x0006ceeb     0x4f4f libmc300.a(atcmd.o)
 .debug_info    0x00071e3a      0xefb libmc300.a(dhcp_process.o)
 .debug_info    0x00072d35     0x2976 libmc300.a(dhcpc.o)
 .debug_info    0x000756ab     0x21b3 libmc300.a(dhcps.o)
 .debug_info    0x0007785e     0x11d8 libmc300.a(resolv.o)
 .debug_info    0x00078a36      0x244 libmc300.a(ringbuf.o)
 .debug_info    0x00078c7a      0x951 libmc300.a(simple-udp.o)
 .debug_info    0x000795cb     0x10d3 libmc300.a(socket_driver.o)
 .debug_info    0x0007a69e     0x1966 libmc300.a(soft_ap_init.o)
 .debug_info    0x0007c004     0x164c libmc300.a(tcpip.o)
 .debug_info    0x0007d650      0x3d2 libmc300.a(uip-split.o)
 .debug_info    0x0007da22      0x5c3 libmc300.a(uip-udp-packet.)
 .debug_info    0x0007dfe5     0x1a1a libmc300.a(uip.o)
 .debug_info    0x0007f9ff      0xcec libmc300.a(uip_arp.o)
 .debug_info    0x000806eb      0x63a libmc300.a(uip_igmp.o)
 .debug_info    0x00080d25      0x202 libmc300.a(uiplib.o)
 .debug_info    0x00080f27      0x31e libmc300.a(arc4.o)
 .debug_info    0x00081245     0x1567 libmc300.a(wep.o)
 .debug_info    0x000827ac      0x274 libmc300.a(autostart.o)
 .debug_info    0x00082a20       0xe7 libmc300.a(random.o)
 .debug_info    0x00082b07      0x37e libmc300.a(airkiss.o)
 .debug_info    0x00082e85     0x3e74 libmc300.a(atcmd_icomm.o)
 .debug_info    0x00086cf9      0xfc0 libmc300.a(bsp_info.o)
 .debug_info    0x00087cb9     0x1803 libmc300.a(cfs-coffee.o)
 .debug_info    0x000894bc      0x40a libmc300.a(console.o)
 .debug_info    0x000898c6      0xbb1 libmc300.a(drv_flash.o)
 .debug_info    0x0008a477      0x493 libmc300.a(drv_gpio.o)
 .debug_info    0x0008a90a      0x404 libmc300.a(gpio_api.o)
 .debug_info    0x0008ad0e      0xe21 libmc300.a(drv_pmu.o)
 .debug_info    0x0008bb2f      0x21d libmc300.a(pwm_api.o)
 .debug_info    0x0008bd4c      0x345 libmc300.a(serial_api.o)
 .debug_info    0x0008c091       0xec libmc300.a(drv_wdog.o)
 .debug_info    0x0008c17d      0x17e libmc300.a(fence.o)
 .debug_info    0x0008c2fb      0xa18 libmc300.a(flash_api.o)
 .debug_info    0x0008cd13     0x16ba libmc300.a(smartComm.o)
 .debug_info    0x0008e3cd      0x381 libmc300.a(smartConf.o)
 .debug_info    0x0008e74e      0x35c libmc300.a(ssv_lib_slow.o)
 .debug_info    0x0008eaaa     0x126a libmc300.a(userSmart.o)
 .debug_info    0x0008fd14      0x1b9 libmc300.a(drv_mbox.o)
 .debug_info    0x0008fecd      0x80d libmc300.a(hash_alg.o)
 .debug_info    0x000906da      0x46e libmc300.a(hmac_md5.o)
 .debug_info    0x00090b48      0x48a libmc300.a(hmac_sha1.o)
 .debug_info    0x00090fd2     0x1b15 libmc300.a(ieee80211_mac.o)
 .debug_info    0x00092ae7     0x12d2 libmc300.a(ieee80211_net.o)
 .debug_info    0x00093db9      0x244 libmc300.a(sha1.o)
 .debug_info    0x00093ffd     0x13ab libmc300.a(ssv6200_tx.o)
 .debug_info    0x000953a8      0xc2f libmc300.a(sys_status_api.)
 .debug_info    0x00095fd7      0x77b libmc300.a(shell-ping.o)
 .debug_info    0x00096752      0x142 libmc300.a(drv_fence.o)
 .debug_info    0x00096894      0x255 libmc300.a(drv_pwm.o)
 .debug_info    0x00096ae9     0x11eb libmc300.a(EAPOL.o)
 .debug_info    0x00097cd4     0x22e0 libcjsona.a(cJSON.o)

.debug_abbrev   0x00000000    0x18db3
 .debug_abbrev  0x00000000       0x12 /tmp/ccsDtpxU.o
 .debug_abbrev  0x00000012       0x14 /tmp/ccrvIGXc.o
 .debug_abbrev  0x00000026      0x1b8 main.o
 .debug_abbrev  0x000001de      0x24a userapps.a(app_main.o)
 .debug_abbrev  0x00000428      0x3d3 userapps.a(hm_system.o)
 .debug_abbrev  0x000007fb      0x3ac userapps.a(RCLutils.o)
 .debug_abbrev  0x00000ba7      0x2ba userapps.a(hm_app_main.o)
 .debug_abbrev  0x00000e61      0x37e userapps.a(hm_uart.o)
 .debug_abbrev  0x000011df      0x485 userapps.a(hm_uart_handle.)
 .debug_abbrev  0x00001664      0x58f userapps.a(hm_connect_clou)
 .debug_abbrev  0x00001bf3      0x205 userapps.a(hm_sub_devsend_)
 .debug_abbrev  0x00001df8      0x4e5 userapps.a(hm_bind_json_pr)
 .debug_abbrev  0x000022dd      0x13a userapps.a(hm_dev_model.o)
 .debug_abbrev  0x00002417      0x44a userapps.a(hm_parameter.o)
 .debug_abbrev  0x00002861      0x40d userapps.a(hm_link.o)
 .debug_abbrev  0x00002c6e      0x17e userapps.a(hm_wifi_frame.o)
 .debug_abbrev  0x00002dec      0x1a2 userapps.a(hm_MD5_sum.o)
 .debug_abbrev  0x00002f8e      0x190 userapps.a(md5sum.o)
 .debug_abbrev  0x0000311e      0x3c5 libmc300.a(etimer.o)
 .debug_abbrev  0x000034e3      0x3b7 libmc300.a(printf.o)
 .debug_abbrev  0x0000389a      0x3f7 libmc300.a(process.o)
 .debug_abbrev  0x00003c91      0x2b0 libmc300.a(strformat.o)
 .debug_abbrev  0x00003f41       0xee libmc300.a(timer.o)
 .debug_abbrev  0x0000402f      0x4f6 libmc300.a(boot-hiflying.o)
 .debug_abbrev  0x00004525      0x2b5 libmc300.a(clock.o)
 .debug_abbrev  0x000047da      0x334 libmc300.a(contiki-main.o)
 .debug_abbrev  0x00004b0e      0x150 libmc300.a(debug-uart.o)
 .debug_abbrev  0x00004c5e      0x133 libmc300.a(drv_timer.o)
 .debug_abbrev  0x00004d91      0x29e libmc300.a(drv_uart.o)
 .debug_abbrev  0x0000502f      0x4d7 libmc300.a(hw_init.o)
 .debug_abbrev  0x00005506       0xeb libmc300.a(hw_regs_api.o)
 .debug_abbrev  0x000055f1      0x19a libmc300.a(ssv_lib.o)
 .debug_abbrev  0x0000578b      0x1b7 libmc300.a(swpwm.o)
 .debug_abbrev  0x00005942      0x3e3 libmc300.a(systemconf.o)
 .debug_abbrev  0x00005d25      0x2ff libmc300.a(wdog_api.o)
 .debug_abbrev  0x00006024      0x2c4 libmc300.a(xmem.o)
 .debug_abbrev  0x000062e8      0x23f libmc300.a(bsp.o)
 .debug_abbrev  0x00006527      0x229 libmc300.a(crypthw.o)
 .debug_abbrev  0x00006750      0x5d6 libmc300.a(dbg-atcmd-api.o)
 .debug_abbrev  0x00006d26       0xc4 libmc300.a(drv_mac.o)
 .debug_abbrev  0x00006dea      0x323 libmc300.a(drv_phy.o)
 .debug_abbrev  0x0000710d      0x33f libmc300.a(drv_pktbuf.o)
 .debug_abbrev  0x0000744c      0x162 libmc300.a(drv_pktbuf_slow)
 .debug_abbrev  0x000075ae      0x663 libmc300.a(ieee80211_mgmt.)
 .debug_abbrev  0x00007c11      0x1e1 libmc300.a(ieee80211_rdc.o)
 .debug_abbrev  0x00007df2      0x28e libmc300.a(irq.o)
 .debug_abbrev  0x00008080       0xd8 libmc300.a(netstack.o)
 .debug_abbrev  0x00008158      0x3b2 libmc300.a(powersave.o)
 .debug_abbrev  0x0000850a      0x24b libmc300.a(rate_control.o)
 .debug_abbrev  0x00008755      0x620 libmc300.a(soft_ap.o)
 .debug_abbrev  0x00008d75      0x47f libmc300.a(ssv6200_rx.o)
 .debug_abbrev  0x000091f4      0x334 libmc300.a(ssvradio.o)
 .debug_abbrev  0x00009528      0x4ff libmc300.a(wpa.o)
 .debug_abbrev  0x00009a27      0x28c libmc300.a(aes.o)
 .debug_abbrev  0x00009cb3      0x4c9 libmc300.a(hfat.o)
 .debug_abbrev  0x0000a17c      0x53b libmc300.a(at_wifi_cmd.o)
 .debug_abbrev  0x0000a6b7      0x40b libmc300.a(at_network_cmd.)
 .debug_abbrev  0x0000aac2      0x4e5 libmc300.a(hfgpio.o)
 .debug_abbrev  0x0000afa7      0x270 libmc300.a(hfdebug.o)
 .debug_abbrev  0x0000b217      0x190 libmc300.a(hfuart.o)
 .debug_abbrev  0x0000b3a7      0x35f libmc300.a(hfsys.o)
 .debug_abbrev  0x0000b706      0x543 libmc300.a(hfconfig.o)
 .debug_abbrev  0x0000bc49      0x347 libmc300.a(hfflash.o)
 .debug_abbrev  0x0000bf90      0x4c0 libmc300.a(hfnet.o)
 .debug_abbrev  0x0000c450      0x42c libmc300.a(uart_thread.o)
 .debug_abbrev  0x0000c87c      0x507 libmc300.a(hfwifi.o)
 .debug_abbrev  0x0000cd83      0x55f libmc300.a(hfupdate.o)
 .debug_abbrev  0x0000d2e2      0x438 libmc300.a(httpclient.o)
 .debug_abbrev  0x0000d71a      0x5a9 libmc300.a(hfsmtlk.o)
 .debug_abbrev  0x0000dcc3      0x379 libmc300.a(smartlinkV3.o)
 .debug_abbrev  0x0000e03c      0x33e libmc300.a(smartlinkV7.o)
 .debug_abbrev  0x0000e37a      0x33f libmc300.a(airkissv2.o)
 .debug_abbrev  0x0000e6b9      0x3e9 libmc300.a(assis_thread.o)
 .debug_abbrev  0x0000eaa2      0x349 libmc300.a(hftimer.o)
 .debug_abbrev  0x0000edeb      0x292 libmc300.a(at_fota.o)
 .debug_abbrev  0x0000f07d      0x490 libmc300.a(mc300_main.o)
 .debug_abbrev  0x0000f50d      0x2e4 libmc300.a(hfsniffer.o)
 .debug_abbrev  0x0000f7f1      0x420 libmc300.a(socket_b.o)
 .debug_abbrev  0x0000fc11      0x394 libmc300.a(socket_a.o)
 .debug_abbrev  0x0000ffa5      0x2c4 libmc300.a(at_socket_cmd.o)
 .debug_abbrev  0x00010269      0x3dc libmc300.a(socket_a_client)
 .debug_abbrev  0x00010645      0x50c libmc300.a(atcmd.o)
 .debug_abbrev  0x00010b51      0x2e3 libmc300.a(dhcp_process.o)
 .debug_abbrev  0x00010e34      0x55a libmc300.a(dhcpc.o)
 .debug_abbrev  0x0001138e      0x503 libmc300.a(dhcps.o)
 .debug_abbrev  0x00011891      0x430 libmc300.a(resolv.o)
 .debug_abbrev  0x00011cc1      0x131 libmc300.a(ringbuf.o)
 .debug_abbrev  0x00011df2      0x290 libmc300.a(simple-udp.o)
 .debug_abbrev  0x00012082      0x3ad libmc300.a(socket_driver.o)
 .debug_abbrev  0x0001242f      0x391 libmc300.a(soft_ap_init.o)
 .debug_abbrev  0x000127c0      0x469 libmc300.a(tcpip.o)
 .debug_abbrev  0x00012c29      0x1cd libmc300.a(uip-split.o)
 .debug_abbrev  0x00012df6      0x257 libmc300.a(uip-udp-packet.)
 .debug_abbrev  0x0001304d      0x47c libmc300.a(uip.o)
 .debug_abbrev  0x000134c9      0x3b0 libmc300.a(uip_arp.o)
 .debug_abbrev  0x00013879      0x24b libmc300.a(uip_igmp.o)
 .debug_abbrev  0x00013ac4      0x123 libmc300.a(uiplib.o)
 .debug_abbrev  0x00013be7      0x190 libmc300.a(arc4.o)
 .debug_abbrev  0x00013d77      0x3da libmc300.a(wep.o)
 .debug_abbrev  0x00014151      0x170 libmc300.a(autostart.o)
 .debug_abbrev  0x000142c1       0xb5 libmc300.a(random.o)
 .debug_abbrev  0x00014376       0xd8 libmc300.a(airkiss.o)
 .debug_abbrev  0x0001444e      0x44e libmc300.a(atcmd_icomm.o)
 .debug_abbrev  0x0001489c      0x2aa libmc300.a(bsp_info.o)
 .debug_abbrev  0x00014b46      0x41c libmc300.a(cfs-coffee.o)
 .debug_abbrev  0x00014f62      0x21e libmc300.a(console.o)
 .debug_abbrev  0x00015180      0x380 libmc300.a(drv_flash.o)
 .debug_abbrev  0x00015500      0x151 libmc300.a(drv_gpio.o)
 .debug_abbrev  0x00015651      0x18d libmc300.a(gpio_api.o)
 .debug_abbrev  0x000157de      0x378 libmc300.a(drv_pmu.o)
 .debug_abbrev  0x00015b56      0x13e libmc300.a(pwm_api.o)
 .debug_abbrev  0x00015c94      0x1e8 libmc300.a(serial_api.o)
 .debug_abbrev  0x00015e7c       0x76 libmc300.a(drv_wdog.o)
 .debug_abbrev  0x00015ef2      0x122 libmc300.a(fence.o)
 .debug_abbrev  0x00016014      0x2c2 libmc300.a(flash_api.o)
 .debug_abbrev  0x000162d6      0x49e libmc300.a(smartComm.o)
 .debug_abbrev  0x00016774       0xd8 libmc300.a(smartConf.o)
 .debug_abbrev  0x0001684c      0x164 libmc300.a(ssv_lib_slow.o)
 .debug_abbrev  0x000169b0      0x31d libmc300.a(userSmart.o)
 .debug_abbrev  0x00016ccd       0xd2 libmc300.a(drv_mbox.o)
 .debug_abbrev  0x00016d9f      0x180 libmc300.a(hash_alg.o)
 .debug_abbrev  0x00016f1f      0x165 libmc300.a(hmac_md5.o)
 .debug_abbrev  0x00017084      0x167 libmc300.a(hmac_sha1.o)
 .debug_abbrev  0x000171eb      0x568 libmc300.a(ieee80211_mac.o)
 .debug_abbrev  0x00017753      0x37c libmc300.a(ieee80211_net.o)
 .debug_abbrev  0x00017acf      0x110 libmc300.a(sha1.o)
 .debug_abbrev  0x00017bdf      0x342 libmc300.a(ssv6200_tx.o)
 .debug_abbrev  0x00017f21      0x2a3 libmc300.a(sys_status_api.)
 .debug_abbrev  0x000181c4      0x2c1 libmc300.a(shell-ping.o)
 .debug_abbrev  0x00018485       0xf4 libmc300.a(drv_fence.o)
 .debug_abbrev  0x00018579       0xeb libmc300.a(drv_pwm.o)
 .debug_abbrev  0x00018664      0x296 libmc300.a(EAPOL.o)
 .debug_abbrev  0x000188fa      0x4b9 libcjsona.a(cJSON.o)

.debug_aranges  0x00000000     0x43c0
 .debug_aranges
                0x00000000       0x30 /tmp/ccsDtpxU.o
 .debug_aranges
                0x00000030       0x20 /tmp/ccrvIGXc.o
 .debug_aranges
                0x00000050       0x20 main.o
 .debug_aranges
                0x00000070       0x30 userapps.a(app_main.o)
 .debug_aranges
                0x000000a0      0x258 userapps.a(hm_system.o)
 .debug_aranges
                0x000002f8       0xd8 userapps.a(RCLutils.o)
 .debug_aranges
                0x000003d0       0x28 userapps.a(hm_app_main.o)
 .debug_aranges
                0x000003f8       0x58 userapps.a(hm_uart.o)
 .debug_aranges
                0x00000450       0x80 userapps.a(hm_uart_handle.)
 .debug_aranges
                0x000004d0       0xb8 userapps.a(hm_connect_clou)
 .debug_aranges
                0x00000588       0x30 userapps.a(hm_sub_devsend_)
 .debug_aranges
                0x000005b8       0xa0 userapps.a(hm_bind_json_pr)
 .debug_aranges
                0x00000658       0x40 userapps.a(hm_dev_model.o)
 .debug_aranges
                0x00000698       0xc8 userapps.a(hm_parameter.o)
 .debug_aranges
                0x00000760       0x70 userapps.a(hm_link.o)
 .debug_aranges
                0x000007d0       0x30 userapps.a(hm_wifi_frame.o)
 .debug_aranges
                0x00000800       0x28 userapps.a(hm_MD5_sum.o)
 .debug_aranges
                0x00000828       0x48 userapps.a(md5sum.o)
 .debug_aranges
                0x00000870       0x98 libmc300.a(etimer.o)
 .debug_aranges
                0x00000908       0xb0 libmc300.a(printf.o)
 .debug_aranges
                0x000009b8       0x98 libmc300.a(process.o)
 .debug_aranges
                0x00000a50       0x30 libmc300.a(strformat.o)
 .debug_aranges
                0x00000a80       0x40 libmc300.a(timer.o)
 .debug_aranges
                0x00000ac0      0x130 libmc300.a(boot-hiflying.o)
 .debug_aranges
                0x00000bf0       0x58 libmc300.a(clock.o)
 .debug_aranges
                0x00000c48       0x58 libmc300.a(contiki-main.o)
 .debug_aranges
                0x00000ca0       0x30 libmc300.a(debug-uart.o)
 .debug_aranges
                0x00000cd0       0x30 libmc300.a(drv_timer.o)
 .debug_aranges
                0x00000d00       0xb0 libmc300.a(drv_uart.o)
 .debug_aranges
                0x00000db0       0x68 libmc300.a(hw_init.o)
 .debug_aranges
                0x00000e18       0x30 libmc300.a(hw_regs_api.o)
 .debug_aranges
                0x00000e48       0x98 libmc300.a(ssv_lib.o)
 .debug_aranges
                0x00000ee0       0x48 libmc300.a(swpwm.o)
 .debug_aranges
                0x00000f28       0x90 libmc300.a(systemconf.o)
 .debug_aranges
                0x00000fb8       0x60 libmc300.a(wdog_api.o)
 .debug_aranges
                0x00001018       0x58 libmc300.a(xmem.o)
 .debug_aranges
                0x00001070       0x80 libmc300.a(bsp.o)
 .debug_aranges
                0x000010f0       0x58 libmc300.a(crypthw.o)
 .debug_aranges
                0x00001148      0x1b0 libmc300.a(dbg-atcmd-api.o)
 .debug_aranges
                0x000012f8       0xf8 libmc300.a(drv_mac.o)
 .debug_aranges
                0x000013f0      0x280 libmc300.a(drv_phy.o)
 .debug_aranges
                0x00001670       0x70 libmc300.a(drv_pktbuf.o)
 .debug_aranges
                0x000016e0       0x20 libmc300.a(drv_pktbuf_slow)
 .debug_aranges
                0x00001700      0x208 libmc300.a(ieee80211_mgmt.)
 .debug_aranges
                0x00001908       0x50 libmc300.a(ieee80211_rdc.o)
 .debug_aranges
                0x00001958       0x70 libmc300.a(irq.o)
 .debug_aranges
                0x000019c8       0x20 libmc300.a(netstack.o)
 .debug_aranges
                0x000019e8       0x70 libmc300.a(powersave.o)
 .debug_aranges
                0x00001a58       0x48 libmc300.a(rate_control.o)
 .debug_aranges
                0x00001aa0      0x200 libmc300.a(soft_ap.o)
 .debug_aranges
                0x00001ca0       0x70 libmc300.a(ssv6200_rx.o)
 .debug_aranges
                0x00001d10       0x78 libmc300.a(ssvradio.o)
 .debug_aranges
                0x00001d88       0xd8 libmc300.a(wpa.o)
 .debug_aranges
                0x00001e60       0x80 libmc300.a(aes.o)
 .debug_aranges
                0x00001ee0      0x190 libmc300.a(hfat.o)
 .debug_aranges
                0x00002070       0xb0 libmc300.a(at_wifi_cmd.o)
 .debug_aranges
                0x00002120       0x78 libmc300.a(at_network_cmd.)
 .debug_aranges
                0x00002198       0xd8 libmc300.a(hfgpio.o)
 .debug_aranges
                0x00002270       0x40 libmc300.a(hfdebug.o)
 .debug_aranges
                0x000022b0       0x48 libmc300.a(hfuart.o)
 .debug_aranges
                0x000022f8       0xe0 libmc300.a(hfsys.o)
 .debug_aranges
                0x000023d8      0x108 libmc300.a(hfconfig.o)
 .debug_aranges
                0x000024e0       0x88 libmc300.a(hfflash.o)
 .debug_aranges
                0x00002568      0x140 libmc300.a(hfnet.o)
 .debug_aranges
                0x000026a8       0x58 libmc300.a(uart_thread.o)
 .debug_aranges
                0x00002700       0xd0 libmc300.a(hfwifi.o)
 .debug_aranges
                0x000027d0       0xb8 libmc300.a(hfupdate.o)
 .debug_aranges
                0x00002888       0x50 libmc300.a(httpclient.o)
 .debug_aranges
                0x000028d8      0x150 libmc300.a(hfsmtlk.o)
 .debug_aranges
                0x00002a28       0x70 libmc300.a(smartlinkV3.o)
 .debug_aranges
                0x00002a98       0x60 libmc300.a(smartlinkV7.o)
 .debug_aranges
                0x00002af8       0x70 libmc300.a(airkissv2.o)
 .debug_aranges
                0x00002b68       0x48 libmc300.a(assis_thread.o)
 .debug_aranges
                0x00002bb0       0x70 libmc300.a(hftimer.o)
 .debug_aranges
                0x00002c20       0x30 libmc300.a(at_fota.o)
 .debug_aranges
                0x00002c50       0x48 libmc300.a(mc300_main.o)
 .debug_aranges
                0x00002c98       0x48 libmc300.a(hfsniffer.o)
 .debug_aranges
                0x00002ce0       0x70 libmc300.a(socket_b.o)
 .debug_aranges
                0x00002d50       0x38 libmc300.a(socket_a.o)
 .debug_aranges
                0x00002d88       0x70 libmc300.a(at_socket_cmd.o)
 .debug_aranges
                0x00002df8       0x58 libmc300.a(socket_a_client)
 .debug_aranges
                0x00002e50      0x170 libmc300.a(atcmd.o)
 .debug_aranges
                0x00002fc0       0x40 libmc300.a(dhcp_process.o)
 .debug_aranges
                0x00003000       0x78 libmc300.a(dhcpc.o)
 .debug_aranges
                0x00003078       0x88 libmc300.a(dhcps.o)
 .debug_aranges
                0x00003100       0x50 libmc300.a(resolv.o)
 .debug_aranges
                0x00003150       0x48 libmc300.a(ringbuf.o)
 .debug_aranges
                0x00003198       0x40 libmc300.a(simple-udp.o)
 .debug_aranges
                0x000031d8       0xb0 libmc300.a(socket_driver.o)
 .debug_aranges
                0x00003288       0x48 libmc300.a(soft_ap_init.o)
 .debug_aranges
                0x000032d0       0xc0 libmc300.a(tcpip.o)
 .debug_aranges
                0x00003390       0x20 libmc300.a(uip-split.o)
 .debug_aranges
                0x000033b0       0x28 libmc300.a(uip-udp-packet.)
 .debug_aranges
                0x000033d8      0x118 libmc300.a(uip.o)
 .debug_aranges
                0x000034f0       0x88 libmc300.a(uip_arp.o)
 .debug_aranges
                0x00003578       0x28 libmc300.a(uip_igmp.o)
 .debug_aranges
                0x000035a0       0x20 libmc300.a(uiplib.o)
 .debug_aranges
                0x000035c0       0x30 libmc300.a(arc4.o)
 .debug_aranges
                0x000035f0       0xc0 libmc300.a(wep.o)
 .debug_aranges
                0x000036b0       0x28 libmc300.a(autostart.o)
 .debug_aranges
                0x000036d8       0x28 libmc300.a(random.o)
 .debug_aranges
                0x00003700       0x30 libmc300.a(airkiss.o)
 .debug_aranges
                0x00003730      0x168 libmc300.a(atcmd_icomm.o)
 .debug_aranges
                0x00003898       0x40 libmc300.a(bsp_info.o)
 .debug_aranges
                0x000038d8       0xe0 libmc300.a(cfs-coffee.o)
 .debug_aranges
                0x000039b8       0x30 libmc300.a(console.o)
 .debug_aranges
                0x000039e8       0xa8 libmc300.a(drv_flash.o)
 .debug_aranges
                0x00003a90       0x50 libmc300.a(drv_gpio.o)
 .debug_aranges
                0x00003ae0       0x40 libmc300.a(gpio_api.o)
 .debug_aranges
                0x00003b20       0x70 libmc300.a(drv_pmu.o)
 .debug_aranges
                0x00003b90       0x38 libmc300.a(pwm_api.o)
 .debug_aranges
                0x00003bc8       0x40 libmc300.a(serial_api.o)
 .debug_aranges
                0x00003c08       0x40 libmc300.a(drv_wdog.o)
 .debug_aranges
                0x00003c48       0x28 libmc300.a(fence.o)
 .debug_aranges
                0x00003c70       0x78 libmc300.a(flash_api.o)
 .debug_aranges
                0x00003ce8       0xb8 libmc300.a(smartComm.o)
 .debug_aranges
                0x00003da0       0x30 libmc300.a(smartConf.o)
 .debug_aranges
                0x00003dd0       0x50 libmc300.a(ssv_lib_slow.o)
 .debug_aranges
                0x00003e20       0xa0 libmc300.a(userSmart.o)
 .debug_aranges
                0x00003ec0       0x28 libmc300.a(drv_mbox.o)
 .debug_aranges
                0x00003ee8       0x40 libmc300.a(hash_alg.o)
 .debug_aranges
                0x00003f28       0x28 libmc300.a(hmac_md5.o)
 .debug_aranges
                0x00003f50       0x28 libmc300.a(hmac_sha1.o)
 .debug_aranges
                0x00003f78       0x88 libmc300.a(ieee80211_mac.o)
 .debug_aranges
                0x00004000       0x40 libmc300.a(ieee80211_net.o)
 .debug_aranges
                0x00004040       0x38 libmc300.a(sha1.o)
 .debug_aranges
                0x00004078       0x38 libmc300.a(ssv6200_tx.o)
 .debug_aranges
                0x000040b0       0x60 libmc300.a(sys_status_api.)
 .debug_aranges
                0x00004110       0x38 libmc300.a(shell-ping.o)
 .debug_aranges
                0x00004148       0x28 libmc300.a(drv_fence.o)
 .debug_aranges
                0x00004170       0x68 libmc300.a(drv_pwm.o)
 .debug_aranges
                0x000041d8       0x30 libmc300.a(EAPOL.o)
 .debug_aranges
                0x00004208      0x1b8 libcjsona.a(cJSON.o)

.debug_ranges   0x00000000     0x5118
 .debug_ranges  0x00000000       0x28 /tmp/ccsDtpxU.o
 .debug_ranges  0x00000028       0x28 main.o
 .debug_ranges  0x00000050       0x20 userapps.a(app_main.o)
 .debug_ranges  0x00000070      0x308 userapps.a(hm_system.o)
 .debug_ranges  0x00000378       0xf8 userapps.a(RCLutils.o)
 .debug_ranges  0x00000470       0x30 userapps.a(hm_app_main.o)
 .debug_ranges  0x000004a0       0x90 userapps.a(hm_uart.o)
 .debug_ranges  0x00000530      0x108 userapps.a(hm_uart_handle.)
 .debug_ranges  0x00000638      0x158 userapps.a(hm_connect_clou)
 .debug_ranges  0x00000790       0x38 userapps.a(hm_sub_devsend_)
 .debug_ranges  0x000007c8       0xd8 userapps.a(hm_bind_json_pr)
 .debug_ranges  0x000008a0       0x50 userapps.a(hm_dev_model.o)
 .debug_ranges  0x000008f0      0x130 userapps.a(hm_parameter.o)
 .debug_ranges  0x00000a20       0xf0 userapps.a(hm_link.o)
 .debug_ranges  0x00000b10       0x40 userapps.a(hm_wifi_frame.o)
 .debug_ranges  0x00000b50       0x18 userapps.a(hm_MD5_sum.o)
 .debug_ranges  0x00000b68       0x38 userapps.a(md5sum.o)
 .debug_ranges  0x00000ba0       0xd0 libmc300.a(etimer.o)
 .debug_ranges  0x00000c70       0xb8 libmc300.a(printf.o)
 .debug_ranges  0x00000d28       0x88 libmc300.a(process.o)
 .debug_ranges  0x00000db0       0x60 libmc300.a(strformat.o)
 .debug_ranges  0x00000e10       0x30 libmc300.a(timer.o)
 .debug_ranges  0x00000e40      0x1d0 libmc300.a(boot-hiflying.o)
 .debug_ranges  0x00001010       0x48 libmc300.a(clock.o)
 .debug_ranges  0x00001058       0x48 libmc300.a(contiki-main.o)
 .debug_ranges  0x000010a0       0x20 libmc300.a(debug-uart.o)
 .debug_ranges  0x000010c0       0x20 libmc300.a(drv_timer.o)
 .debug_ranges  0x000010e0       0xa0 libmc300.a(drv_uart.o)
 .debug_ranges  0x00001180       0x70 libmc300.a(hw_init.o)
 .debug_ranges  0x000011f0       0x20 libmc300.a(hw_regs_api.o)
 .debug_ranges  0x00001210       0x88 libmc300.a(ssv_lib.o)
 .debug_ranges  0x00001298       0x38 libmc300.a(swpwm.o)
 .debug_ranges  0x000012d0       0x80 libmc300.a(systemconf.o)
 .debug_ranges  0x00001350       0x80 libmc300.a(wdog_api.o)
 .debug_ranges  0x000013d0       0x48 libmc300.a(xmem.o)
 .debug_ranges  0x00001418       0x70 libmc300.a(bsp.o)
 .debug_ranges  0x00001488       0x48 libmc300.a(crypthw.o)
 .debug_ranges  0x000014d0      0x298 libmc300.a(dbg-atcmd-api.o)
 .debug_ranges  0x00001768       0xe8 libmc300.a(drv_mac.o)
 .debug_ranges  0x00001850      0x270 libmc300.a(drv_phy.o)
 .debug_ranges  0x00001ac0       0x60 libmc300.a(drv_pktbuf.o)
 .debug_ranges  0x00001b20       0x10 libmc300.a(drv_pktbuf_slow)
 .debug_ranges  0x00001b30      0x258 libmc300.a(ieee80211_mgmt.)
 .debug_ranges  0x00001d88       0x40 libmc300.a(ieee80211_rdc.o)
 .debug_ranges  0x00001dc8       0x60 libmc300.a(irq.o)
 .debug_ranges  0x00001e28       0x10 libmc300.a(netstack.o)
 .debug_ranges  0x00001e38       0x90 libmc300.a(powersave.o)
 .debug_ranges  0x00001ec8       0x38 libmc300.a(rate_control.o)
 .debug_ranges  0x00001f00      0x238 libmc300.a(soft_ap.o)
 .debug_ranges  0x00002138       0xa8 libmc300.a(ssv6200_rx.o)
 .debug_ranges  0x000021e0       0x80 libmc300.a(ssvradio.o)
 .debug_ranges  0x00002260       0xf8 libmc300.a(wpa.o)
 .debug_ranges  0x00002358       0x88 libmc300.a(aes.o)
 .debug_ranges  0x000023e0      0x1b0 libmc300.a(hfat.o)
 .debug_ranges  0x00002590      0x170 libmc300.a(at_wifi_cmd.o)
 .debug_ranges  0x00002700       0x68 libmc300.a(at_network_cmd.)
 .debug_ranges  0x00002768      0x108 libmc300.a(hfgpio.o)
 .debug_ranges  0x00002870       0x30 libmc300.a(hfdebug.o)
 .debug_ranges  0x000028a0       0x38 libmc300.a(hfuart.o)
 .debug_ranges  0x000028d8       0xd0 libmc300.a(hfsys.o)
 .debug_ranges  0x000029a8      0x110 libmc300.a(hfconfig.o)
 .debug_ranges  0x00002ab8       0x90 libmc300.a(hfflash.o)
 .debug_ranges  0x00002b48      0x208 libmc300.a(hfnet.o)
 .debug_ranges  0x00002d50       0x98 libmc300.a(uart_thread.o)
 .debug_ranges  0x00002de8       0xf0 libmc300.a(hfwifi.o)
 .debug_ranges  0x00002ed8      0x100 libmc300.a(hfupdate.o)
 .debug_ranges  0x00002fd8       0xa8 libmc300.a(httpclient.o)
 .debug_ranges  0x00003080      0x198 libmc300.a(hfsmtlk.o)
 .debug_ranges  0x00003218       0x90 libmc300.a(smartlinkV3.o)
 .debug_ranges  0x000032a8       0x50 libmc300.a(smartlinkV7.o)
 .debug_ranges  0x000032f8       0x78 libmc300.a(airkissv2.o)
 .debug_ranges  0x00003370       0x68 libmc300.a(assis_thread.o)
 .debug_ranges  0x000033d8       0x78 libmc300.a(hftimer.o)
 .debug_ranges  0x00003450       0x20 libmc300.a(at_fota.o)
 .debug_ranges  0x00003470       0xe0 libmc300.a(mc300_main.o)
 .debug_ranges  0x00003550       0x38 libmc300.a(hfsniffer.o)
 .debug_ranges  0x00003588       0xb0 libmc300.a(socket_b.o)
 .debug_ranges  0x00003638       0x40 libmc300.a(socket_a.o)
 .debug_ranges  0x00003678       0x60 libmc300.a(at_socket_cmd.o)
 .debug_ranges  0x000036d8       0xa8 libmc300.a(socket_a_client)
 .debug_ranges  0x00003780      0x1a8 libmc300.a(atcmd.o)
 .debug_ranges  0x00003928       0x48 libmc300.a(dhcp_process.o)
 .debug_ranges  0x00003970      0x1c8 libmc300.a(dhcpc.o)
 .debug_ranges  0x00003b38      0x200 libmc300.a(dhcps.o)
 .debug_ranges  0x00003d38       0xf0 libmc300.a(resolv.o)
 .debug_ranges  0x00003e28       0x38 libmc300.a(ringbuf.o)
 .debug_ranges  0x00003e60       0x90 libmc300.a(simple-udp.o)
 .debug_ranges  0x00003ef0       0xe8 libmc300.a(socket_driver.o)
 .debug_ranges  0x00003fd8       0x38 libmc300.a(soft_ap_init.o)
 .debug_ranges  0x00004010      0x108 libmc300.a(tcpip.o)
 .debug_ranges  0x00004118       0x10 libmc300.a(uip-split.o)
 .debug_ranges  0x00004128       0x18 libmc300.a(uip-udp-packet.)
 .debug_ranges  0x00004140      0x108 libmc300.a(uip.o)
 .debug_ranges  0x00004248       0xa8 libmc300.a(uip_arp.o)
 .debug_ranges  0x000042f0       0x18 libmc300.a(uip_igmp.o)
 .debug_ranges  0x00004308       0x10 libmc300.a(uiplib.o)
 .debug_ranges  0x00004318       0x50 libmc300.a(arc4.o)
 .debug_ranges  0x00004368       0xb0 libmc300.a(wep.o)
 .debug_ranges  0x00004418       0x18 libmc300.a(autostart.o)
 .debug_ranges  0x00004430       0x18 libmc300.a(random.o)
 .debug_ranges  0x00004448       0x20 libmc300.a(airkiss.o)
 .debug_ranges  0x00004468      0x158 libmc300.a(atcmd_icomm.o)
 .debug_ranges  0x000045c0       0x30 libmc300.a(bsp_info.o)
 .debug_ranges  0x000045f0      0x100 libmc300.a(cfs-coffee.o)
 .debug_ranges  0x000046f0       0x20 libmc300.a(console.o)
 .debug_ranges  0x00004710       0xc8 libmc300.a(drv_flash.o)
 .debug_ranges  0x000047d8       0x40 libmc300.a(drv_gpio.o)
 .debug_ranges  0x00004818       0x30 libmc300.a(gpio_api.o)
 .debug_ranges  0x00004848       0x60 libmc300.a(drv_pmu.o)
 .debug_ranges  0x000048a8       0x28 libmc300.a(pwm_api.o)
 .debug_ranges  0x000048d0       0x30 libmc300.a(serial_api.o)
 .debug_ranges  0x00004900       0x30 libmc300.a(drv_wdog.o)
 .debug_ranges  0x00004930       0x18 libmc300.a(fence.o)
 .debug_ranges  0x00004948       0x68 libmc300.a(flash_api.o)
 .debug_ranges  0x000049b0      0x128 libmc300.a(smartComm.o)
 .debug_ranges  0x00004ad8       0x20 libmc300.a(smartConf.o)
 .debug_ranges  0x00004af8       0x40 libmc300.a(ssv_lib_slow.o)
 .debug_ranges  0x00004b38       0x90 libmc300.a(userSmart.o)
 .debug_ranges  0x00004bc8       0x18 libmc300.a(drv_mbox.o)
 .debug_ranges  0x00004be0       0x30 libmc300.a(hash_alg.o)
 .debug_ranges  0x00004c10       0x18 libmc300.a(hmac_md5.o)
 .debug_ranges  0x00004c28       0x18 libmc300.a(hmac_sha1.o)
 .debug_ranges  0x00004c40       0xa0 libmc300.a(ieee80211_mac.o)
 .debug_ranges  0x00004ce0       0x30 libmc300.a(ieee80211_net.o)
 .debug_ranges  0x00004d10       0x28 libmc300.a(sha1.o)
 .debug_ranges  0x00004d38       0x48 libmc300.a(ssv6200_tx.o)
 .debug_ranges  0x00004d80       0x50 libmc300.a(sys_status_api.)
 .debug_ranges  0x00004dd0       0x40 libmc300.a(shell-ping.o)
 .debug_ranges  0x00004e10       0x18 libmc300.a(drv_fence.o)
 .debug_ranges  0x00004e28       0x58 libmc300.a(drv_pwm.o)
 .debug_ranges  0x00004e80       0x20 libmc300.a(EAPOL.o)
 .debug_ranges  0x00004ea0      0x278 libcjsona.a(cJSON.o)

.debug_loc      0x00000000    0x38505
 .debug_loc     0x00000000       0xb5 main.o
 .debug_loc     0x000000b5      0x13f userapps.a(app_main.o)
 .debug_loc     0x000001f4      0xe4a userapps.a(hm_system.o)
 .debug_loc     0x0000103e      0xd0a userapps.a(RCLutils.o)
 .debug_loc     0x00001d48      0x22e userapps.a(hm_app_main.o)
 .debug_loc     0x00001f76      0x1ce userapps.a(hm_uart.o)
 .debug_loc     0x00002144      0x7ac userapps.a(hm_uart_handle.)
 .debug_loc     0x000028f0      0x9db userapps.a(hm_connect_clou)
 .debug_loc     0x000032cb      0x4f3 userapps.a(hm_sub_devsend_)
 .debug_loc     0x000037be     0x11bb userapps.a(hm_bind_json_pr)
 .debug_loc     0x00004979      0x129 userapps.a(hm_dev_model.o)
 .debug_loc     0x00004aa2     0x14fd userapps.a(hm_parameter.o)
 .debug_loc     0x00005f9f      0x436 userapps.a(hm_link.o)
 .debug_loc     0x000063d5       0x33 userapps.a(hm_wifi_frame.o)
 .debug_loc     0x00006408      0x277 userapps.a(hm_MD5_sum.o)
 .debug_loc     0x0000667f      0xb96 userapps.a(md5sum.o)
 .debug_loc     0x00007215      0x45c libmc300.a(etimer.o)
 .debug_loc     0x00007671      0xb9b libmc300.a(printf.o)
 .debug_loc     0x0000820c      0x46a libmc300.a(process.o)
 .debug_loc     0x00008676      0xc69 libmc300.a(strformat.o)
 .debug_loc     0x000092df       0xc3 libmc300.a(timer.o)
 .debug_loc     0x000093a2     0x1719 libmc300.a(boot-hiflying.o)
 .debug_loc     0x0000aabb       0x49 libmc300.a(clock.o)
 .debug_loc     0x0000ab04       0xaf libmc300.a(contiki-main.o)
 .debug_loc     0x0000abb3      0x14d libmc300.a(debug-uart.o)
 .debug_loc     0x0000ad00      0x218 libmc300.a(drv_timer.o)
 .debug_loc     0x0000af18      0x2f5 libmc300.a(drv_uart.o)
 .debug_loc     0x0000b20d      0x531 libmc300.a(hw_init.o)
 .debug_loc     0x0000b73e       0xef libmc300.a(hw_regs_api.o)
 .debug_loc     0x0000b82d      0x9e1 libmc300.a(ssv_lib.o)
 .debug_loc     0x0000c20e      0x24f libmc300.a(swpwm.o)
 .debug_loc     0x0000c45d      0x554 libmc300.a(systemconf.o)
 .debug_loc     0x0000c9b1      0x1ba libmc300.a(wdog_api.o)
 .debug_loc     0x0000cb6b      0x3e8 libmc300.a(xmem.o)
 .debug_loc     0x0000cf53      0x1b9 libmc300.a(bsp.o)
 .debug_loc     0x0000d10c      0x5ad libmc300.a(crypthw.o)
 .debug_loc     0x0000d6b9     0x253a libmc300.a(dbg-atcmd-api.o)
 .debug_loc     0x0000fbf3      0x3e2 libmc300.a(drv_mac.o)
 .debug_loc     0x0000ffd5     0x1cbb libmc300.a(drv_phy.o)
 .debug_loc     0x00011c90      0x3d3 libmc300.a(drv_pktbuf.o)
 .debug_loc     0x00012063       0x75 libmc300.a(drv_pktbuf_slow)
 .debug_loc     0x000120d8     0x143a libmc300.a(ieee80211_mgmt.)
 .debug_loc     0x00013512       0xc6 libmc300.a(ieee80211_rdc.o)
 .debug_loc     0x000135d8      0x414 libmc300.a(irq.o)
 .debug_loc     0x000139ec      0x17a libmc300.a(powersave.o)
 .debug_loc     0x00013b66       0x93 libmc300.a(rate_control.o)
 .debug_loc     0x00013bf9     0x1c98 libmc300.a(soft_ap.o)
 .debug_loc     0x00015891      0x403 libmc300.a(ssv6200_rx.o)
 .debug_loc     0x00015c94      0x21d libmc300.a(ssvradio.o)
 .debug_loc     0x00015eb1     0x11b3 libmc300.a(wpa.o)
 .debug_loc     0x00017064     0x13dd libmc300.a(aes.o)
 .debug_loc     0x00018441     0x2ebb libmc300.a(hfat.o)
 .debug_loc     0x0001b2fc     0x1ce3 libmc300.a(at_wifi_cmd.o)
 .debug_loc     0x0001cfdf     0x115c libmc300.a(at_network_cmd.)
 .debug_loc     0x0001e13b      0x86a libmc300.a(hfgpio.o)
 .debug_loc     0x0001e9a5       0x81 libmc300.a(hfdebug.o)
 .debug_loc     0x0001ea26      0x1a0 libmc300.a(hfuart.o)
 .debug_loc     0x0001ebc6      0x533 libmc300.a(hfsys.o)
 .debug_loc     0x0001f0f9      0x829 libmc300.a(hfconfig.o)
 .debug_loc     0x0001f922      0xdbb libmc300.a(hfflash.o)
 .debug_loc     0x000206dd     0x163c libmc300.a(hfnet.o)
 .debug_loc     0x00021d19      0x62c libmc300.a(uart_thread.o)
 .debug_loc     0x00022345      0x6e8 libmc300.a(hfwifi.o)
 .debug_loc     0x00022a2d     0x11c3 libmc300.a(hfupdate.o)
 .debug_loc     0x00023bf0      0xc47 libmc300.a(httpclient.o)
 .debug_loc     0x00024837     0x174c libmc300.a(hfsmtlk.o)
 .debug_loc     0x00025f83      0xc86 libmc300.a(smartlinkV3.o)
 .debug_loc     0x00026c09      0x8b1 libmc300.a(smartlinkV7.o)
 .debug_loc     0x000274ba      0x313 libmc300.a(airkissv2.o)
 .debug_loc     0x000277cd      0x352 libmc300.a(assis_thread.o)
 .debug_loc     0x00027b1f      0x3c3 libmc300.a(hftimer.o)
 .debug_loc     0x00027ee2      0x4e8 libmc300.a(at_fota.o)
 .debug_loc     0x000283ca      0xc49 libmc300.a(mc300_main.o)
 .debug_loc     0x00029013       0xfb libmc300.a(hfsniffer.o)
 .debug_loc     0x0002910e      0x807 libmc300.a(socket_b.o)
 .debug_loc     0x00029915      0x434 libmc300.a(socket_a.o)
 .debug_loc     0x00029d49     0x1049 libmc300.a(at_socket_cmd.o)
 .debug_loc     0x0002ad92      0x725 libmc300.a(socket_a_client)
 .debug_loc     0x0002b4b7     0x1323 libmc300.a(atcmd.o)
 .debug_loc     0x0002c7da      0x106 libmc300.a(dhcp_process.o)
 .debug_loc     0x0002c8e0      0x61c libmc300.a(dhcpc.o)
 .debug_loc     0x0002cefc      0xd9c libmc300.a(dhcps.o)
 .debug_loc     0x0002dc98      0x739 libmc300.a(resolv.o)
 .debug_loc     0x0002e3d1      0x1a1 libmc300.a(ringbuf.o)
 .debug_loc     0x0002e572      0x340 libmc300.a(simple-udp.o)
 .debug_loc     0x0002e8b2      0x8f4 libmc300.a(socket_driver.o)
 .debug_loc     0x0002f1a6      0x31c libmc300.a(soft_ap_init.o)
 .debug_loc     0x0002f4c2      0x774 libmc300.a(tcpip.o)
 .debug_loc     0x0002fc36       0x22 libmc300.a(uip-split.o)
 .debug_loc     0x0002fc58       0xfc libmc300.a(uip-udp-packet.)
 .debug_loc     0x0002fd54      0x704 libmc300.a(uip.o)
 .debug_loc     0x00030458      0x4c1 libmc300.a(uip_arp.o)
 .debug_loc     0x00030919       0x1e libmc300.a(uip_igmp.o)
 .debug_loc     0x00030937      0x1a0 libmc300.a(uiplib.o)
 .debug_loc     0x00030ad7      0x24a libmc300.a(arc4.o)
 .debug_loc     0x00030d21      0x505 libmc300.a(wep.o)
 .debug_loc     0x00031226       0x6a libmc300.a(autostart.o)
 .debug_loc     0x00031290       0x21 libmc300.a(random.o)
 .debug_loc     0x000312b1      0xd96 libmc300.a(atcmd_icomm.o)
 .debug_loc     0x00032047      0x257 libmc300.a(bsp_info.o)
 .debug_loc     0x0003229e      0xd52 libmc300.a(cfs-coffee.o)
 .debug_loc     0x00032ff0       0x2c libmc300.a(console.o)
 .debug_loc     0x0003301c      0x447 libmc300.a(drv_flash.o)
 .debug_loc     0x00033463      0x2c4 libmc300.a(drv_gpio.o)
 .debug_loc     0x00033727      0x27c libmc300.a(gpio_api.o)
 .debug_loc     0x000339a3      0x124 libmc300.a(drv_pmu.o)
 .debug_loc     0x00033ac7       0xb0 libmc300.a(pwm_api.o)
 .debug_loc     0x00033b77       0x78 libmc300.a(serial_api.o)
 .debug_loc     0x00033bef       0x21 libmc300.a(fence.o)
 .debug_loc     0x00033c10      0x5e2 libmc300.a(flash_api.o)
 .debug_loc     0x000341f2      0x29a libmc300.a(smartComm.o)
 .debug_loc     0x0003448c      0x1ab libmc300.a(ssv_lib_slow.o)
 .debug_loc     0x00034637      0x324 libmc300.a(userSmart.o)
 .debug_loc     0x0003495b       0x42 libmc300.a(drv_mbox.o)
 .debug_loc     0x0003499d      0x4d4 libmc300.a(hash_alg.o)
 .debug_loc     0x00034e71       0xf1 libmc300.a(hmac_md5.o)
 .debug_loc     0x00034f62      0x15a libmc300.a(hmac_sha1.o)
 .debug_loc     0x000350bc      0x30b libmc300.a(ieee80211_mac.o)
 .debug_loc     0x000353c7      0x119 libmc300.a(ieee80211_net.o)
 .debug_loc     0x000354e0       0xbd libmc300.a(sha1.o)
 .debug_loc     0x0003559d      0x2b6 libmc300.a(ssv6200_tx.o)
 .debug_loc     0x00035853      0x19a libmc300.a(sys_status_api.)
 .debug_loc     0x000359ed      0x151 libmc300.a(shell-ping.o)
 .debug_loc     0x00035b3e       0x58 libmc300.a(drv_fence.o)
 .debug_loc     0x00035b96      0x11e libmc300.a(drv_pwm.o)
 .debug_loc     0x00035cb4      0x1fe libmc300.a(EAPOL.o)
 .debug_loc     0x00035eb2     0x2653 libcjsona.a(cJSON.o)

.debug_str      0x00000000    0x13f9b
 .debug_str     0x00000000      0x2c1 main.o
                                0x378 (size before relaxing)
 .debug_str     0x000002c1      0x5a9 userapps.a(app_main.o)
                                0x8a4 (size before relaxing)
 .debug_str     0x0000086a      0xb24 userapps.a(hm_system.o)
                               0x12f8 (size before relaxing)
 .debug_str     0x0000138e      0x3c2 userapps.a(RCLutils.o)
                                0x73b (size before relaxing)
 .debug_str     0x00001750      0x181 userapps.a(hm_app_main.o)
                                0xbe7 (size before relaxing)
 .debug_str     0x000018d1      0x344 userapps.a(hm_uart.o)
                                0x6f7 (size before relaxing)
 .debug_str     0x00001c15      0x3c8 userapps.a(hm_uart_handle.)
                               0x1072 (size before relaxing)
 .debug_str     0x00001fdd      0x699 userapps.a(hm_connect_clou)
                               0x11b3 (size before relaxing)
 .debug_str     0x00002676       0xc6 userapps.a(hm_sub_devsend_)
                                0x647 (size before relaxing)
 .debug_str     0x0000273c      0x391 userapps.a(hm_bind_json_pr)
                                0xfa2 (size before relaxing)
 .debug_str     0x00002acd       0xe4 userapps.a(hm_dev_model.o)
                                0x4d1 (size before relaxing)
 .debug_str     0x00002bb1      0x41d userapps.a(hm_parameter.o)
                                0x8c9 (size before relaxing)
 .debug_str     0x00002fce      0x22d userapps.a(hm_link.o)
                                0x8fa (size before relaxing)
 .debug_str     0x000031fb       0x5e userapps.a(hm_wifi_frame.o)
                                0x370 (size before relaxing)
 .debug_str     0x00003259       0x96 userapps.a(hm_MD5_sum.o)
                                0x390 (size before relaxing)
 .debug_str     0x000032ef       0x5b userapps.a(md5sum.o)
                                0x351 (size before relaxing)
 .debug_str     0x0000334a      0x17d libmc300.a(etimer.o)
                                0x4df (size before relaxing)
 .debug_str     0x000034c7      0x344 libmc300.a(printf.o)
                                0x579 (size before relaxing)
 .debug_str     0x0000380b      0x135 libmc300.a(process.o)
                                0x458 (size before relaxing)
 .debug_str     0x00003940       0xe1 libmc300.a(strformat.o)
                                0x2d1 (size before relaxing)
 .debug_str     0x00003a21       0x1b libmc300.a(timer.o)
                                0x1f8 (size before relaxing)
 .debug_str     0x00003a3c      0xa12 libmc300.a(boot-hiflying.o)
                                0xd58 (size before relaxing)
 .debug_str     0x0000444e      0x774 libmc300.a(clock.o)
                                0xbfb (size before relaxing)
 .debug_str     0x00004bc2      0x1cd libmc300.a(contiki-main.o)
                                0x901 (size before relaxing)
 .debug_str     0x00004d8f       0x71 libmc300.a(debug-uart.o)
                                0x227 (size before relaxing)
 .debug_str     0x00004e00       0x49 libmc300.a(drv_timer.o)
                                0x259 (size before relaxing)
 .debug_str     0x00004e49      0x19e libmc300.a(drv_uart.o)
                                0x69b (size before relaxing)
 .debug_str     0x00004fe7      0x865 libmc300.a(hw_init.o)
                               0x13c7 (size before relaxing)
 .debug_str     0x0000584c       0x17 libmc300.a(hw_regs_api.o)
                                0x1c6 (size before relaxing)
 .debug_str     0x00005863       0xb0 libmc300.a(ssv_lib.o)
                                0x2a9 (size before relaxing)
 .debug_str     0x00005913      0x16a libmc300.a(swpwm.o)
                                0x370 (size before relaxing)
 .debug_str     0x00005a7d      0x458 libmc300.a(systemconf.o)
                                0xfdd (size before relaxing)
 .debug_str     0x00005ed5      0x1b0 libmc300.a(wdog_api.o)
                                0x606 (size before relaxing)
 .debug_str     0x00006085      0x199 libmc300.a(xmem.o)
                                0x4cf (size before relaxing)
 .debug_str     0x0000621e      0x1f3 libmc300.a(bsp.o)
                                0x5b4 (size before relaxing)
 .debug_str     0x00006411      0x247 libmc300.a(crypthw.o)
                                0x54d (size before relaxing)
 .debug_str     0x00006658      0x9f6 libmc300.a(dbg-atcmd-api.o)
                               0x1ad8 (size before relaxing)
 .debug_str     0x0000704e      0x1af libmc300.a(drv_mac.o)
                                0x381 (size before relaxing)
 .debug_str     0x000071fd      0xd71 libmc300.a(drv_phy.o)
                               0x11fa (size before relaxing)
 .debug_str     0x00007f6e      0x1d4 libmc300.a(drv_pktbuf.o)
                                0x632 (size before relaxing)
 .debug_str     0x00008142       0x23 libmc300.a(drv_pktbuf_slow)
                                0x346 (size before relaxing)
 .debug_str     0x00008165     0x21b3 libmc300.a(ieee80211_mgmt.)
                               0x3587 (size before relaxing)
 .debug_str     0x0000a318       0x55 libmc300.a(ieee80211_rdc.o)
                                0x4e0 (size before relaxing)
 .debug_str     0x0000a36d      0x1b9 libmc300.a(irq.o)
                                0x3e7 (size before relaxing)
 .debug_str     0x0000a526       0x2d libmc300.a(netstack.o)
                                0x256 (size before relaxing)
 .debug_str     0x0000a553      0x191 libmc300.a(powersave.o)
                               0x18c0 (size before relaxing)
 .debug_str     0x0000a6e4       0xc0 libmc300.a(rate_control.o)
                                0xc7d (size before relaxing)
 .debug_str     0x0000a7a4      0xb27 libmc300.a(soft_ap.o)
                               0x292b (size before relaxing)
 .debug_str     0x0000b2cb      0x215 libmc300.a(ssv6200_rx.o)
                               0x113f (size before relaxing)
 .debug_str     0x0000b4e0      0x1f9 libmc300.a(ssvradio.o)
                               0x103e (size before relaxing)
 .debug_str     0x0000b6d9      0x283 libmc300.a(wpa.o)
                               0x1ce0 (size before relaxing)
 .debug_str     0x0000b95c       0xd5 libmc300.a(aes.o)
                                0x2ab (size before relaxing)
 .debug_str     0x0000ba31      0xdf8 libmc300.a(hfat.o)
                               0x1529 (size before relaxing)
 .debug_str     0x0000c829      0x45a libmc300.a(at_wifi_cmd.o)
                               0x15e8 (size before relaxing)
 .debug_str     0x0000cc83      0x1e1 libmc300.a(at_network_cmd.)
                               0x1252 (size before relaxing)
 .debug_str     0x0000ce64      0x53e libmc300.a(hfgpio.o)
                               0x10b9 (size before relaxing)
 .debug_str     0x0000d3a2       0x32 libmc300.a(hfdebug.o)
                                0x804 (size before relaxing)
 .debug_str     0x0000d3d4      0x267 libmc300.a(hfuart.o)
                                0x847 (size before relaxing)
 .debug_str     0x0000d63b      0x1e5 libmc300.a(hfsys.o)
                                0xa68 (size before relaxing)
 .debug_str     0x0000d820      0x43f libmc300.a(hfconfig.o)
                               0x1bd0 (size before relaxing)
 .debug_str     0x0000dc5f      0x110 libmc300.a(hfflash.o)
                                0x6cf (size before relaxing)
 .debug_str     0x0000dd6f      0x648 libmc300.a(hfnet.o)
                               0x12a0 (size before relaxing)
 .debug_str     0x0000e3b7      0x264 libmc300.a(uart_thread.o)
                               0x159d (size before relaxing)
 .debug_str     0x0000e61b      0x2c6 libmc300.a(hfwifi.o)
                               0x15cf (size before relaxing)
 .debug_str     0x0000e8e1      0x5f1 libmc300.a(hfupdate.o)
                               0x1e53 (size before relaxing)
 .debug_str     0x0000eed2      0x2f5 libmc300.a(httpclient.o)
                                0xc38 (size before relaxing)
 .debug_str     0x0000f1c7      0x9aa libmc300.a(hfsmtlk.o)
                               0x2060 (size before relaxing)
 .debug_str     0x0000fb71      0x250 libmc300.a(smartlinkV3.o)
                                0x932 (size before relaxing)
 .debug_str     0x0000fdc1      0x17e libmc300.a(smartlinkV7.o)
                                0xe9a (size before relaxing)
 .debug_str     0x0000ff3f      0x2ee libmc300.a(airkissv2.o)
                                0xb2a (size before relaxing)
 .debug_str     0x0001022d      0x13a libmc300.a(assis_thread.o)
                                0xca9 (size before relaxing)
 .debug_str     0x00010367      0x13b libmc300.a(hftimer.o)
                                0x633 (size before relaxing)
 .debug_str     0x000104a2       0x63 libmc300.a(at_fota.o)
                                0xa6b (size before relaxing)
 .debug_str     0x00010505      0x1ee libmc300.a(mc300_main.o)
                               0x1f2d (size before relaxing)
 .debug_str     0x000106f3       0x90 libmc300.a(hfsniffer.o)
                                0xccf (size before relaxing)
 .debug_str     0x00010783      0x16d libmc300.a(socket_b.o)
                               0x14b6 (size before relaxing)
 .debug_str     0x000108f0      0x15b libmc300.a(socket_a.o)
                                0xd35 (size before relaxing)
 .debug_str     0x00010a4b       0xfa libmc300.a(at_socket_cmd.o)
                                0xaad (size before relaxing)
 .debug_str     0x00010b45       0xf6 libmc300.a(socket_a_client)
                               0x1535 (size before relaxing)
 .debug_str     0x00010c3b      0x709 libmc300.a(atcmd.o)
                               0x1d63 (size before relaxing)
 .debug_str     0x00011344      0x105 libmc300.a(dhcp_process.o)
                                0xf03 (size before relaxing)
 .debug_str     0x00011449      0x200 libmc300.a(dhcpc.o)
                               0x171c (size before relaxing)
 .debug_str     0x00011649      0x14f libmc300.a(dhcps.o)
                                0x9df (size before relaxing)
 .debug_str     0x00011798      0x254 libmc300.a(resolv.o)
                                0x7c5 (size before relaxing)
 .debug_str     0x000119ec       0x2b libmc300.a(ringbuf.o)
                                0x22b (size before relaxing)
 .debug_str     0x00011a17       0xb5 libmc300.a(simple-udp.o)
                                0x60e (size before relaxing)
 .debug_str     0x00011acc      0x1b4 libmc300.a(socket_driver.o)
                                0x888 (size before relaxing)
 .debug_str     0x00011c80       0xfc libmc300.a(soft_ap_init.o)
                               0x12a0 (size before relaxing)
 .debug_str     0x00011d7c      0x24e libmc300.a(tcpip.o)
                                0xae6 (size before relaxing)
 .debug_str     0x00011fca       0x42 libmc300.a(uip-split.o)
                                0x3c5 (size before relaxing)
 .debug_str     0x0001200c       0x38 libmc300.a(uip-udp-packet.)
                                0x47f (size before relaxing)
 .debug_str     0x00012044      0x288 libmc300.a(uip.o)
                                0xa87 (size before relaxing)
 .debug_str     0x000122cc      0x1a8 libmc300.a(uip_arp.o)
                                0x6f8 (size before relaxing)
 .debug_str     0x00012474       0x47 libmc300.a(uip_igmp.o)
                                0x4d9 (size before relaxing)
 .debug_str     0x000124bb       0x1b libmc300.a(uiplib.o)
                                0x2d3 (size before relaxing)
 .debug_str     0x000124d6       0x4b libmc300.a(arc4.o)
                                0x1ec (size before relaxing)
 .debug_str     0x00012521      0x10e libmc300.a(wep.o)
                               0x1801 (size before relaxing)
 .debug_str     0x0001262f       0x1e libmc300.a(autostart.o)
                                0x307 (size before relaxing)
 .debug_str     0x0001264d        0xc libmc300.a(random.o)
                                0x1ad (size before relaxing)
 .debug_str     0x00012659       0x26 libmc300.a(airkiss.o)
                                0x3eb (size before relaxing)
 .debug_str     0x0001267f      0x125 libmc300.a(atcmd_icomm.o)
                               0x15b2 (size before relaxing)
 .debug_str     0x000127a4      0x158 libmc300.a(bsp_info.o)
                                0xe31 (size before relaxing)
 .debug_str     0x000128fc      0x396 libmc300.a(cfs-coffee.o)
                                0x7df (size before relaxing)
 .debug_str     0x00012c92       0x53 libmc300.a(console.o)
                                0x4ee (size before relaxing)
 .debug_str     0x00012ce5      0x1a4 libmc300.a(drv_flash.o)
                                0x638 (size before relaxing)
 .debug_str     0x00012e89       0x8d libmc300.a(drv_gpio.o)
                                0x30f (size before relaxing)
 .debug_str     0x00012f16       0x40 libmc300.a(gpio_api.o)
                                0x384 (size before relaxing)
 .debug_str     0x00012f56       0xbb libmc300.a(drv_pmu.o)
                                0xd0b (size before relaxing)
 .debug_str     0x00013011       0xa0 libmc300.a(pwm_api.o)
                                0x243 (size before relaxing)
 .debug_str     0x000130b1       0x42 libmc300.a(serial_api.o)
                                0x426 (size before relaxing)
 .debug_str     0x000130f3       0x14 libmc300.a(drv_wdog.o)
                                0x200 (size before relaxing)
 .debug_str     0x00013107       0x4c libmc300.a(fence.o)
                                0x1f4 (size before relaxing)
 .debug_str     0x00013153       0x80 libmc300.a(flash_api.o)
                                0x5f6 (size before relaxing)
 .debug_str     0x000131d3      0x1cb libmc300.a(smartComm.o)
                               0x1097 (size before relaxing)
 .debug_str     0x0001339e       0x2a libmc300.a(smartConf.o)
                                0x3f3 (size before relaxing)
 .debug_str     0x000133c8       0x50 libmc300.a(ssv_lib_slow.o)
                                0x22a (size before relaxing)
 .debug_str     0x00013418       0xdf libmc300.a(userSmart.o)
                                0xe04 (size before relaxing)
 .debug_str     0x000134f7       0x38 libmc300.a(drv_mbox.o)
                                0x22b (size before relaxing)
 .debug_str     0x0001352f       0xc5 libmc300.a(hash_alg.o)
                                0x2db (size before relaxing)
 .debug_str     0x000135f4       0x1b libmc300.a(hmac_md5.o)
                                0x258 (size before relaxing)
 .debug_str     0x0001360f       0xa6 libmc300.a(hmac_sha1.o)
                                0x2c0 (size before relaxing)
 .debug_str     0x000136b5       0xb1 libmc300.a(ieee80211_mac.o)
                               0x10b1 (size before relaxing)
 .debug_str     0x00013766       0x45 libmc300.a(ieee80211_net.o)
                                0xea2 (size before relaxing)
 .debug_str     0x000137ab       0x1d libmc300.a(sha1.o)
                                0x25d (size before relaxing)
 .debug_str     0x000137c8      0x136 libmc300.a(ssv6200_tx.o)
                                0xfed (size before relaxing)
 .debug_str     0x000138fe       0x92 libmc300.a(sys_status_api.)
                                0xb74 (size before relaxing)
 .debug_str     0x00013990       0x98 libmc300.a(shell-ping.o)
                                0x518 (size before relaxing)
 .debug_str     0x00013a28       0x22 libmc300.a(drv_fence.o)
                                0x1e6 (size before relaxing)
 .debug_str     0x00013a4a       0x66 libmc300.a(drv_pwm.o)
                                0x264 (size before relaxing)
 .debug_str     0x00013ab0       0x4a libmc300.a(EAPOL.o)
                                0xed9 (size before relaxing)
 .debug_str     0x00013afa      0x4a1 libcjsona.a(cJSON.o)
                                0x7c3 (size before relaxing)

.comment        0x00000000       0xe0
 .comment       0x00000000       0x70 main.o
                                 0x71 (size before relaxing)
 .comment       0x00000000       0x71 userapps.a(app_main.o)
 .comment       0x00000000       0x71 userapps.a(hm_system.o)
 .comment       0x00000000       0x71 userapps.a(RCLutils.o)
 .comment       0x00000000       0x71 userapps.a(hm_app_main.o)
 .comment       0x00000000       0x71 userapps.a(hm_uart.o)
 .comment       0x00000000       0x71 userapps.a(hm_uart_handle.)
 .comment       0x00000000       0x71 userapps.a(hm_connect_clou)
 .comment       0x00000000       0x71 userapps.a(hm_sub_devsend_)
 .comment       0x00000000       0x71 userapps.a(hm_bind_json_pr)
 .comment       0x00000000       0x71 userapps.a(hm_dev_model.o)
 .comment       0x00000000       0x71 userapps.a(hm_parameter.o)
 .comment       0x00000000       0x71 userapps.a(hm_link.o)
 .comment       0x00000000       0x71 userapps.a(hm_wifi_frame.o)
 .comment       0x00000000       0x71 userapps.a(hm_MD5_sum.o)
 .comment       0x00000000       0x71 userapps.a(md5sum.o)
 .comment       0x00000000       0x71 libmc300.a(etimer.o)
 .comment       0x00000000       0x71 libmc300.a(printf.o)
 .comment       0x00000000       0x71 libmc300.a(process.o)
 .comment       0x00000000       0x71 libmc300.a(strformat.o)
 .comment       0x00000000       0x71 libmc300.a(timer.o)
 .comment       0x00000000       0x71 libmc300.a(boot-hiflying.o)
 .comment       0x00000000       0x71 libmc300.a(clock.o)
 .comment       0x00000000       0x71 libmc300.a(contiki-main.o)
 .comment       0x00000000       0x71 libmc300.a(debug-uart.o)
 .comment       0x00000000       0x71 libmc300.a(drv_timer.o)
 .comment       0x00000000       0x71 libmc300.a(drv_uart.o)
 .comment       0x00000000       0x71 libmc300.a(hw_init.o)
 .comment       0x00000000       0x71 libmc300.a(hw_regs_api.o)
 .comment       0x00000000       0x71 libmc300.a(ssv_lib.o)
 .comment       0x00000000       0x71 libmc300.a(swpwm.o)
 .comment       0x00000000       0x71 libmc300.a(systemconf.o)
 .comment       0x00000000       0x71 libmc300.a(wdog_api.o)
 .comment       0x00000000       0x71 libmc300.a(xmem.o)
 .comment       0x00000000       0x71 libmc300.a(bsp.o)
 .comment       0x00000000       0x71 libmc300.a(crypthw.o)
 .comment       0x00000000       0x71 libmc300.a(dbg-atcmd-api.o)
 .comment       0x00000000       0x71 libmc300.a(drv_mac.o)
 .comment       0x00000000       0x71 libmc300.a(drv_phy.o)
 .comment       0x00000000       0x71 libmc300.a(drv_pktbuf.o)
 .comment       0x00000000       0x71 libmc300.a(drv_pktbuf_slow)
 .comment       0x00000000       0x71 libmc300.a(ieee80211_mgmt.)
 .comment       0x00000000       0x71 libmc300.a(ieee80211_rdc.o)
 .comment       0x00000000       0x71 libmc300.a(irq.o)
 .comment       0x00000000       0x71 libmc300.a(netstack.o)
 .comment       0x00000000       0x71 libmc300.a(powersave.o)
 .comment       0x00000000       0x71 libmc300.a(rate_control.o)
 .comment       0x00000000       0x71 libmc300.a(soft_ap.o)
 .comment       0x00000000       0x71 libmc300.a(ssv6200_rx.o)
 .comment       0x00000000       0x71 libmc300.a(ssvradio.o)
 .comment       0x00000000       0x71 libmc300.a(wpa.o)
 .comment       0x00000000       0x71 libmc300.a(aes.o)
 .comment       0x00000000       0x71 libmc300.a(hfat.o)
 .comment       0x00000000       0x71 libmc300.a(at_wifi_cmd.o)
 .comment       0x00000000       0x71 libmc300.a(at_network_cmd.)
 .comment       0x00000000       0x71 libmc300.a(hfgpio.o)
 .comment       0x00000000       0x71 libmc300.a(hfdebug.o)
 .comment       0x00000000       0x71 libmc300.a(hfuart.o)
 .comment       0x00000000       0x71 libmc300.a(hfsys.o)
 .comment       0x00000000       0x71 libmc300.a(hfconfig.o)
 .comment       0x00000000       0x71 libmc300.a(hfflash.o)
 .comment       0x00000000       0x71 libmc300.a(hfnet.o)
 .comment       0x00000000       0x71 libmc300.a(uart_thread.o)
 .comment       0x00000000       0x71 libmc300.a(hfwifi.o)
 .comment       0x00000000       0x71 libmc300.a(hfupdate.o)
 .comment       0x00000000       0x71 libmc300.a(httpclient.o)
 .comment       0x00000000       0x71 libmc300.a(hfsmtlk.o)
 .comment       0x00000000       0x71 libmc300.a(smartlinkV3.o)
 .comment       0x00000000       0x71 libmc300.a(smartlinkV7.o)
 .comment       0x00000000       0x71 libmc300.a(airkissv2.o)
 .comment       0x00000000       0x71 libmc300.a(assis_thread.o)
 .comment       0x00000000       0x71 libmc300.a(hftimer.o)
 .comment       0x00000000       0x71 libmc300.a(at_fota.o)
 .comment       0x00000000       0x71 libmc300.a(mc300_main.o)
 .comment       0x00000000       0x71 libmc300.a(hfsniffer.o)
 .comment       0x00000000       0x71 libmc300.a(socket_b.o)
 .comment       0x00000000       0x71 libmc300.a(socket_a.o)
 .comment       0x00000000       0x71 libmc300.a(at_socket_cmd.o)
 .comment       0x00000000       0x71 libmc300.a(socket_a_client)
 .comment       0x00000000       0x71 libmc300.a(atcmd.o)
 .comment       0x00000000       0x71 libmc300.a(dhcp_process.o)
 .comment       0x00000000       0x71 libmc300.a(dhcpc.o)
 .comment       0x00000000       0x71 libmc300.a(dhcps.o)
 .comment       0x00000000       0x71 libmc300.a(resolv.o)
 .comment       0x00000000       0x71 libmc300.a(ringbuf.o)
 .comment       0x00000000       0x71 libmc300.a(simple-udp.o)
 .comment       0x00000000       0x71 libmc300.a(socket_driver.o)
 .comment       0x00000000       0x71 libmc300.a(soft_ap_init.o)
 .comment       0x00000000       0x71 libmc300.a(tcpip.o)
 .comment       0x00000000       0x71 libmc300.a(uip-split.o)
 .comment       0x00000000       0x71 libmc300.a(uip-udp-packet.)
 .comment       0x00000000       0x71 libmc300.a(uip.o)
 .comment       0x00000000       0x71 libmc300.a(uip_arp.o)
 .comment       0x00000000       0x71 libmc300.a(uip_igmp.o)
 .comment       0x00000000       0x71 libmc300.a(uiplib.o)
 .comment       0x00000000       0x71 libmc300.a(arc4.o)
 .comment       0x00000000       0x71 libmc300.a(wep.o)
 .comment       0x00000000       0x71 libmc300.a(autostart.o)
 .comment       0x00000000       0x71 libmc300.a(random.o)
 .comment       0x00000000       0x71 libmc300.a(airkiss.o)
 .comment       0x00000000       0x71 libmc300.a(atcmd_icomm.o)
 .comment       0x00000000       0x71 libmc300.a(bsp_info.o)
 .comment       0x00000000       0x71 libmc300.a(cfs-coffee.o)
 .comment       0x00000000       0x71 libmc300.a(console.o)
 .comment       0x00000000       0x71 libmc300.a(drv_flash.o)
 .comment       0x00000000       0x71 libmc300.a(drv_gpio.o)
 .comment       0x00000000       0x71 libmc300.a(gpio_api.o)
 .comment       0x00000000       0x71 libmc300.a(drv_pmu.o)
 .comment       0x00000000       0x71 libmc300.a(pwm_api.o)
 .comment       0x00000000       0x71 libmc300.a(serial_api.o)
 .comment       0x00000000       0x71 libmc300.a(drv_wdog.o)
 .comment       0x00000000       0x71 libmc300.a(fence.o)
 .comment       0x00000000       0x71 libmc300.a(flash_api.o)
 .comment       0x00000000       0x71 libmc300.a(smartComm.o)
 .comment       0x00000000       0x71 libmc300.a(smartConf.o)
 .comment       0x00000000       0x71 libmc300.a(ssv_lib_slow.o)
 .comment       0x00000000       0x71 libmc300.a(userSmart.o)
 .comment       0x00000000       0x71 libmc300.a(drv_mbox.o)
 .comment       0x00000000       0x71 libmc300.a(hash_alg.o)
 .comment       0x00000000       0x71 libmc300.a(hmac_md5.o)
 .comment       0x00000000       0x71 libmc300.a(hmac_sha1.o)
 .comment       0x00000000       0x71 libmc300.a(ieee80211_mac.o)
 .comment       0x00000000       0x71 libmc300.a(ieee80211_net.o)
 .comment       0x00000000       0x71 libmc300.a(sha1.o)
 .comment       0x00000000       0x71 libmc300.a(ssv6200_tx.o)
 .comment       0x00000000       0x71 libmc300.a(sys_status_api.)
 .comment       0x00000000       0x71 libmc300.a(shell-ping.o)
 .comment       0x00000000       0x71 libmc300.a(drv_fence.o)
 .comment       0x00000000       0x71 libmc300.a(drv_pwm.o)
 .comment       0x00000000       0x71 libmc300.a(EAPOL.o)
 .comment       0x00000000       0x71 libcjsona.a(cJSON.o)
 .comment       0x00000070       0x70 ./thirdpartylib/libairkiss.a(airkiss.o)
                                 0x71 (size before relaxing)
 .comment       0x00000000       0x71 ./thirdpartylib/libairkiss.a(airlink.o)

.debug_frame    0x00000000     0xc540
 .debug_frame   0x00000000       0x2c main.o
 .debug_frame   0x0000002c       0x54 userapps.a(app_main.o)
 .debug_frame   0x00000080      0x6c8 userapps.a(hm_system.o)
 .debug_frame   0x00000748      0x28c userapps.a(RCLutils.o)
 .debug_frame   0x000009d4       0x44 userapps.a(hm_app_main.o)
 .debug_frame   0x00000a18       0xd0 userapps.a(hm_uart.o)
 .debug_frame   0x00000ae8      0x178 userapps.a(hm_uart_handle.)
 .debug_frame   0x00000c60      0x1fc userapps.a(hm_connect_clou)
 .debug_frame   0x00000e5c       0x80 userapps.a(hm_sub_devsend_)
 .debug_frame   0x00000edc      0x224 userapps.a(hm_bind_json_pr)
 .debug_frame   0x00001100       0x78 userapps.a(hm_dev_model.o)
 .debug_frame   0x00001178      0x284 userapps.a(hm_parameter.o)
 .debug_frame   0x000013fc      0x14c userapps.a(hm_link.o)
 .debug_frame   0x00001548       0x64 userapps.a(hm_wifi_frame.o)
 .debug_frame   0x000015ac       0x58 userapps.a(hm_MD5_sum.o)
 .debug_frame   0x00001604       0xb8 userapps.a(md5sum.o)
 .debug_frame   0x000016bc      0x180 libmc300.a(etimer.o)
 .debug_frame   0x0000183c      0x230 libmc300.a(printf.o)
 .debug_frame   0x00001a6c      0x198 libmc300.a(process.o)
 .debug_frame   0x00001c04       0x78 libmc300.a(strformat.o)
 .debug_frame   0x00001c7c       0x90 libmc300.a(timer.o)
 .debug_frame   0x00001d0c      0x33c libmc300.a(boot-hiflying.o)
 .debug_frame   0x00002048       0xbc libmc300.a(clock.o)
 .debug_frame   0x00002104       0xbc libmc300.a(contiki-main.o)
 .debug_frame   0x000021c0       0x64 libmc300.a(debug-uart.o)
 .debug_frame   0x00002224       0x40 libmc300.a(drv_timer.o)
 .debug_frame   0x00002264      0x15c libmc300.a(drv_uart.o)
 .debug_frame   0x000023c0      0x108 libmc300.a(hw_init.o)
 .debug_frame   0x000024c8       0x40 libmc300.a(hw_regs_api.o)
 .debug_frame   0x00002508      0x164 libmc300.a(ssv_lib.o)
 .debug_frame   0x0000266c       0xb8 libmc300.a(swpwm.o)
 .debug_frame   0x00002724      0x190 libmc300.a(systemconf.o)
 .debug_frame   0x000028b4       0xc0 libmc300.a(wdog_api.o)
 .debug_frame   0x00002974       0xe4 libmc300.a(xmem.o)
 .debug_frame   0x00002a58      0x104 libmc300.a(bsp.o)
 .debug_frame   0x00002b5c       0xe0 libmc300.a(crypthw.o)
 .debug_frame   0x00002c3c      0x524 libmc300.a(dbg-atcmd-api.o)
 .debug_frame   0x00003160      0x358 libmc300.a(drv_mac.o)
 .debug_frame   0x000034b8      0x68c libmc300.a(drv_phy.o)
 .debug_frame   0x00003b44      0x138 libmc300.a(drv_pktbuf.o)
 .debug_frame   0x00003c7c       0x30 libmc300.a(drv_pktbuf_slow)
 .debug_frame   0x00003cac      0x604 libmc300.a(ieee80211_mgmt.)
 .debug_frame   0x000042b0       0xa0 libmc300.a(ieee80211_rdc.o)
 .debug_frame   0x00004350      0x124 libmc300.a(irq.o)
 .debug_frame   0x00004474       0x28 libmc300.a(netstack.o)
 .debug_frame   0x0000449c      0x110 libmc300.a(powersave.o)
 .debug_frame   0x000045ac       0x94 libmc300.a(rate_control.o)
 .debug_frame   0x00004640      0x694 libmc300.a(soft_ap.o)
 .debug_frame   0x00004cd4      0x128 libmc300.a(ssv6200_rx.o)
 .debug_frame   0x00004dfc      0x114 libmc300.a(ssvradio.o)
 .debug_frame   0x00004f10      0x30c libmc300.a(wpa.o)
 .debug_frame   0x0000521c      0x1a0 libmc300.a(aes.o)
 .debug_frame   0x000053bc      0x51c libmc300.a(hfat.o)
 .debug_frame   0x000058d8      0x228 libmc300.a(at_wifi_cmd.o)
 .debug_frame   0x00005b00      0x148 libmc300.a(at_network_cmd.)
 .debug_frame   0x00005c48      0x214 libmc300.a(hfgpio.o)
 .debug_frame   0x00005e5c       0x78 libmc300.a(hfdebug.o)
 .debug_frame   0x00005ed4       0x80 libmc300.a(hfuart.o)
 .debug_frame   0x00005f54      0x228 libmc300.a(hfsys.o)
 .debug_frame   0x0000617c      0x284 libmc300.a(hfconfig.o)
 .debug_frame   0x00006400      0x174 libmc300.a(hfflash.o)
 .debug_frame   0x00006574      0x360 libmc300.a(hfnet.o)
 .debug_frame   0x000068d4       0xf0 libmc300.a(uart_thread.o)
 .debug_frame   0x000069c4      0x25c libmc300.a(hfwifi.o)
 .debug_frame   0x00006c20      0x248 libmc300.a(hfupdate.o)
 .debug_frame   0x00006e68      0x118 libmc300.a(httpclient.o)
 .debug_frame   0x00006f80      0x440 libmc300.a(hfsmtlk.o)
 .debug_frame   0x000073c0      0x184 libmc300.a(smartlinkV3.o)
 .debug_frame   0x00007544      0x114 libmc300.a(smartlinkV7.o)
 .debug_frame   0x00007658      0x13c libmc300.a(airkissv2.o)
 .debug_frame   0x00007794       0xc0 libmc300.a(assis_thread.o)
 .debug_frame   0x00007854      0x104 libmc300.a(hftimer.o)
 .debug_frame   0x00007958       0x7c libmc300.a(at_fota.o)
 .debug_frame   0x000079d4       0xe0 libmc300.a(mc300_main.o)
 .debug_frame   0x00007ab4       0x9c libmc300.a(hfsniffer.o)
 .debug_frame   0x00007b50      0x134 libmc300.a(socket_b.o)
 .debug_frame   0x00007c84       0x9c libmc300.a(socket_a.o)
 .debug_frame   0x00007d20      0x120 libmc300.a(at_socket_cmd.o)
 .debug_frame   0x00007e40       0xf0 libmc300.a(socket_a_client)
 .debug_frame   0x00007f30      0x4a0 libmc300.a(atcmd.o)
 .debug_frame   0x000083d0       0x90 libmc300.a(dhcp_process.o)
 .debug_frame   0x00008460      0x164 libmc300.a(dhcpc.o)
 .debug_frame   0x000085c4      0x184 libmc300.a(dhcps.o)
 .debug_frame   0x00008748       0xe4 libmc300.a(resolv.o)
 .debug_frame   0x0000882c       0x90 libmc300.a(ringbuf.o)
 .debug_frame   0x000088bc       0xac libmc300.a(simple-udp.o)
 .debug_frame   0x00008968      0x208 libmc300.a(socket_driver.o)
 .debug_frame   0x00008b70       0xd4 libmc300.a(soft_ap_init.o)
 .debug_frame   0x00008c44      0x21c libmc300.a(tcpip.o)
 .debug_frame   0x00008e60       0x30 libmc300.a(uip-split.o)
 .debug_frame   0x00008e90       0x4c libmc300.a(uip-udp-packet.)
 .debug_frame   0x00008edc      0x2e4 libmc300.a(uip.o)
 .debug_frame   0x000091c0      0x1a0 libmc300.a(uip_arp.o)
 .debug_frame   0x00009360       0x54 libmc300.a(uip_igmp.o)
 .debug_frame   0x000093b4       0x34 libmc300.a(uiplib.o)
 .debug_frame   0x000093e8       0x78 libmc300.a(arc4.o)
 .debug_frame   0x00009460      0x1c4 libmc300.a(wep.o)
 .debug_frame   0x00009624       0x40 libmc300.a(autostart.o)
 .debug_frame   0x00009664       0x38 libmc300.a(random.o)
 .debug_frame   0x0000969c       0x40 libmc300.a(airkiss.o)
 .debug_frame   0x000096dc      0x488 libmc300.a(atcmd_icomm.o)
 .debug_frame   0x00009b64       0xa8 libmc300.a(bsp_info.o)
 .debug_frame   0x00009c0c      0x28c libmc300.a(cfs-coffee.o)
 .debug_frame   0x00009e98       0x60 libmc300.a(console.o)
 .debug_frame   0x00009ef8      0x1b8 libmc300.a(drv_flash.o)
 .debug_frame   0x0000a0b0       0xd4 libmc300.a(drv_gpio.o)
 .debug_frame   0x0000a184       0x70 libmc300.a(gpio_api.o)
 .debug_frame   0x0000a1f4       0xe8 libmc300.a(drv_pmu.o)
 .debug_frame   0x0000a2dc       0x64 libmc300.a(pwm_api.o)
 .debug_frame   0x0000a340       0x80 libmc300.a(serial_api.o)
 .debug_frame   0x0000a3c0       0x60 libmc300.a(drv_wdog.o)
 .debug_frame   0x0000a420       0x38 libmc300.a(fence.o)
 .debug_frame   0x0000a458      0x150 libmc300.a(flash_api.o)
 .debug_frame   0x0000a5a8      0x184 libmc300.a(smartComm.o)
 .debug_frame   0x0000a72c       0x40 libmc300.a(smartConf.o)
 .debug_frame   0x0000a76c       0xb4 libmc300.a(ssv_lib_slow.o)
 .debug_frame   0x0000a820      0x164 libmc300.a(userSmart.o)
 .debug_frame   0x0000a984       0x30 libmc300.a(drv_mbox.o)
 .debug_frame   0x0000a9b4       0xd0 libmc300.a(hash_alg.o)
 .debug_frame   0x0000aa84       0x54 libmc300.a(hmac_md5.o)
 .debug_frame   0x0000aad8       0x58 libmc300.a(hmac_sha1.o)
 .debug_frame   0x0000ab30      0x168 libmc300.a(ieee80211_mac.o)
 .debug_frame   0x0000ac98       0x84 libmc300.a(ieee80211_net.o)
 .debug_frame   0x0000ad1c       0x6c libmc300.a(sha1.o)
 .debug_frame   0x0000ad88       0x7c libmc300.a(ssv6200_tx.o)
 .debug_frame   0x0000ae04       0xb0 libmc300.a(sys_status_api.)
 .debug_frame   0x0000aeb4       0x6c libmc300.a(shell-ping.o)
 .debug_frame   0x0000af20       0x30 libmc300.a(drv_fence.o)
 .debug_frame   0x0000af50       0xb0 libmc300.a(drv_pwm.o)
 .debug_frame   0x0000b000       0x68 libmc300.a(EAPOL.o)
 .debug_frame   0x0000b068      0x558 libcjsona.a(cJSON.o)
 .debug_frame   0x0000b5c0       0x20 /usr/bin/../lib/gcc/arm-none-eabi/4.8.4/../../../../arm-none-eabi/lib/libm.a(lib_a-s_fabs.o)
 .debug_frame   0x0000b5e0       0x38 /usr/bin/../lib/gcc/arm-none-eabi/4.8.4/../../../../arm-none-eabi/lib/libm.a(lib_a-s_floor.o)
 .debug_frame   0x0000b618       0x38 /usr/bin/../lib/gcc/arm-none-eabi/4.8.4/../../../../arm-none-eabi/lib/libm.a(lib_a-w_pow.o)
 .debug_frame   0x0000b650       0x38 /usr/bin/../lib/gcc/arm-none-eabi/4.8.4/../../../../arm-none-eabi/lib/libm.a(lib_a-e_pow.o)
 .debug_frame   0x0000b688       0x34 /usr/bin/../lib/gcc/arm-none-eabi/4.8.4/../../../../arm-none-eabi/lib/libm.a(lib_a-e_sqrt.o)
 .debug_frame   0x0000b6bc       0x20 /usr/bin/../lib/gcc/arm-none-eabi/4.8.4/../../../../arm-none-eabi/lib/libm.a(lib_a-s_finite.o)
 .debug_frame   0x0000b6dc       0x20 /usr/bin/../lib/gcc/arm-none-eabi/4.8.4/../../../../arm-none-eabi/lib/libm.a(lib_a-s_fpclassify.o)
 .debug_frame   0x0000b6fc       0x20 /usr/bin/../lib/gcc/arm-none-eabi/4.8.4/../../../../arm-none-eabi/lib/libm.a(lib_a-s_matherr.o)
 .debug_frame   0x0000b71c       0x20 /usr/bin/../lib/gcc/arm-none-eabi/4.8.4/../../../../arm-none-eabi/lib/libm.a(lib_a-s_nan.o)
 .debug_frame   0x0000b73c       0x38 /usr/bin/../lib/gcc/arm-none-eabi/4.8.4/../../../../arm-none-eabi/lib/libm.a(lib_a-s_rint.o)
 .debug_frame   0x0000b774       0x30 /usr/bin/../lib/gcc/arm-none-eabi/4.8.4/../../../../arm-none-eabi/lib/libm.a(lib_a-s_scalbn.o)
 .debug_frame   0x0000b7a4       0x28 /usr/bin/../lib/gcc/arm-none-eabi/4.8.4/../../../../arm-none-eabi/lib/libm.a(lib_a-s_copysign.o)
 .debug_frame   0x0000b7cc       0x20 /usr/bin/../lib/gcc/arm-none-eabi/4.8.4/libgcc.a(_udivsi3.o)
 .debug_frame   0x0000b7ec       0x20 /usr/bin/../lib/gcc/arm-none-eabi/4.8.4/libgcc.a(_divsi3.o)
 .debug_frame   0x0000b80c       0x58 /usr/bin/../lib/gcc/arm-none-eabi/4.8.4/libgcc.a(bpabi.o)
 .debug_frame   0x0000b864       0x38 /usr/bin/../lib/gcc/arm-none-eabi/4.8.4/libgcc.a(_divdi3.o)
 .debug_frame   0x0000b89c       0x38 /usr/bin/../lib/gcc/arm-none-eabi/4.8.4/libgcc.a(_udivdi3.o)
 .debug_frame   0x0000b8d4       0x40 /usr/bin/../lib/gcc/arm-none-eabi/4.8.4/../../../../arm-none-eabi/lib/libg_s.a(lib_a-atoi.o)
 .debug_frame   0x0000b914       0x20 /usr/bin/../lib/gcc/arm-none-eabi/4.8.4/../../../../arm-none-eabi/lib/libg_s.a(lib_a-bzero.o)
 .debug_frame   0x0000b934       0x20 /usr/bin/../lib/gcc/arm-none-eabi/4.8.4/../../../../arm-none-eabi/lib/libg_s.a(lib_a-errno.o)
 .debug_frame   0x0000b954       0x40 /usr/bin/../lib/gcc/arm-none-eabi/4.8.4/../../../../arm-none-eabi/lib/libg_s.a(lib_a-malloc.o)
 .debug_frame   0x0000b994       0x20 /usr/bin/../lib/gcc/arm-none-eabi/4.8.4/../../../../arm-none-eabi/lib/libg_s.a(lib_a-memchr-stub.o)
 .debug_frame   0x0000b9b4       0x84 /usr/bin/../lib/gcc/arm-none-eabi/4.8.4/../../../../arm-none-eabi/lib/libg_s.a(lib_a-mstats.o)
 .debug_frame   0x0000ba38       0x28 /usr/bin/../lib/gcc/arm-none-eabi/4.8.4/../../../../arm-none-eabi/lib/libg_s.a(lib_a-nano-freer.o)
 .debug_frame   0x0000ba60       0x2c /usr/bin/../lib/gcc/arm-none-eabi/4.8.4/../../../../arm-none-eabi/lib/libg_s.a(lib_a-nano-mallinfor.o)
 .debug_frame   0x0000ba8c       0x2c /usr/bin/../lib/gcc/arm-none-eabi/4.8.4/../../../../arm-none-eabi/lib/libg_s.a(lib_a-nano-mallocr.o)
 .debug_frame   0x0000bab8       0x20 /usr/bin/../lib/gcc/arm-none-eabi/4.8.4/../../../../arm-none-eabi/lib/libg_s.a(lib_a-nano-malloptr.o)
 .debug_frame   0x0000bad8       0x2c /usr/bin/../lib/gcc/arm-none-eabi/4.8.4/../../../../arm-none-eabi/lib/libg_s.a(lib_a-nano-mallstatsr.o)
 .debug_frame   0x0000bb04       0x44 /usr/bin/../lib/gcc/arm-none-eabi/4.8.4/../../../../arm-none-eabi/lib/libg_s.a(lib_a-rand.o)
 .debug_frame   0x0000bb48       0x28 /usr/bin/../lib/gcc/arm-none-eabi/4.8.4/../../../../arm-none-eabi/lib/libg_s.a(lib_a-realloc.o)
 .debug_frame   0x0000bb70       0x2c /usr/bin/../lib/gcc/arm-none-eabi/4.8.4/../../../../arm-none-eabi/lib/libg_s.a(lib_a-sbrkr.o)
 .debug_frame   0x0000bb9c       0x58 /usr/bin/../lib/gcc/arm-none-eabi/4.8.4/../../../../arm-none-eabi/lib/libg_s.a(lib_a-sscanf.o)
 .debug_frame   0x0000bbf4       0x88 /usr/bin/../lib/gcc/arm-none-eabi/4.8.4/../../../../arm-none-eabi/lib/libg_s.a(lib_a-stdio.o)
 .debug_frame   0x0000bc7c       0x28 /usr/bin/../lib/gcc/arm-none-eabi/4.8.4/../../../../arm-none-eabi/lib/libg_s.a(lib_a-strcasecmp.o)
 .debug_frame   0x0000bca4       0x2c /usr/bin/../lib/gcc/arm-none-eabi/4.8.4/../../../../arm-none-eabi/lib/libg_s.a(lib_a-strncasecmp.o)
 .debug_frame   0x0000bcd0       0x54 /usr/bin/../lib/gcc/arm-none-eabi/4.8.4/../../../../arm-none-eabi/lib/libg_s.a(lib_a-strtol.o)
 .debug_frame   0x0000bd24       0x54 /usr/bin/../lib/gcc/arm-none-eabi/4.8.4/../../../../arm-none-eabi/lib/libg_s.a(lib_a-strtoul.o)
 .debug_frame   0x0000bd78       0x6c /usr/bin/../lib/gcc/arm-none-eabi/4.8.4/../../../../arm-none-eabi/lib/libg_s.a(lib_a-svfscanf.o)
 .debug_frame   0x0000bde4       0x5c /usr/bin/../lib/gcc/arm-none-eabi/4.8.4/../../../../arm-none-eabi/lib/libg_s.a(lib_a-ungetc.o)
 .debug_frame   0x0000be40       0x58 /usr/bin/../lib/gcc/arm-none-eabi/4.8.4/../../../../arm-none-eabi/lib/libg_s.a(lib_a-vfscanf_i.o)
 .debug_frame   0x0000be98       0x2c /usr/bin/../lib/gcc/arm-none-eabi/4.8.4/../../../../arm-none-eabi/lib/libg_s.a(lib_a-writer.o)
 .debug_frame   0x0000bec4       0x2c /usr/bin/../lib/gcc/arm-none-eabi/4.8.4/../../../../arm-none-eabi/lib/libg_s.a(lib_a-closer.o)
 .debug_frame   0x0000bef0       0x64 /usr/bin/../lib/gcc/arm-none-eabi/4.8.4/../../../../arm-none-eabi/lib/libg_s.a(lib_a-fflush.o)
 .debug_frame   0x0000bf54      0x13c /usr/bin/../lib/gcc/arm-none-eabi/4.8.4/../../../../arm-none-eabi/lib/libg_s.a(lib_a-findfp.o)
 .debug_frame   0x0000c090       0x58 /usr/bin/../lib/gcc/arm-none-eabi/4.8.4/../../../../arm-none-eabi/lib/libg_s.a(lib_a-fprintf.o)
 .debug_frame   0x0000c0e8       0x54 /usr/bin/../lib/gcc/arm-none-eabi/4.8.4/../../../../arm-none-eabi/lib/libg_s.a(lib_a-fwalk.o)
 .debug_frame   0x0000c13c       0x2c /usr/bin/../lib/gcc/arm-none-eabi/4.8.4/../../../../arm-none-eabi/lib/libg_s.a(lib_a-lseekr.o)
 .debug_frame   0x0000c168       0x30 /usr/bin/../lib/gcc/arm-none-eabi/4.8.4/../../../../arm-none-eabi/lib/libg_s.a(lib_a-nano-reallocr.o)
 .debug_frame   0x0000c198       0x2c /usr/bin/../lib/gcc/arm-none-eabi/4.8.4/../../../../arm-none-eabi/lib/libg_s.a(lib_a-readr.o)
 .debug_frame   0x0000c1c4       0x48 /usr/bin/../lib/gcc/arm-none-eabi/4.8.4/../../../../arm-none-eabi/lib/libg_s.a(lib_a-reent.o)
 .debug_frame   0x0000c20c       0x2c /usr/bin/../lib/gcc/arm-none-eabi/4.8.4/../../../../arm-none-eabi/lib/libg_s.a(lib_a-sccl.o)
 .debug_frame   0x0000c238       0xa4 /usr/bin/../lib/gcc/arm-none-eabi/4.8.4/../../../../arm-none-eabi/lib/libg_s.a(lib_a-vfprintf.o)
 .debug_frame   0x0000c2dc       0x5c /usr/bin/../lib/gcc/arm-none-eabi/4.8.4/../../../../arm-none-eabi/lib/libg_s.a(lib_a-vfprintf_i.o)
 .debug_frame   0x0000c338       0x3c /usr/bin/../lib/gcc/arm-none-eabi/4.8.4/../../../../arm-none-eabi/lib/libg_s.a(lib_a-wbuf.o)
 .debug_frame   0x0000c374       0x2c /usr/bin/../lib/gcc/arm-none-eabi/4.8.4/../../../../arm-none-eabi/lib/libg_s.a(lib_a-wsetup.o)
 .debug_frame   0x0000c3a0       0x38 /usr/bin/../lib/gcc/arm-none-eabi/4.8.4/../../../../arm-none-eabi/lib/libg_s.a(lib_a-fvwrite.o)
 .debug_frame   0x0000c3d8       0x30 /usr/bin/../lib/gcc/arm-none-eabi/4.8.4/../../../../arm-none-eabi/lib/libg_s.a(lib_a-makebuf.o)
 .debug_frame   0x0000c408       0x20 /usr/bin/../lib/gcc/arm-none-eabi/4.8.4/../../../../arm-none-eabi/lib/libg_s.a(lib_a-nano-msizer.o)
 .debug_frame   0x0000c428       0x2c /usr/bin/../lib/gcc/arm-none-eabi/4.8.4/../../../../arm-none-eabi/lib/libg_s.a(lib_a-fstatr.o)
 .debug_frame   0x0000c454       0x2c /usr/bin/../lib/gcc/arm-none-eabi/4.8.4/../../../../arm-none-eabi/lib/libg_s.a(lib_a-isattyr.o)
 .debug_frame   0x0000c480       0x20 /usr/bin/../lib/gcc/arm-none-eabi/4.8.4/../../../../arm-none-eabi/lib/libnosys.a(close.o)
 .debug_frame   0x0000c4a0       0x20 /usr/bin/../lib/gcc/arm-none-eabi/4.8.4/../../../../arm-none-eabi/lib/libnosys.a(fstat.o)
 .debug_frame   0x0000c4c0       0x20 /usr/bin/../lib/gcc/arm-none-eabi/4.8.4/../../../../arm-none-eabi/lib/libnosys.a(isatty.o)
 .debug_frame   0x0000c4e0       0x20 /usr/bin/../lib/gcc/arm-none-eabi/4.8.4/../../../../arm-none-eabi/lib/libnosys.a(lseek.o)
 .debug_frame   0x0000c500       0x20 /usr/bin/../lib/gcc/arm-none-eabi/4.8.4/../../../../arm-none-eabi/lib/libnosys.a(read.o)
 .debug_frame   0x0000c520       0x20 /usr/bin/../lib/gcc/arm-none-eabi/4.8.4/../../../../arm-none-eabi/lib/libnosys.a(write.o)

.stab           0x00000000       0x9c
 .stab          0x00000000       0x24 /usr/bin/../lib/gcc/arm-none-eabi/4.8.4/../../../../arm-none-eabi/lib/libnosys.a(close.o)
 .stab          0x00000024       0x18 /usr/bin/../lib/gcc/arm-none-eabi/4.8.4/../../../../arm-none-eabi/lib/libnosys.a(fstat.o)
                                 0x24 (size before relaxing)
 .stab          0x0000003c       0x18 /usr/bin/../lib/gcc/arm-none-eabi/4.8.4/../../../../arm-none-eabi/lib/libnosys.a(isatty.o)
                                 0x24 (size before relaxing)
 .stab          0x00000054       0x18 /usr/bin/../lib/gcc/arm-none-eabi/4.8.4/../../../../arm-none-eabi/lib/libnosys.a(lseek.o)
                                 0x24 (size before relaxing)
 .stab          0x0000006c       0x18 /usr/bin/../lib/gcc/arm-none-eabi/4.8.4/../../../../arm-none-eabi/lib/libnosys.a(read.o)
                                 0x24 (size before relaxing)
 .stab          0x00000084       0x18 /usr/bin/../lib/gcc/arm-none-eabi/4.8.4/../../../../arm-none-eabi/lib/libnosys.a(write.o)
                                 0x24 (size before relaxing)

.stabstr        0x00000000      0x14d
 .stabstr       0x00000000      0x14d /usr/bin/../lib/gcc/arm-none-eabi/4.8.4/../../../../arm-none-eabi/lib/libnosys.a(close.o)
